
retinatest.elf:     file format elf32-littlearm
retinatest.elf
architecture: armv5te, flags 0x00000112:
EXEC_P, HAS_SYMS, D_PAGED
start address 0x00000000

Program Header:
    LOAD off    0x00008000 vaddr 0x00000000 paddr 0x00000000 align 2**15
         filesz 0x00001f82 memsz 0x00001f82 flags r-x
    LOAD off    0x00010000 vaddr 0x00400000 paddr 0x00400000 align 2**15
         filesz 0x0000000c memsz 0x000006cc flags rw-
private flags = 5000200: [Version5 EABI] [soft-float ABI]

Sections:
Idx Name          Size      VMA       LMA       File off  Algn
  0 RO_DATA       00001f82  00000000  00000000  00008000  2**2
                  CONTENTS, ALLOC, LOAD, READONLY, CODE
  1 RW_DATA       0000000c  00400000  00400000  00010000  2**2
                  CONTENTS, ALLOC, LOAD, DATA
  2 ZI_DATA       000006c0  0040000c  0040000c  0001000c  2**2
                  ALLOC
  3 .comment      00000030  00000000  00000000  0001000c  2**0
                  CONTENTS, READONLY
  4 .ARM.attributes 00000027  00000000  00000000  0001003c  2**0
                  CONTENTS, READONLY
SYMBOL TABLE:
00000000 l    d  RO_DATA	00000000 RO_DATA
00400000 l    d  RW_DATA	00000000 RW_DATA
0040000c l    d  ZI_DATA	00000000 ZI_DATA
00000000 l    d  .comment	00000000 .comment
00000000 l    d  .ARM.attributes	00000000 .ARM.attributes
00000000 l    df *ABS*	00000000 sark_alib.o
00000001 l       *ABS*	00000000 GNU
00000000 l       *ABS*	00000000 NULL
80000000 l       *ABS*	00000000 BIT_31
00000001 l       *ABS*	00000000 BUF_WRITE
00000012 l       *ABS*	00000000 NUM_CPUS
00000006 l       *ABS*	00000000 NUM_LINKS
00000000 l       *ABS*	00000000 ITCM_BASE
00008000 l       *ABS*	00000000 ITCM_SIZE
00008000 l       *ABS*	00000000 ITCM_TOP
00400000 l       *ABS*	00000000 DTCM_BASE
00010000 l       *ABS*	00000000 DTCM_SIZE
00410000 l       *ABS*	00000000 DTCM_TOP
70000000 l       *ABS*	00000000 SDRAM_BASE_UNBUF
60000000 l       *ABS*	00000000 SDRAM_BASE_BUF
60000000 l       *ABS*	00000000 SDRAM_BASE
08000000 l       *ABS*	00000000 SDRAM_SIZE
68000000 l       *ABS*	00000000 SDRAM_TOP
f5000000 l       *ABS*	00000000 SYSRAM_BASE_UNBUF
e5000000 l       *ABS*	00000000 SYSRAM_BASE_BUF
e5000000 l       *ABS*	00000000 SYSRAM_BASE
00008000 l       *ABS*	00000000 SYSRAM_SIZE
e5008000 l       *ABS*	00000000 SYSRAM_TOP
f6000000 l       *ABS*	00000000 ROM_BASE
00008000 l       *ABS*	00000000 ROM_SIZE
f6008000 l       *ABS*	00000000 ROM_TOP
10000000 l       *ABS*	00000000 CC_BASE_UNBUF
20000000 l       *ABS*	00000000 CC_BASE_BUF
20000000 l       *ABS*	00000000 CC_BASE
00000000 l       *ABS*	00000000 CC_TCR
00000004 l       *ABS*	00000000 CC_TXDATA
00000008 l       *ABS*	00000000 CC_TXKEY
0000000c l       *ABS*	00000000 CC_RSR
00000010 l       *ABS*	00000000 CC_RXDATA
00000014 l       *ABS*	00000000 CC_RXKEY
00000018 l       *ABS*	00000000 CC_SAR
0000001c l       *ABS*	00000000 CC_TEST
11000000 l       *ABS*	00000000 TIMER_BASE_UNBUF
21000000 l       *ABS*	00000000 TIMER_BASE_BUF
21000000 l       *ABS*	00000000 TIMER_BASE
00000020 l       *ABS*	00000000 TIMER_OFFSET
21000000 l       *ABS*	00000000 TIMER1_BASE
21000020 l       *ABS*	00000000 TIMER2_BASE
00000000 l       *ABS*	00000000 TC_LOAD
00000004 l       *ABS*	00000000 TC_COUNT
00000008 l       *ABS*	00000000 TC_CONTROL
0000000c l       *ABS*	00000000 TC_INT_CLR
00000010 l       *ABS*	00000000 TC_RAW_INT
00000014 l       *ABS*	00000000 TC_MASK_INT
00000018 l       *ABS*	00000000 TC_BG_LOAD
00000000 l       *ABS*	00000000 T1_LOAD
00000004 l       *ABS*	00000000 T1_COUNT
00000008 l       *ABS*	00000000 T1_CONTROL
0000000c l       *ABS*	00000000 T1_INT_CLR
00000010 l       *ABS*	00000000 T1_RAW_INT
00000014 l       *ABS*	00000000 T1_MASK_INT
00000018 l       *ABS*	00000000 T1_BG_LOAD
00000020 l       *ABS*	00000000 T2_LOAD
00000024 l       *ABS*	00000000 T2_COUNT
00000028 l       *ABS*	00000000 T2_CONTROL
0000002c l       *ABS*	00000000 T2_INT_CLR
00000030 l       *ABS*	00000000 T2_RAW_INT
00000034 l       *ABS*	00000000 T2_MASK_INT
00000038 l       *ABS*	00000000 T2_BG_LOAD
1f000000 l       *ABS*	00000000 VIC_BASE_UNBUF
2f000000 l       *ABS*	00000000 VIC_BASE_BUF
2f000000 l       *ABS*	00000000 VIC_BASE
00000000 l       *ABS*	00000000 VIC_IRQST
00000004 l       *ABS*	00000000 VIC_FIQST
00000008 l       *ABS*	00000000 VIC_RAW
0000000c l       *ABS*	00000000 VIC_SELECT
00000010 l       *ABS*	00000000 VIC_ENABLE
00000014 l       *ABS*	00000000 VIC_DISABLE
00000018 l       *ABS*	00000000 VIC_SOFT_SET
0000001c l       *ABS*	00000000 VIC_SOFT_CLR
00000020 l       *ABS*	00000000 VIC_PROTECT
00000030 l       *ABS*	00000000 VIC_VADDR
00000034 l       *ABS*	00000000 VIC_DEFADDR
00000100 l       *ABS*	00000000 VIC_ADDR
00000100 l       *ABS*	00000000 VIC_ADDR0
00000104 l       *ABS*	00000000 VIC_ADDR1
00000108 l       *ABS*	00000000 VIC_ADDR2
0000010c l       *ABS*	00000000 VIC_ADDR3
00000110 l       *ABS*	00000000 VIC_ADDR4
00000114 l       *ABS*	00000000 VIC_ADDR5
00000118 l       *ABS*	00000000 VIC_ADDR6
0000011c l       *ABS*	00000000 VIC_ADDR7
00000120 l       *ABS*	00000000 VIC_ADDR8
00000124 l       *ABS*	00000000 VIC_ADDR9
00000128 l       *ABS*	00000000 VIC_ADDR10
0000012c l       *ABS*	00000000 VIC_ADDR11
00000130 l       *ABS*	00000000 VIC_ADDR12
00000134 l       *ABS*	00000000 VIC_ADDR13
00000138 l       *ABS*	00000000 VIC_ADDR14
0000013c l       *ABS*	00000000 VIC_ADDR15
00000200 l       *ABS*	00000000 VIC_CNTL
00000200 l       *ABS*	00000000 VIC_CNTL0
00000204 l       *ABS*	00000000 VIC_CNTL1
00000208 l       *ABS*	00000000 VIC_CNTL2
0000020c l       *ABS*	00000000 VIC_CNTL3
00000210 l       *ABS*	00000000 VIC_CNTL4
00000214 l       *ABS*	00000000 VIC_CNTL5
00000218 l       *ABS*	00000000 VIC_CNTL6
0000021c l       *ABS*	00000000 VIC_CNTL7
00000220 l       *ABS*	00000000 VIC_CNTL8
00000224 l       *ABS*	00000000 VIC_CNTL9
00000228 l       *ABS*	00000000 VIC_CNTL10
0000022c l       *ABS*	00000000 VIC_CNTL11
00000230 l       *ABS*	00000000 VIC_CNTL12
00000234 l       *ABS*	00000000 VIC_CNTL13
00000238 l       *ABS*	00000000 VIC_CNTL14
0000023c l       *ABS*	00000000 VIC_CNTL15
00000000 l       *ABS*	00000000 WDOG_INT
00000001 l       *ABS*	00000000 SOFTWARE_INT
00000002 l       *ABS*	00000000 COMM_RX_INT
00000003 l       *ABS*	00000000 COMM_TX_INT
00000004 l       *ABS*	00000000 TIMER1_INT
00000005 l       *ABS*	00000000 TIMER2_INT
00000006 l       *ABS*	00000000 CC_RDY_INT
00000007 l       *ABS*	00000000 CC_RPE_INT
00000008 l       *ABS*	00000000 CC_RFE_INT
00000009 l       *ABS*	00000000 CC_TFL_INT
0000000a l       *ABS*	00000000 CC_TOV_INT
0000000b l       *ABS*	00000000 CC_TMT_INT
0000000c l       *ABS*	00000000 DMA_DONE_INT
0000000d l       *ABS*	00000000 DMA_ERR_INT
0000000e l       *ABS*	00000000 DMA_TO_INT
0000000f l       *ABS*	00000000 RTR_DIAG_INT
00000010 l       *ABS*	00000000 RTR_DUMP_INT
00000011 l       *ABS*	00000000 RTR_ERR_INT
00000012 l       *ABS*	00000000 CPU_INT
00000013 l       *ABS*	00000000 ETH_TX_INT
00000014 l       *ABS*	00000000 ETH_RX_INT
00000015 l       *ABS*	00000000 ETH_PHY_INT
00000016 l       *ABS*	00000000 SLOW_CLK_INT
00000017 l       *ABS*	00000000 CC_TNF_INT
00000018 l       *ABS*	00000000 CC_MC_INT
00000019 l       *ABS*	00000000 CC_P2P_INT
0000001a l       *ABS*	00000000 CC_NN_INT
0000001b l       *ABS*	00000000 CC_FR_INT
0000001c l       *ABS*	00000000 INT0_INT
0000001d l       *ABS*	00000000 INT1_INT
0000001e l       *ABS*	00000000 GPIO8_INT
0000001f l       *ABS*	00000000 GPIO9_INT
30000000 l       *ABS*	00000000 DMA_BASE_UNBUF
40000000 l       *ABS*	00000000 DMA_BASE_BUF
40000000 l       *ABS*	00000000 DMA_BASE
00000004 l       *ABS*	00000000 DMA_ADRS
00000008 l       *ABS*	00000000 DMA_ADRT
0000000c l       *ABS*	00000000 DMA_DESC
00000010 l       *ABS*	00000000 DMA_CTRL
00000014 l       *ABS*	00000000 DMA_STAT
00000018 l       *ABS*	00000000 DMA_GCTL
0000001c l       *ABS*	00000000 DMA_CRCC
00000020 l       *ABS*	00000000 DMA_CRCR
00000024 l       *ABS*	00000000 DMA_TMTV
00000028 l       *ABS*	00000000 DMA_SCTL
00000040 l       *ABS*	00000000 DMA_STAT0
00000044 l       *ABS*	00000000 DMA_STAT1
00000048 l       *ABS*	00000000 DMA_STAT2
0000004c l       *ABS*	00000000 DMA_STAT3
00000050 l       *ABS*	00000000 DMA_STAT4
00000054 l       *ABS*	00000000 DMA_STAT5
00000058 l       *ABS*	00000000 DMA_STAT6
0000005c l       *ABS*	00000000 DMA_STAT7
00000104 l       *ABS*	00000000 DMA_AD2S
00000108 l       *ABS*	00000000 DMA_AD2T
0000010c l       *ABS*	00000000 DMA_DES2
00000180 l       *ABS*	00000000 DMA_CRCT
f0000000 l       *ABS*	00000000 PL340_BASE_UNBUF
e0000000 l       *ABS*	00000000 PL340_BASE_BUF
e0000000 l       *ABS*	00000000 PL340_BASE
00000000 l       *ABS*	00000000 MC_STAT
00000004 l       *ABS*	00000000 MC_CMD
00000008 l       *ABS*	00000000 MC_DIRC
0000000c l       *ABS*	00000000 MC_MCFG
00000010 l       *ABS*	00000000 MC_REFP
00000014 l       *ABS*	00000000 MC_CASL
00000018 l       *ABS*	00000000 MC_DQSS
0000001c l       *ABS*	00000000 MC_MRD
00000020 l       *ABS*	00000000 MC_RAS
00000024 l       *ABS*	00000000 MC_RC
00000028 l       *ABS*	00000000 MC_RCD
0000002c l       *ABS*	00000000 MC_RFC
00000030 l       *ABS*	00000000 MC_RP
00000034 l       *ABS*	00000000 MC_RRD
00000038 l       *ABS*	00000000 MC_WR
0000003c l       *ABS*	00000000 MC_WTR
00000040 l       *ABS*	00000000 MC_XP
00000044 l       *ABS*	00000000 MC_XSR
00000048 l       *ABS*	00000000 MC_ESR
0000004c l       *ABS*	00000000 MC_MCFG2
00000050 l       *ABS*	00000000 MC_MCFG3
00000100 l       *ABS*	00000000 MC_QOS0
00000104 l       *ABS*	00000000 MC_QOS1
00000108 l       *ABS*	00000000 MC_QOS2
0000010c l       *ABS*	00000000 MC_QOS3
00000110 l       *ABS*	00000000 MC_QOS4
00000114 l       *ABS*	00000000 MC_QOS5
00000118 l       *ABS*	00000000 MC_QOS6
0000011c l       *ABS*	00000000 MC_QOS7
00000120 l       *ABS*	00000000 MC_QOS8
00000124 l       *ABS*	00000000 MC_QOS9
00000128 l       *ABS*	00000000 MC_QOS10
0000012c l       *ABS*	00000000 MC_QOS11
00000130 l       *ABS*	00000000 MC_QOS12
00000134 l       *ABS*	00000000 MC_QOS13
00000138 l       *ABS*	00000000 MC_QOS14
0000013c l       *ABS*	00000000 MC_QOS15
00000200 l       *ABS*	00000000 MC_CCFG0
00000204 l       *ABS*	00000000 MC_CCFG1
00000208 l       *ABS*	00000000 MC_CCFG2
0000020c l       *ABS*	00000000 MC_CCFG3
00000300 l       *ABS*	00000000 DLL_STATUS
00000304 l       *ABS*	00000000 DLL_CONFIG0
00000308 l       *ABS*	00000000 DLL_CONFIG1
f1000000 l       *ABS*	00000000 RTR_BASE_UNBUF
e1000000 l       *ABS*	00000000 RTR_BASE_BUF
e1000000 l       *ABS*	00000000 RTR_BASE
00000000 l       *ABS*	00000000 RTR_CONTROL
00000004 l       *ABS*	00000000 RTR_STATUS
00000008 l       *ABS*	00000000 RTR_EHDR
0000000c l       *ABS*	00000000 RTR_EKEY
00000010 l       *ABS*	00000000 RTR_EDAT
00000014 l       *ABS*	00000000 RTR_ESTAT
00000018 l       *ABS*	00000000 RTR_DHDR
0000001c l       *ABS*	00000000 RTR_DKEY
00000020 l       *ABS*	00000000 RTR_DDAT
00000024 l       *ABS*	00000000 RTR_DLINK
00000028 l       *ABS*	00000000 RTR_DSTAT
0000002c l       *ABS*	00000000 RTR_DGEN
00000200 l       *ABS*	00000000 RTR_DGF0
00000204 l       *ABS*	00000000 RTR_DGF1
00000208 l       *ABS*	00000000 RTR_DGF2
0000020c l       *ABS*	00000000 RTR_DGF3
00000210 l       *ABS*	00000000 RTR_DGF4
00000214 l       *ABS*	00000000 RTR_DGF5
00000218 l       *ABS*	00000000 RTR_DGF6
0000021c l       *ABS*	00000000 RTR_DGF7
00000220 l       *ABS*	00000000 RTR_DGF8
00000224 l       *ABS*	00000000 RTR_DGF9
00000228 l       *ABS*	00000000 RTR_DGF10
0000022c l       *ABS*	00000000 RTR_DGF11
00000230 l       *ABS*	00000000 RTR_DGF12
00000234 l       *ABS*	00000000 RTR_DGF13
00000238 l       *ABS*	00000000 RTR_DGF14
0000023c l       *ABS*	00000000 RTR_DGF15
00000300 l       *ABS*	00000000 RTR_DGC0
00000304 l       *ABS*	00000000 RTR_DGC1
00000308 l       *ABS*	00000000 RTR_DGC2
0000030c l       *ABS*	00000000 RTR_DGC3
00000310 l       *ABS*	00000000 RTR_DGC4
00000314 l       *ABS*	00000000 RTR_DGC5
00000318 l       *ABS*	00000000 RTR_DGC6
0000031c l       *ABS*	00000000 RTR_DGC7
00000320 l       *ABS*	00000000 RTR_DGC8
00000324 l       *ABS*	00000000 RTR_DGC9
00000328 l       *ABS*	00000000 RTR_DGC10
0000032c l       *ABS*	00000000 RTR_DGC11
00000330 l       *ABS*	00000000 RTR_DGC12
00000334 l       *ABS*	00000000 RTR_DGC13
00000338 l       *ABS*	00000000 RTR_DGC14
0000033c l       *ABS*	00000000 RTR_DGC15
00000f00 l       *ABS*	00000000 RTR_TST1
00000f04 l       *ABS*	00000000 RTR_TST2
00002000 l       *ABS*	00000000 P2P_TABLE_SIZE
00000400 l       *ABS*	00000000 MC_TABLE_SIZE
00000018 l       *ABS*	00000000 MC_RAM_WIDTH
00ffffff l       *ABS*	00000000 MC_RAM_MASK
00000008 l       *ABS*	00000000 P2P_EPW
00000003 l       *ABS*	00000000 P2P_LOG_EPW
00000007 l       *ABS*	00000000 P2P_EMASK
00000003 l       *ABS*	00000000 P2P_BPE
00000007 l       *ABS*	00000000 P2P_BMASK
00db6db6 l       *ABS*	00000000 P2P_INIT
e1004000 l       *ABS*	00000000 RTR_MCRAM_BASE
e1005000 l       *ABS*	00000000 RTR_MCRAM_TOP
e1008000 l       *ABS*	00000000 RTR_MCKEY_BASE
e1009000 l       *ABS*	00000000 RTR_MCKEY_TOP
e100c000 l       *ABS*	00000000 RTR_MCMASK_BASE
e100d000 l       *ABS*	00000000 RTR_MCMASK_TOP
e1010000 l       *ABS*	00000000 RTR_P2P_BASE
e1018000 l       *ABS*	00000000 RTR_P2P_TOP
00000020 l       *ABS*	00000000 MC_CAM_WIDTH
f2000000 l       *ABS*	00000000 SYSCTL_BASE_UNBUF
e2000000 l       *ABS*	00000000 SYSCTL_BASE_BUF
e2000000 l       *ABS*	00000000 SYSCTL_BASE
5ec00000 l       *ABS*	00000000 SC_CODE
59111012 l       *ABS*	00000000 CHIP_ID_CODE
00000000 l       *ABS*	00000000 SC_CHIP_ID
00000004 l       *ABS*	00000000 SC_CPU_DIS
00000008 l       *ABS*	00000000 SC_SET_IRQ
0000000c l       *ABS*	00000000 SC_CLR_IRQ
00000010 l       *ABS*	00000000 SC_SET_OK
00000010 l       *ABS*	00000000 SC_CPU_OK
00000014 l       *ABS*	00000000 SC_CLR_OK
00000018 l       *ABS*	00000000 SC_SOFT_RST_L
0000001c l       *ABS*	00000000 SC_HARD_RST_L
00000020 l       *ABS*	00000000 SC_SUBS_RST_L
00000024 l       *ABS*	00000000 SC_SOFT_RST_P
00000028 l       *ABS*	00000000 SC_HARD_RST_P
0000002c l       *ABS*	00000000 SC_SUBS_RST_P
00000030 l       *ABS*	00000000 SC_RST_CODE
00000034 l       *ABS*	00000000 SC_MON_ID
00000038 l       *ABS*	00000000 SC_MISC_CTRL
0000003c l       *ABS*	00000000 GPIO_RES
00000040 l       *ABS*	00000000 GPIO_PORT
00000044 l       *ABS*	00000000 GPIO_DIR
00000048 l       *ABS*	00000000 GPIO_SET
0000004c l       *ABS*	00000000 GPIO_CLR
00000048 l       *ABS*	00000000 GPIO_READ
00000050 l       *ABS*	00000000 SC_PLL1
00000054 l       *ABS*	00000000 SC_PLL2
00000058 l       *ABS*	00000000 SC_FLAG
00000058 l       *ABS*	00000000 SC_SETFLAG
0000005c l       *ABS*	00000000 SC_CLRFLAG
00000060 l       *ABS*	00000000 SC_CLKMUX
00000064 l       *ABS*	00000000 SC_SLEEP
00000068 l       *ABS*	00000000 SC_TS0
0000006c l       *ABS*	00000000 SC_TS1
00000070 l       *ABS*	00000000 SC_TS2
00000080 l       *ABS*	00000000 SC_ARB0
00000100 l       *ABS*	00000000 SC_TAS0
00000180 l       *ABS*	00000000 SC_TAC0
00000200 l       *ABS*	00000000 SC_LINK_DIS
00000000 l       *ABS*	00000000 RST_POR
00000001 l       *ABS*	00000000 RST_WDT
00000002 l       *ABS*	00000000 RST_USER
00000003 l       *ABS*	00000000 RST_SW
00000004 l       *ABS*	00000000 RST_WDI
f3000000 l       *ABS*	00000000 WDOG_BASE_UNBUF
e3000000 l       *ABS*	00000000 WDOG_BASE_BUF
e3000000 l       *ABS*	00000000 WDOG_BASE
00000000 l       *ABS*	00000000 WD_LOAD
00000004 l       *ABS*	00000000 WD_COUNT
00000008 l       *ABS*	00000000 WD_CTRL
0000000c l       *ABS*	00000000 WD_INTCLR
00000010 l       *ABS*	00000000 WD_RAWINT
00000014 l       *ABS*	00000000 WD_MSKINT
00000c00 l       *ABS*	00000000 WD_LOCK
1acce551 l       *ABS*	00000000 WD_CODE
00000001 l       *ABS*	00000000 WD_INT_B
00000002 l       *ABS*	00000000 WD_RST_B
f4000000 l       *ABS*	00000000 ETH_BASE_UNBUF
e4000000 l       *ABS*	00000000 ETH_BASE_BUF
e4000000 l       *ABS*	00000000 ETH_BASE
e4000000 l       *ABS*	00000000 ETH_TX_BASE
00000600 l       *ABS*	00000000 ETH_TX_SIZE
e4000600 l       *ABS*	00000000 ETH_TX_TOP
e4004000 l       *ABS*	00000000 ETH_RX_BASE
00000c00 l       *ABS*	00000000 ETH_RX_SIZE
e4004c00 l       *ABS*	00000000 ETH_RX_TOP
e4008000 l       *ABS*	00000000 ETH_RX_DESC_RAM
e400c000 l       *ABS*	00000000 ETH_REGS
00000000 l       *ABS*	00000000 ETH_CONTROL
00000004 l       *ABS*	00000000 ETH_STATUS
00000008 l       *ABS*	00000000 ETH_TX_LEN
0000000c l       *ABS*	00000000 ETH_TX_CMD
00000010 l       *ABS*	00000000 ETH_RX_CMD
00000014 l       *ABS*	00000000 ETH_MAC_LO
00000018 l       *ABS*	00000000 ETH_MAC_HI
0000001c l       *ABS*	00000000 ETH_PHY_CTRL
00000020 l       *ABS*	00000000 ETH_INT_CLR
00000024 l       *ABS*	00000000 ETH_RX_BUF_RP
0000002c l       *ABS*	00000000 ETH_RX_DESC_RP
00000001 l       *ABS*	00000000 ETH_TX_CLR
00000010 l       *ABS*	00000000 ETH_RX_CLR
00000001 l       *ABS*	00000000 PHY_CTRL_NRST
00000002 l       *ABS*	00000000 PHY_CTRL_DIN
00000004 l       *ABS*	00000000 PHY_CTRL_DOUT
00000008 l       *ABS*	00000000 PHY_CTRL_OE
00000010 l       *ABS*	00000000 PHY_CTRL_CLK
00000000 l       *ABS*	00000000 PKT_MC
00400000 l       *ABS*	00000000 PKT_P2P
00800000 l       *ABS*	00000000 PKT_NN
00a00000 l       *ABS*	00000000 PKT_NND
00c00000 l       *ABS*	00000000 PKT_FR
00020000 l       *ABS*	00000000 PKT_PL
00020000 l       *ABS*	00000000 PKT_MC_PL
00420000 l       *ABS*	00000000 PKT_P2P_PL
00820000 l       *ABS*	00000000 PKT_NN_PL
00c20000 l       *ABS*	00000000 PKT_FR_PL
0000000a l       *ABS*	00000000 CLK_XTAL_MHZ
0007011a l       *ABS*	00000000 PLL_260
0007011e l       *ABS*	00000000 PLL_300
00070121 l       *ABS*	00000000 PLL_330
00070128 l       *ABS*	00000000 PLL_400
00000050 l       *ABS*	00000000 PLL_LOCK_TIME
809488a5 l       *ABS*	00000000 PLL_CLK_SEL
00000020 l       *ABS*	00000000 SERIAL_NCS
00000010 l       *ABS*	00000000 SERIAL_CLK
00000008 l       *ABS*	00000000 SERIAL_SI
00000004 l       *ABS*	00000000 SERIAL_SO
00000038 l       *ABS*	00000000 SERIAL_OE
80000000 l       *ABS*	00000000 SDRAM_TQ
40000000 l       *ABS*	00000000 SDRAM_DPD
20000000 l       *ABS*	00000000 SDRAM_HERE
00000001 l       *ABS*	00000000 LED_0
00000010 l       *ABS*	00000000 MODE_USER
00000011 l       *ABS*	00000000 MODE_FIQ
00000012 l       *ABS*	00000000 MODE_IRQ
00000013 l       *ABS*	00000000 MODE_SVC
00000017 l       *ABS*	00000000 MODE_ABT
0000001b l       *ABS*	00000000 MODE_UND
0000001f l       *ABS*	00000000 MODE_SYS
00000020 l       *ABS*	00000000 THUMB_BIT
00000080 l       *ABS*	00000000 IMASK_IRQ
00000040 l       *ABS*	00000000 IMASK_FIQ
000000c0 l       *ABS*	00000000 IMASK_ALL
00000001 l       *ABS*	00000000 SARK_EVENT
00000180 l       *ABS*	00000000 SVC_STACK
00000100 l       *ABS*	00000000 IRQ_STACK
00000100 l       *ABS*	00000000 FIQ_STACK
00000004 l       *ABS*	00000000 NUM_SDP_MSGS
0000000f l       *ABS*	00000000 SARK_SLOT
00000010 l       *ABS*	00000000 INIT_EVENTS
deaddead l       *ABS*	00000000 DEAD_WORD
00000001 l       *ABS*	00000000 APLX_ACOPY
00000002 l       *ABS*	00000000 APLX_RCOPY
00000003 l       *ABS*	00000000 APLX_FILL
00000004 l       *ABS*	00000000 APLX_EXEC
000000ff l       *ABS*	00000000 APLX_END
00000010 l       *ABS*	00000000 APLX_ENTRY_SIZE
00000040 l       *ABS*	00000000 APLX_BUF_SIZE
00007fc0 l       *ABS*	00000000 APLX_BUFFER
000000ff l       *ABS*	00000000 TAG_NONE
00000000 l       *ABS*	00000000 TAG_HOST
00000001 l       *ABS*	00000000 RTR_ALLOC_FIRST
00000400 l       *ABS*	00000000 RTR_ALLOC_LAST
000003ff l       *ABS*	00000000 RTR_ALLOC_MAX
00000001 l       *ABS*	00000000 ALLOC_LOCK
00000002 l       *ABS*	00000000 ALLOC_ID
00000005 l       *ABS*	00000000 A_LOCK_SEMA
00000001 l       *ABS*	00000000 A_RTE_RESET
00000002 l       *ABS*	00000000 A_RTE_UNDEF
00000003 l       *ABS*	00000000 A_RTE_SVC
00000004 l       *ABS*	00000000 A_RTE_PABT
00000005 l       *ABS*	00000000 A_RTE_DABT
00000006 l       *ABS*	00000000 A_RTE_IRQ
00000007 l       *ABS*	00000000 A_RTE_FIQ
00000008 l       *ABS*	00000000 A_RTE_VIC
00000002 l       *ABS*	00000000 A_STATE_RTE
00000006 l       *ABS*	00000000 EVENT_COUNT
00000000 l       *ABS*	00000000 CMD_VER
00000001 l       *ABS*	00000000 CMD_RUN
00000002 l       *ABS*	00000000 CMD_READ
00000003 l       *ABS*	00000000 CMD_WRITE
00000004 l       *ABS*	00000000 CMD_APLX
00000005 l       *ABS*	00000000 CMD_FILL
00000010 l       *ABS*	00000000 CMD_REMAP
00000011 l       *ABS*	00000000 CMD_LINK_READ
00000012 l       *ABS*	00000000 CMD_LINK_WRITE
00000013 l       *ABS*	00000000 CMD_AR
00000014 l       *ABS*	00000000 CMD_NNP
00000015 l       *ABS*	00000000 CMD_P2PC
00000016 l       *ABS*	00000000 CMD_SIG
00000017 l       *ABS*	00000000 CMD_FFD
00000018 l       *ABS*	00000000 CMD_AS
00000019 l       *ABS*	00000000 CMD_LED
0000001a l       *ABS*	00000000 CMD_IPTAG
0000001b l       *ABS*	00000000 CMD_SROM
0000001c l       *ABS*	00000000 CMD_ALLOC
0000001d l       *ABS*	00000000 CMD_RTR
00000040 l       *ABS*	00000000 CMD_TUBE
00000080 l       *ABS*	00000000 RC_OK
00000081 l       *ABS*	00000000 RC_LEN
00000082 l       *ABS*	00000000 RC_SUM
00000083 l       *ABS*	00000000 RC_CMD
00000084 l       *ABS*	00000000 RC_ARG
00000085 l       *ABS*	00000000 RC_PORT
00000086 l       *ABS*	00000000 RC_TIMEOUT
00000087 l       *ABS*	00000000 RC_ROUTE
00000088 l       *ABS*	00000000 RC_CPU
00000089 l       *ABS*	00000000 RC_DEAD
0000008a l       *ABS*	00000000 RC_BUF
0000008b l       *ABS*	00000000 RC_P2P_NOREPLY
0000008c l       *ABS*	00000000 RC_P2P_REJECT
0000008d l       *ABS*	00000000 RC_P2P_BUSY
0000008e l       *ABS*	00000000 RC_P2P_TIMEOUT
0000008f l       *ABS*	00000000 RC_PKT_TX
00000000 l       *ABS*	00000000 TYPE_BYTE
00000001 l       *ABS*	00000000 TYPE_HALF
00000002 l       *ABS*	00000000 TYPE_WORD
00000005 l       *ABS*	00000000 PORT_SHIFT
000000e0 l       *ABS*	00000000 PORT_MASK
0000001f l       *ABS*	00000000 CPU_MASK
000000ff l       *ABS*	00000000 PORT_ETH
00000100 l       *ABS*	00000000 SDP_BUF_SIZE
00000080 l       *ABS*	00000000 VCPU_SIZE
0000002c l       *ABS*	00000000 VCPU_RT_CODE
0000002d l       *ABS*	00000000 VCPU_CPU_FLAGS
0000002e l       *ABS*	00000000 VCPU_CPU_STATE
0000002f l       *ABS*	00000000 VCPU_APP_ID
0000001c l       *ABS*	00000000 SARK_MSG_INT
0000001d l       *ABS*	00000000 SARK_SIG_INT
00000000 l       *ABS*	00000000 SARK_VIRT_CPU
00000008 l       *ABS*	00000000 SARK_RANDOM
00000030 l       *ABS*	00000000 SARK_CPU_CLK
00000020 l       *ABS*	00000000 SV_SSIZE
00000060 l       *ABS*	00000000 SV_USIZE
00000080 l       *ABS*	00000000 SV_ISIZE
00000020 l       *ABS*	00000000 SV_VSIZE
00000040 l       *ABS*	00000000 SV_RSIZE
00001000 l       *ABS*	00000000 SV_SIZE
e5007fe0 l       *ABS*	00000000 SV_SROM
e5007f80 l       *ABS*	00000000 SV_UBASE
e5007f00 l       *ABS*	00000000 SV_IBASE
e5007f00 l       *ABS*	00000000 SV_SV
00000100 l       *ABS*	00000000 SYS_BOOT
e5007000 l       *ABS*	00000000 SYS_USER_TOP
e5000100 l       *ABS*	00000000 SYS_USER_BASE
e5007ee0 l       *ABS*	00000000 SV_VECTORS
e5007ea0 l       *ABS*	00000000 SV_RANDOM
e5007000 l       *ABS*	00000000 SV_VCPU
e5007900 l       *ABS*	00000000 SV_SPARE
000005a0 l       *ABS*	00000000 SPARE_SIZE
e5007fe0 l       *ABS*	00000000 SROM_FLAG_BASE
e5007f80 l       *ABS*	00000000 STATUS_MAP_BASE
e5007ee0 l       *ABS*	00000000 RST_BLOCK_BASE
00008000 l       *ABS*	00000000 SRF_PRESENT
000000f0 l       *ABS*	00000000 SRF_HW_VER
00000008 l       *ABS*	00000000 SRF_PHY_INIT
00000004 l       *ABS*	00000000 SRF_PHY_RST
00000002 l       *ABS*	00000000 SRF_PHY_WAIT
00000001 l       *ABS*	00000000 SRF_ETH
00000000 l       *ABS*	00000000 SRF_NONE
00000020 l       RO_DATA	00000000 reset_vec
00000004 l       RO_DATA	00000000 undef
00000024 l       RO_DATA	00000000 undef_vec
00000028 l       RO_DATA	00000000 svc_vec
0000002c l       RO_DATA	00000000 pabt_vec
00000030 l       RO_DATA	00000000 dabt_vec
0000003c l       RO_DATA	00000000 fiq_vec
00000078 l       RO_DATA	00000000 reset_entry
000000d8 l       RO_DATA	00000000 undef_error
000000e0 l       RO_DATA	00000000 svc_error
000000e8 l       RO_DATA	00000000 pabt_error
000000f0 l       RO_DATA	00000000 dabt_error
00000034 l       RO_DATA	00000000 aplx_proc
00000038 l       RO_DATA	00000000 irq_vec
000000f8 l       RO_DATA	00000000 irq_error
00000100 l       RO_DATA	00000000 fiq_error
00000040 l       RO_DATA	00000000 svc_stack
00000042 l       RO_DATA	00000000 irq_stack
00000044 l       RO_DATA	00000000 fiq_stack
00000046 l       RO_DATA	00000000 stack_size
00000048 l       RO_DATA	00000000 code_top
0000004c l       RO_DATA	00000000 heap_base
00000050 l       RO_DATA	00000000 stack_top
00000054 l       RO_DATA	00000000 stack_fill
00000058 l       RO_DATA	00000000 num_msgs
00000059 l       RO_DATA	00000000 sark_slot
0000005a l       RO_DATA	00000000 num_events
0000005b l       RO_DATA	00000000 api
0000005c l       RO_DATA	00000000 app_id
0000005d l       RO_DATA	00000000 app_flags
0000005e l       RO_DATA	00000000 __PAD
00000060 l       RO_DATA	00000000 event_vec
000000d0 l       RO_DATA	00000000 reset_error
00000114 l       RO_DATA	00000000 exc_error
00000138 l       RO_DATA	00000000 cc_error
000001fc l       RO_DATA	00000000 lg1
00000238 l       RO_DATA	00000000 ws1
00000298 l       RO_DATA	00000000 wc2
00000280 l       RO_DATA	00000000 wc1
00000378 l       RO_DATA	00000000 aplx_buffer
0000037c l       RO_DATA	00000000 aplx_loader
00000368 l       RO_DATA	00000000 aplx_l0
00000394 l       RO_DATA	00000000 aplx_copy
00000390 l       RO_DATA	00000000 aplx_rcopy
000003a2 l       RO_DATA	00000000 aplx_fill
000003b2 l       RO_DATA	00000000 aplx_exec
000003a8 l       RO_DATA	00000000 aplx_l1
00000000 l    df *ABS*	00000000 sark_base.c
00000000 l    df *ABS*	00000000 sark_event.c
00000000 l    df *ABS*	00000000 sark_timer.c
00000000 l    df *ABS*	00000000 sark_hw.c
00000000 l    df *ABS*	00000000 sark_isr.c
00000000 l    df *ABS*	00000000 sark_alloc.c
00000000 l    df *ABS*	00000000 sark_io.c
00000ea0 l     F RO_DATA	00000040 io_buf_init
00000fd4 l     F RO_DATA	000000c2 io_put_fixed
00400010 l     O ZI_DATA	00000004 io_msg
00001e5b l     O RO_DATA	00000011 hex
00400014 l     O ZI_DATA	00000004 io_buf
00400018 l     O ZI_DATA	00000004 buf_ptr
0040001c l     O ZI_DATA	00000004 sp_ptr
00000000 l    df *ABS*	00000000 sark_pkt.c
00000000 l    df *ABS*	00000000 
00000000 l    df *ABS*	00000000 retinatest.c
00000000 l    df *ABS*	00000000 spin1_api.c
00400020 l     O ZI_DATA	00000004 warnings
00400000 l     O RW_DATA	00000004 dma_id
00400024 l     O ZI_DATA	00000004 fullq
00400028 l     O ZI_DATA	00000004 timer_tick
0040002c l     O ZI_DATA	00000004 pfull
00400030 l     O ZI_DATA	00000004 dfull
00400038 l     O ZI_DATA	00000004 exit_val
0040003c l     O ZI_DATA	00000320 task_queue
0040035c l     O ZI_DATA	00000004 run
00000000 l    df *ABS*	00000000 spin1_isr.c
00000000 l    df *ABS*	00000000 sark_build.c
00000000 l    df *ABS*	00000000 
00000040 l       *ABS*	00000000 RO_FROM
00000010 l       *ABS*	00000000 APLX_ENTRY
00001fb4 l       *ABS*	00000000 RW_FROM
00000000 l       *UND*	00000000 __deregister_frame_info
00000000 l       *UND*	00000000 _ITM_registerTMCloneTable
00400000 l       *ABS*	00000000 DTCM_BASE
00400000 l       *ABS*	00000000 RW_BASE
0000000c l       *ABS*	00000000 RW_LENGTH
00000040 l       *ABS*	00000000 APLX_SIZE
00000000 l       *UND*	00000000 _ITM_deregisterTMCloneTable
0040000c l       *ABS*	00000000 ZI_BASE
00000000 l       *ABS*	00000000 RO_BASE
00000000 l       *ABS*	00000000 ITCM_BASE
00000000 l       *UND*	00000000 _Jv_RegisterClasses
00000000 l       *UND*	00000000 __register_frame_info
000006c0 l       *ABS*	00000000 ZI_LENGTH
00400440 g     O ZI_DATA	00000004 old_vector
000016e8 g     F RO_DATA	000000f0 spin1_start
000001e8 g     F RO_DATA	00000000 sark_lock_get
00001948 g     F RO_DATA	0000002c sark_pre_main
00000644 g     F RO_DATA	00000034 sark_shmsg_get
000018c8 g     F RO_DATA	0000000c spin1_get_core_id
000001b8 g     F RO_DATA	00000000 spin1_int_enable
00000800 g       *ABS*	00000000 STACK_SIZE
0000034e g     F RO_DATA	00000000 sark_bx
00001550 g     F RO_DATA	00000058 spin1_callback_on
00000258 g     F RO_DATA	00000000 sark_msg_cpy
00000b88 g     F RO_DATA	0000003c event_alloc
000015b4 g     F RO_DATA	0000006c clean_up
000005d4 g     F RO_DATA	0000001e sark_block_init
00001bc0 g     F RO_DATA	00000058 timer1_isr
00000cfc g     F RO_DATA	00000028 sark_fiq_han
00000624 g     F RO_DATA	00000020 sark_msg_free
00001c58 g     F RO_DATA	00000068 soft_int_isr
000017d8 g     F RO_DATA	000000f0 spin1_send_mc_packet
0000134c g     F RO_DATA	00000028 configure_dma_controller
000004c4 g     F RO_DATA	000000e0 c_main
00000974 g     F RO_DATA	00000174 sark_int
000013a4 g     F RO_DATA	00000130 configure_vic
000002ec g     F RO_DATA	00000000 sark_int_han
00000ae8 g     F RO_DATA	0000005c event_wait
00000960 g     F RO_DATA	00000012 sark_wait
000001d8 g     F RO_DATA	00000000 spin1_mode_restore
000003e0 g     F RO_DATA	000000e4 timer_callback
000001a8 g     F RO_DATA	00000000 spin1_irq_disable
00000950 g     F RO_DATA	00000010 sark_cmd_fill
00000e94 g     F RO_DATA	0000000c rtr_alloc
00000bc4 g     F RO_DATA	00000050 sark_vic_init
00001b48 g     F RO_DATA	00000078 dma_done_fiqsr
0000016c g     F RO_DATA	00000000 cpu_shutdown
00400004 g     O RW_DATA	00000004 pkt_prio
000001d8 g     F RO_DATA	00000000 cpu_int_restore
00400444 g     O ZI_DATA	0000002c diagnostics
00410000 g       *ABS*	00000000 STACK_TOP
004006cc g       ZI_DATA	00000000 HEAP_BASE
00000d24 g     F RO_DATA	000000c8 sark_xalloc
00400470 g     O ZI_DATA	00000004 old_enable
00001374 g     F RO_DATA	00000030 configure_timer1
00000350 g     F RO_DATA	00000000 __gnu_thumb1_case_uqi
00400474 g     O ZI_DATA	00000004 user_arg1
00000678 g     F RO_DATA	00000024 sark_shmsg_free
00000320 g     F RO_DATA	00000000 schedule
00001a30 g     F RO_DATA	0000008c cc_tx_empty_isr
0000012c g       RO_DATA	00000000 rt_error
000019f8 g     F RO_DATA	00000038 cc_rx_ready_fiqsr
000018d4 g     F RO_DATA	0000000c spin1_get_chip_id
000005b0 g     F RO_DATA	00000010 sark_cpu_state
00400034 g     O ZI_DATA	00000001 user_pending
00001974 g     F RO_DATA	0000000a sark_post_main
000001a8 g     F RO_DATA	00000000 cpu_irq_disable
00000000 g       RO_DATA	00000000 cpu_reset
000002bc g     F RO_DATA	00000000 sark_div10
00000108 g       RO_DATA	00000000 vic_error
0040000c g     O ZI_DATA	00000004 nIterations
00000c5c g     F RO_DATA	0000002c v2p_mask
00001e3c g     O RO_DATA	0000000b build_name
0000034c  w    F RO_DATA	00000000 sark_config
00000b44 g     F RO_DATA	0000002c event_pause
00001e48 g     O RO_DATA	00000004 build_date
0000020c g     F RO_DATA	00000000 sark_lock_free
00000dec g     F RO_DATA	00000018 sark_alloc
00001cc0 g     F RO_DATA	00000050 soft_int_fiqsr
000014d4 g     F RO_DATA	0000007c dispatch
00000190 g     F RO_DATA	00000000 cpu_init_mode
00000268 g     F RO_DATA	00000000 sark_word_cpy
0000017c g     F RO_DATA	00000000 cpu_sleep
00400008 g     O RW_DATA	00000004 fiq_event
00400478 g     O ZI_DATA	00000001 leadAp
0040036c g     O ZI_DATA	0000003c sark
000015a8 g     F RO_DATA	0000000c spin1_set_timer_tick
00000798 g     F RO_DATA	000000a8 sark_msg_send
000001e0 g     F RO_DATA	00000000 spin1_wfi
00000840 g     F RO_DATA	00000040 sark_cmd_ver
000001e0 g     F RO_DATA	00000000 cpu_wfi
00000b70 g     F RO_DATA	00000018 event_stop
000003b8 g     F RO_DATA	00000014 multiCastPacketReceived_callback
000001c8 g     F RO_DATA	00000000 cpu_int_disable
00000c14 g     F RO_DATA	00000048 sark_vic_set
0040047c g     O ZI_DATA	00000004 thrown
00000e04 g     F RO_DATA	00000018 sark_heap_init
004003a8 g     O ZI_DATA	00000098 event
000008e6 g     F RO_DATA	0000006a sark_cmd_write
00001980 g     F RO_DATA	00000078 cc_rx_ready_isr
0000069c  w    F RO_DATA	000000fc sark_init
000005a4  w    F RO_DATA	0000000c rte_handler
00000360 g     F RO_DATA	00000000 sark_aplx
00400360 g     O ZI_DATA	00000004 spikeNumber
00001620 g     F RO_DATA	0000006c report_debug
00001098 g     F RO_DATA	000002b4 io_printf
00400480 g     O ZI_DATA	00000148 dma_queue
00000234 g     F RO_DATA	00000000 sark_word_set
004005c8 g     O ZI_DATA	00000004 old_select
0000168c g     F RO_DATA	0000005c report_warns
00400364 g     O ZI_DATA	00000004 coreID
00001abc g     F RO_DATA	0000008c dma_done_isr
004005cc g     O ZI_DATA	00000004 ticks
0000031c g     F RO_DATA	00000000 null_int_han
000018e0 g     F RO_DATA	00000068 schedule_sysmode
00000e1c g     F RO_DATA	00000078 rtr_alloc_id
00400368 g     O ZI_DATA	00000004 chipID
00001c18 g     F RO_DATA	00000040 timer1_fiqsr
000003cc g     F RO_DATA	00000014 multiCastPacketReceived_with_payload_callback
00000220 g     F RO_DATA	00000000 sark_str_cpy
00000c88 g     F RO_DATA	00000074 rtr_mc_set
000001b8 g     F RO_DATA	00000000 cpu_int_enable
004005d0 g     O ZI_DATA	00000004 user_arg0
000005c0 g     F RO_DATA	00000014 sark_app_lead
004005d4 g     O ZI_DATA	00000030 callback
00000ee0 g     F RO_DATA	000000f4 io_put_char
000001c8 g     F RO_DATA	00000000 spin1_int_disable
00000880 g     F RO_DATA	00000066 sark_cmd_read
00001f84 g       *ABS*	00000000 RO_LENGTH
000005f4 g     F RO_DATA	00000030 sark_msg_get
00400604 g     O ZI_DATA	000000c8 tx_packet_queue



Disassembly of section RO_DATA:

00000000 <cpu_reset>:
       0:	e59ff018 	ldr	pc, [pc, #24]	; 20 <reset_vec>

00000004 <undef>:
       4:	e59ff018 	ldr	pc, [pc, #24]	; 24 <undef_vec>
       8:	e59ff018 	ldr	pc, [pc, #24]	; 28 <svc_vec>
       c:	e59ff018 	ldr	pc, [pc, #24]	; 2c <pabt_vec>
      10:	e59ff018 	ldr	pc, [pc, #24]	; 30 <dabt_vec>
      14:	ebfffffa 	bl	4 <undef>
      18:	e51ffff0 	ldr	pc, [pc, #-4080]	; fffff030 <ROM_TOP+0x9ff7030>
      1c:	e59ff018 	ldr	pc, [pc, #24]	; 3c <fiq_vec>

00000020 <reset_vec>:
      20:	00000078 	.word	0x00000078

00000024 <undef_vec>:
      24:	000000d8 	.word	0x000000d8

00000028 <svc_vec>:
      28:	000000e0 	.word	0x000000e0

0000002c <pabt_vec>:
      2c:	000000e8 	.word	0x000000e8

00000030 <dabt_vec>:
      30:	000000f0 	.word	0x000000f0

00000034 <aplx_proc>:
      34:	00000361 	.word	0x00000361

00000038 <irq_vec>:
      38:	000000f8 	.word	0x000000f8

0000003c <fiq_vec>:
      3c:	00000100 	.word	0x00000100

00000040 <svc_stack>:
      40:	0060      	.short	0x0060

00000042 <irq_stack>:
      42:	0040      	.short	0x0040

00000044 <fiq_stack>:
      44:	0040      	.short	0x0040

00000046 <stack_size>:
      46:	0800      	.short	0x0800

00000048 <code_top>:
      48:	00001f84 	.word	0x00001f84

0000004c <heap_base>:
      4c:	004006cc 	.word	0x004006cc

00000050 <stack_top>:
      50:	00410000 	.word	0x00410000

00000054 <stack_fill>:
      54:	deaddead 	.word	0xdeaddead

00000058 <num_msgs>:
      58:	04          	.byte	0x04

00000059 <sark_slot>:
      59:	0f          	.byte	0x0f

0000005a <num_events>:
      5a:	10          	.byte	0x10

0000005b <api>:
	...

0000005c <app_id>:
	...

0000005d <app_flags>:
	...

0000005e <__PAD>:
	...

00000060 <event_vec>:
	...

00000078 <reset_entry>:
      78:	e24f1060 	sub	r1, pc, #96	; 0x60
      7c:	e1c103bc 	strh	r0, [r1, #60]	; 0x3c
      80:	e28f0048 	add	r0, pc, #72	; 0x48
      84:	e5810000 	str	r0, [r1]
      88:	e59f00f4 	ldr	r0, [pc, #244]	; 184 <DMA_CRCT+0x4>
      8c:	ee010f10 	mcr	15, 0, r0, cr1, cr0, {0}
      90:	e321f0d3 	msr	CPSR_c, #211	; 0xd3
      94:	e3a0d902 	mov	sp, #32768	; 0x8000
      98:	fa0000ab 	blx	34c <sark_config>
      9c:	e51fd054 	ldr	sp, [pc, #-84]	; 50 <stack_top>
      a0:	e15f26b2 	ldrh	r2, [pc, #-98]	; 46 <stack_size>
      a4:	e51f1058 	ldr	r1, [pc, #-88]	; 54 <stack_fill>
      a8:	e04d0002 	sub	r0, sp, r2
      ac:	eb000060 	bl	234 <sark_word_set>
      b0:	e1a0000d 	mov	r0, sp
      b4:	fa000178 	blx	69c <sark_init>
      b8:	e121f000 	msr	CPSR_c, r0
      bc:	fa000227 	blx	960 <sark_wait>
      c0:	fa000620 	blx	1948 <sark_pre_main>
      c4:	fa0000fe 	blx	4c4 <c_main>
      c8:	fa000629 	blx	1974 <sark_post_main>
      cc:	eb00002a 	bl	17c <cpu_sleep>

000000d0 <reset_error>:
      d0:	e3a00001 	mov	r0, #1
      d4:	ea000014 	b	12c <rt_error>

000000d8 <undef_error>:
      d8:	e3a0b002 	mov	fp, #2
      dc:	ea00000c 	b	114 <exc_error>

000000e0 <svc_error>:
      e0:	e3a0b003 	mov	fp, #3
      e4:	ea00000a 	b	114 <exc_error>

000000e8 <pabt_error>:
      e8:	e3a0b004 	mov	fp, #4
      ec:	ea000008 	b	114 <exc_error>

000000f0 <dabt_error>:
      f0:	e3a0b005 	mov	fp, #5
      f4:	ea000006 	b	114 <exc_error>

000000f8 <irq_error>:
      f8:	e3a0b006 	mov	fp, #6
      fc:	ea000004 	b	114 <exc_error>

00000100 <fiq_error>:
     100:	e3a0b007 	mov	fp, #7
     104:	ea000002 	b	114 <exc_error>

00000108 <vic_error>:
     108:	e3a0b008 	mov	fp, #8
     10c:	e3a0042f 	mov	r0, #788529152	; 0x2f000000
     110:	e5900030 	ldr	r0, [r0, #48]	; 0x30

00000114 <exc_error>:
     114:	e1a0a00e 	mov	sl, lr
     118:	e14f8000 	mrs	r8, SPSR
     11c:	e38890c0 	orr	r9, r8, #192	; 0xc0
     120:	e3c99020 	bic	r9, r9, #32
     124:	e12ff009 	msr	CPSR_fsxc, r9
     128:	ea000002 	b	138 <cc_error>

0000012c <rt_error>:
     12c:	e1a0b000 	mov	fp, r0
     130:	e10f8000 	mrs	r8, CPSR
     134:	e1a0a00e 	mov	sl, lr

00000138 <cc_error>:
     138:	e59fc048 	ldr	ip, [pc, #72]	; 188 <DMA_CRCT+0x8>
     13c:	e59cc000 	ldr	ip, [ip]
     140:	e3a09080 	mov	r9, #128	; 0x80
     144:	e59fe040 	ldr	lr, [pc, #64]	; 18c <DMA_CRCT+0xc>
     148:	e02ee99c 	mla	lr, ip, r9, lr
     14c:	e1a0900d 	mov	r9, sp
     150:	e88e07ff 	stm	lr, {r0, r1, r2, r3, r4, r5, r6, r7, r8, r9, sl}
     154:	e5ceb02c 	strb	fp, [lr, #44]	; 0x2c
     158:	e3a08002 	mov	r8, #2
     15c:	e5ce802e 	strb	r8, [lr, #46]	; 0x2e
     160:	e1a0000b 	mov	r0, fp
     164:	e321f0d3 	msr	CPSR_c, #211	; 0xd3
     168:	fa00010d 	blx	5a4 <rte_handler>

0000016c <cpu_shutdown>:
     16c:	e321f0d3 	msr	CPSR_c, #211	; 0xd3
     170:	e3a0042f 	mov	r0, #788529152	; 0x2f000000
     174:	e3e01000 	mvn	r1, #0
     178:	e5801014 	str	r1, [r0, #20]

0000017c <cpu_sleep>:
     17c:	ee070f90 	mcr	15, 0, r0, cr7, cr0, {4}
     180:	eafffffd 	b	17c <cpu_sleep>
     184:	00001f7e 	.word	0x00001f7e
     188:	0040036c 	.word	0x0040036c
     18c:	e5007000 	.word	0xe5007000

00000190 <cpu_init_mode>:
     190:	e10f3000 	mrs	r3, CPSR
     194:	e121f001 	msr	CPSR_c, r1
     198:	e1a0d000 	mov	sp, r0
     19c:	e12ff003 	msr	CPSR_fsxc, r3
     1a0:	e0400102 	sub	r0, r0, r2, lsl #2
     1a4:	e12fff1e 	bx	lr

000001a8 <cpu_irq_disable>:
     1a8:	e10f0000 	mrs	r0, CPSR
     1ac:	e3801080 	orr	r1, r0, #128	; 0x80
     1b0:	e121f001 	msr	CPSR_c, r1
     1b4:	e12fff1e 	bx	lr

000001b8 <cpu_int_enable>:
     1b8:	e10f0000 	mrs	r0, CPSR
     1bc:	e3c010c0 	bic	r1, r0, #192	; 0xc0
     1c0:	e121f001 	msr	CPSR_c, r1
     1c4:	e12fff1e 	bx	lr

000001c8 <cpu_int_disable>:
     1c8:	e10f0000 	mrs	r0, CPSR
     1cc:	e38010c0 	orr	r1, r0, #192	; 0xc0
     1d0:	e121f001 	msr	CPSR_c, r1
     1d4:	e12fff1e 	bx	lr

000001d8 <cpu_int_restore>:
     1d8:	e12ff000 	msr	CPSR_fsxc, r0
     1dc:	e12fff1e 	bx	lr

000001e0 <cpu_wfi>:
     1e0:	ee070f90 	mcr	15, 0, r0, cr7, cr0, {4}
     1e4:	e12fff1e 	bx	lr

000001e8 <sark_lock_get>:
     1e8:	e3a0c4e2 	mov	ip, #-503316480	; 0xe2000000
     1ec:	e08cc100 	add	ip, ip, r0, lsl #2
     1f0:	e10f0000 	mrs	r0, CPSR
     1f4:	e38010c0 	orr	r1, r0, #192	; 0xc0
     1f8:	e121f001 	msr	CPSR_c, r1

000001fc <lg1>:
     1fc:	e59c1100 	ldr	r1, [ip, #256]	; 0x100
     200:	e3110102 	tst	r1, #-2147483648	; 0x80000000
     204:	1afffffc 	bne	1fc <lg1>
     208:	e12fff1e 	bx	lr

0000020c <sark_lock_free>:
     20c:	e3a0c4e2 	mov	ip, #-503316480	; 0xe2000000
     210:	e08c1101 	add	r1, ip, r1, lsl #2
     214:	e5911180 	ldr	r1, [r1, #384]	; 0x180
     218:	e121f000 	msr	CPSR_c, r0
     21c:	e12fff1e 	bx	lr

00000220 <sark_str_cpy>:
     220:	e4d12001 	ldrb	r2, [r1], #1
     224:	e3520000 	cmp	r2, #0
     228:	e4c02001 	strb	r2, [r0], #1
     22c:	1afffffb 	bne	220 <sark_str_cpy>
     230:	e12fff1e 	bx	lr

00000234 <sark_word_set>:
     234:	e1a03001 	mov	r3, r1

00000238 <ws1>:
     238:	e2522010 	subs	r2, r2, #16
     23c:	28a0000a 	stmiacs	r0!, {r1, r3}
     240:	28a0000a 	stmiacs	r0!, {r1, r3}
     244:	2afffffb 	bcs	238 <ws1>
     248:	e1b02e82 	lsls	r2, r2, #29
     24c:	28a0000a 	stmiacs	r0!, {r1, r3}
     250:	48a00002 	stmiami	r0!, {r1}
     254:	e12fff1e 	bx	lr

00000258 <sark_msg_cpy>:
     258:	e2800004 	add	r0, r0, #4
     25c:	e2811004 	add	r1, r1, #4
     260:	e1d120b0 	ldrh	r2, [r1]
     264:	e2822004 	add	r2, r2, #4

00000268 <sark_word_cpy>:
     268:	e3120003 	tst	r2, #3
     26c:	13c22003 	bicne	r2, r2, #3
     270:	12822004 	addne	r2, r2, #4
     274:	e92d4010 	push	{r4, lr}
     278:	e2522020 	subs	r2, r2, #32
     27c:	3a000005 	bcc	298 <wc2>

00000280 <wc1>:
     280:	e8b15018 	ldm	r1!, {r3, r4, ip, lr}
     284:	e8a05018 	stmia	r0!, {r3, r4, ip, lr}
     288:	e8b15018 	ldm	r1!, {r3, r4, ip, lr}
     28c:	e8a05018 	stmia	r0!, {r3, r4, ip, lr}
     290:	e2522020 	subs	r2, r2, #32
     294:	2afffff9 	bcs	280 <wc1>

00000298 <wc2>:
     298:	e1b0ce02 	lsls	ip, r2, #28
     29c:	28b15018 	ldmcs	r1!, {r3, r4, ip, lr}
     2a0:	28a05018 	stmiacs	r0!, {r3, r4, ip, lr}
     2a4:	48b10018 	ldmmi	r1!, {r3, r4}
     2a8:	48a00018 	stmiami	r0!, {r3, r4}
     2ac:	e1b0cf02 	lsls	ip, r2, #30
     2b0:	24913004 	ldrcs	r3, [r1], #4
     2b4:	24803004 	strcs	r3, [r0], #4
     2b8:	e8bd8010 	pop	{r4, pc}

000002bc <sark_div10>:
     2bc:	e241200a 	sub	r2, r1, #10
     2c0:	e0411121 	sub	r1, r1, r1, lsr #2
     2c4:	e0811221 	add	r1, r1, r1, lsr #4
     2c8:	e0811421 	add	r1, r1, r1, lsr #8
     2cc:	e0811821 	add	r1, r1, r1, lsr #16
     2d0:	e1a011a1 	lsr	r1, r1, #3
     2d4:	e0813101 	add	r3, r1, r1, lsl #2
     2d8:	e0522083 	subs	r2, r2, r3, lsl #1
     2dc:	52811001 	addpl	r1, r1, #1
     2e0:	4282200a 	addmi	r2, r2, #10
     2e4:	e8800006 	stm	r0, {r1, r2}
     2e8:	e12fff1e 	bx	lr

000002ec <sark_int_han>:
     2ec:	e92d500f 	push	{r0, r1, r2, r3, ip, lr}
     2f0:	e24e0004 	sub	r0, lr, #4
     2f4:	e14fc000 	mrs	ip, SPSR
     2f8:	e321f01f 	msr	CPSR_c, #31
     2fc:	e92d5000 	push	{ip, lr}
     300:	fa00019b 	blx	974 <sark_int>
     304:	e8bd5000 	pop	{ip, lr}
     308:	e321f092 	msr	CPSR_c, #146	; 0x92
     30c:	e16ff00c 	msr	SPSR_fsxc, ip
     310:	e3a0042f 	mov	r0, #788529152	; 0x2f000000
     314:	e5800030 	str	r0, [r0, #48]	; 0x30
     318:	e8bd500f 	pop	{r0, r1, r2, r3, ip, lr}

0000031c <null_int_han>:
     31c:	e25ef004 	subs	pc, lr, #4

00000320 <schedule>:
     320:	e92d5000 	push	{ip, lr}
     324:	e10fc000 	mrs	ip, CPSR
     328:	e3cce01f 	bic	lr, ip, #31
     32c:	e38ee01f 	orr	lr, lr, #31
     330:	e121f00e 	msr	CPSR_c, lr
     334:	e92d5000 	push	{ip, lr}
     338:	fa000568 	blx	18e0 <schedule_sysmode>
     33c:	e8bd5000 	pop	{ip, lr}
     340:	e121f00c 	msr	CPSR_c, ip
     344:	e8bd5000 	pop	{ip, lr}
     348:	e12fff1e 	bx	lr

0000034c <sark_config>:
     34c:	4770      	bx	lr

0000034e <sark_bx>:
     34e:	4700      	bx	r0

00000350 <__gnu_thumb1_case_uqi>:
     350:	468c      	mov	ip, r1
     352:	4671      	mov	r1, lr
     354:	3901      	subs	r1, #1
     356:	5c09      	ldrb	r1, [r1, r0]
     358:	0049      	lsls	r1, r1, #1
     35a:	448e      	add	lr, r1
     35c:	4661      	mov	r1, ip
     35e:	4770      	bx	lr

00000360 <sark_aplx>:
     360:	b5f2      	push	{r1, r4, r5, r6, r7, lr}
     362:	4905      	ldr	r1, [pc, #20]	; (378 <aplx_buffer>)
     364:	a605      	add	r6, pc, #20	; (adr r6, 37c <aplx_loader>)
     366:	2740      	movs	r7, #64	; 0x40

00000368 <aplx_l0>:
     368:	ce3c      	ldmia	r6!, {r2, r3, r4, r5}
     36a:	c13c      	stmia	r1!, {r2, r3, r4, r5}
     36c:	3f10      	subs	r7, #16
     36e:	d1fb      	bne.n	368 <aplx_l0>
     370:	1c04      	adds	r4, r0, #0
     372:	393f      	subs	r1, #63	; 0x3f
     374:	4708      	bx	r1
	...

00000378 <aplx_buffer>:
     378:	00007fc0 	.word	0x00007fc0

0000037c <aplx_loader>:
     37c:	cc0f      	ldmia	r4!, {r0, r1, r2, r3}
     37e:	2801      	cmp	r0, #1
     380:	d008      	beq.n	394 <aplx_copy>
     382:	2802      	cmp	r0, #2
     384:	d004      	beq.n	390 <aplx_rcopy>
     386:	2803      	cmp	r0, #3
     388:	d00b      	beq.n	3a2 <aplx_fill>
     38a:	2804      	cmp	r0, #4
     38c:	d011      	beq.n	3b2 <aplx_exec>
     38e:	bdf2      	pop	{r1, r4, r5, r6, r7, pc}

00000390 <aplx_rcopy>:
     390:	1912      	adds	r2, r2, r4
     392:	3a10      	subs	r2, #16

00000394 <aplx_copy>:
     394:	cae1      	ldmia	r2!, {r0, r5, r6, r7}
     396:	c1e1      	stmia	r1!, {r0, r5, r6, r7}
     398:	cae1      	ldmia	r2!, {r0, r5, r6, r7}
     39a:	c1e1      	stmia	r1!, {r0, r5, r6, r7}
     39c:	3b20      	subs	r3, #32
     39e:	d8f9      	bhi.n	394 <aplx_copy>
     3a0:	e7ec      	b.n	37c <aplx_loader>

000003a2 <aplx_fill>:
     3a2:	1c1d      	adds	r5, r3, #0
     3a4:	1c1e      	adds	r6, r3, #0
     3a6:	1c1f      	adds	r7, r3, #0

000003a8 <aplx_l1>:
     3a8:	c1e8      	stmia	r1!, {r3, r5, r6, r7}
     3aa:	c1e8      	stmia	r1!, {r3, r5, r6, r7}
     3ac:	3a20      	subs	r2, #32
     3ae:	d8fb      	bhi.n	3a8 <aplx_l1>
     3b0:	e7e4      	b.n	37c <aplx_loader>

000003b2 <aplx_exec>:
     3b2:	9800      	ldr	r0, [sp, #0]
     3b4:	4788      	blx	r1
     3b6:	e7e1      	b.n	37c <aplx_loader>

000003b8 <multiCastPacketReceived_callback>:
     3b8:	b508      	push	{r3, lr}
     3ba:	1c02      	adds	r2, r0, #0
     3bc:	4902      	ldr	r1, [pc, #8]	; (3c8 <multiCastPacketReceived_callback+0x10>)
     3be:	2000      	movs	r0, #0
     3c0:	f000 fe6a 	bl	1098 <io_printf>
     3c4:	bd08      	pop	{r3, pc}
     3c6:	46c0      	nop			; (mov r8, r8)
     3c8:	00001d10 	.word	0x00001d10

000003cc <multiCastPacketReceived_with_payload_callback>:
     3cc:	b508      	push	{r3, lr}
     3ce:	1c02      	adds	r2, r0, #0
     3d0:	1c0b      	adds	r3, r1, #0
     3d2:	2000      	movs	r0, #0
     3d4:	4901      	ldr	r1, [pc, #4]	; (3dc <multiCastPacketReceived_with_payload_callback+0x10>)
     3d6:	f000 fe5f 	bl	1098 <io_printf>
     3da:	bd08      	pop	{r3, pc}
     3dc:	00001d40 	.word	0x00001d40

000003e0 <timer_callback>:
     3e0:	b570      	push	{r4, r5, r6, lr}
     3e2:	f001 fa77 	bl	18d4 <spin1_get_chip_id>
     3e6:	4d2c      	ldr	r5, [pc, #176]	; (498 <MC_TABLE_SIZE+0x98>)
     3e8:	6028      	str	r0, [r5, #0]
     3ea:	f001 fa6d 	bl	18c8 <spin1_get_core_id>
     3ee:	4b2b      	ldr	r3, [pc, #172]	; (49c <MC_TABLE_SIZE+0x9c>)
     3f0:	6018      	str	r0, [r3, #0]
     3f2:	4b2b      	ldr	r3, [pc, #172]	; (4a0 <MC_TABLE_SIZE+0xa0>)
     3f4:	1c04      	adds	r4, r0, #0
     3f6:	681a      	ldr	r2, [r3, #0]
     3f8:	1c1e      	adds	r6, r3, #0
     3fa:	2a01      	cmp	r2, #1
     3fc:	d10d      	bne.n	41a <MC_TABLE_SIZE+0x1a>
     3fe:	6828      	ldr	r0, [r5, #0]
     400:	2800      	cmp	r0, #0
     402:	d10a      	bne.n	41a <MC_TABLE_SIZE+0x1a>
     404:	2c01      	cmp	r4, #1
     406:	d108      	bne.n	41a <MC_TABLE_SIZE+0x1a>
     408:	4926      	ldr	r1, [pc, #152]	; (4a4 <MC_TABLE_SIZE+0xa4>)
     40a:	f000 fe45 	bl	1098 <io_printf>
     40e:	2180      	movs	r1, #128	; 0x80
     410:	4825      	ldr	r0, [pc, #148]	; (4a8 <MC_TABLE_SIZE+0xa8>)
     412:	04c9      	lsls	r1, r1, #19
     414:	1c22      	adds	r2, r4, #0
     416:	f001 f9df 	bl	17d8 <spin1_send_mc_packet>
     41a:	6831      	ldr	r1, [r6, #0]
     41c:	074b      	lsls	r3, r1, #29
     41e:	d016      	beq.n	44e <MC_TABLE_SIZE+0x4e>
     420:	2963      	cmp	r1, #99	; 0x63
     422:	d814      	bhi.n	44e <MC_TABLE_SIZE+0x4e>
     424:	4b1c      	ldr	r3, [pc, #112]	; (498 <MC_TABLE_SIZE+0x98>)
     426:	681d      	ldr	r5, [r3, #0]
     428:	2d00      	cmp	r5, #0
     42a:	d110      	bne.n	44e <MC_TABLE_SIZE+0x4e>
     42c:	4b1b      	ldr	r3, [pc, #108]	; (49c <MC_TABLE_SIZE+0x9c>)
     42e:	681a      	ldr	r2, [r3, #0]
     430:	2a01      	cmp	r2, #1
     432:	d10c      	bne.n	44e <MC_TABLE_SIZE+0x4e>
     434:	4c1d      	ldr	r4, [pc, #116]	; (4ac <MC_TABLE_SIZE+0xac>)
     436:	02c9      	lsls	r1, r1, #11
     438:	430c      	orrs	r4, r1
     43a:	1c21      	adds	r1, r4, #0
     43c:	481c      	ldr	r0, [pc, #112]	; (4b0 <MC_TABLE_SIZE+0xb0>)
     43e:	f001 f9cb 	bl	17d8 <spin1_send_mc_packet>
     442:	1c28      	adds	r0, r5, #0
     444:	491b      	ldr	r1, [pc, #108]	; (4b4 <MC_TABLE_SIZE+0xb4>)
     446:	1c22      	adds	r2, r4, #0
     448:	4b19      	ldr	r3, [pc, #100]	; (4b0 <MC_TABLE_SIZE+0xb0>)
     44a:	f000 fe25 	bl	1098 <io_printf>
     44e:	4b14      	ldr	r3, [pc, #80]	; (4a0 <MC_TABLE_SIZE+0xa0>)
     450:	681b      	ldr	r3, [r3, #0]
     452:	2b32      	cmp	r3, #50	; 0x32
     454:	d10f      	bne.n	476 <MC_TABLE_SIZE+0x76>
     456:	4b10      	ldr	r3, [pc, #64]	; (498 <MC_TABLE_SIZE+0x98>)
     458:	681c      	ldr	r4, [r3, #0]
     45a:	2c00      	cmp	r4, #0
     45c:	d10b      	bne.n	476 <MC_TABLE_SIZE+0x76>
     45e:	4b0f      	ldr	r3, [pc, #60]	; (49c <MC_TABLE_SIZE+0x9c>)
     460:	681a      	ldr	r2, [r3, #0]
     462:	2a01      	cmp	r2, #1
     464:	d107      	bne.n	476 <MC_TABLE_SIZE+0x76>
     466:	1c21      	adds	r1, r4, #0
     468:	4813      	ldr	r0, [pc, #76]	; (4b8 <MC_TABLE_SIZE+0xb8>)
     46a:	f001 f9b5 	bl	17d8 <spin1_send_mc_packet>
     46e:	1c20      	adds	r0, r4, #0
     470:	4912      	ldr	r1, [pc, #72]	; (4bc <MC_TABLE_SIZE+0xbc>)
     472:	f000 fe11 	bl	1098 <io_printf>
     476:	4b08      	ldr	r3, [pc, #32]	; (498 <MC_TABLE_SIZE+0x98>)
     478:	6818      	ldr	r0, [r3, #0]
     47a:	2800      	cmp	r0, #0
     47c:	d10b      	bne.n	496 <MC_TABLE_SIZE+0x96>
     47e:	4b07      	ldr	r3, [pc, #28]	; (49c <MC_TABLE_SIZE+0x9c>)
     480:	681b      	ldr	r3, [r3, #0]
     482:	2b01      	cmp	r3, #1
     484:	d107      	bne.n	496 <MC_TABLE_SIZE+0x96>
     486:	4c06      	ldr	r4, [pc, #24]	; (4a0 <MC_TABLE_SIZE+0xa0>)
     488:	490d      	ldr	r1, [pc, #52]	; (4c0 <MC_TABLE_SIZE+0xc0>)
     48a:	6822      	ldr	r2, [r4, #0]
     48c:	f000 fe04 	bl	1098 <io_printf>
     490:	6823      	ldr	r3, [r4, #0]
     492:	3301      	adds	r3, #1
     494:	6023      	str	r3, [r4, #0]
     496:	bd70      	pop	{r4, r5, r6, pc}
     498:	00400368 	.word	0x00400368
     49c:	00400364 	.word	0x00400364
     4a0:	0040000c 	.word	0x0040000c
     4a4:	00001d6d 	.word	0x00001d6d
     4a8:	11100001 	.word	0x11100001
     4ac:	feff0000 	.word	0xfeff0000
     4b0:	11100012 	.word	0x11100012
     4b4:	00001d96 	.word	0x00001d96
     4b8:	11100010 	.word	0x11100010
     4bc:	00001dd7 	.word	0x00001dd7
     4c0:	00001dfa 	.word	0x00001dfa

000004c4 <c_main>:
     4c4:	b538      	push	{r3, r4, r5, lr}
     4c6:	f001 fa05 	bl	18d4 <spin1_get_chip_id>
     4ca:	4d2b      	ldr	r5, [pc, #172]	; (578 <c_main+0xb4>)
     4cc:	6028      	str	r0, [r5, #0]
     4ce:	f001 f9fb 	bl	18c8 <spin1_get_core_id>
     4d2:	4b2a      	ldr	r3, [pc, #168]	; (57c <c_main+0xb8>)
     4d4:	2200      	movs	r2, #0
     4d6:	6018      	str	r0, [r3, #0]
     4d8:	4b29      	ldr	r3, [pc, #164]	; (580 <c_main+0xbc>)
     4da:	1c04      	adds	r4, r0, #0
     4dc:	601a      	str	r2, [r3, #0]
     4de:	682a      	ldr	r2, [r5, #0]
     4e0:	2a00      	cmp	r2, #0
     4e2:	d132      	bne.n	54a <c_main+0x86>
     4e4:	2801      	cmp	r0, #1
     4e6:	d130      	bne.n	54a <c_main+0x86>
     4e8:	1c10      	adds	r0, r2, #0
     4ea:	1c23      	adds	r3, r4, #0
     4ec:	4925      	ldr	r1, [pc, #148]	; (584 <c_main+0xc0>)
     4ee:	f000 fdd3 	bl	1098 <io_printf>
     4f2:	1c20      	adds	r0, r4, #0
     4f4:	f000 fcce 	bl	e94 <rtr_alloc>
     4f8:	1e04      	subs	r4, r0, #0
     4fa:	d102      	bne.n	502 <c_main+0x3e>
     4fc:	2009      	movs	r0, #9
     4fe:	f7ff fe15 	bl	12c <rt_error>
     502:	1c20      	adds	r0, r4, #0
     504:	4920      	ldr	r1, [pc, #128]	; (588 <c_main+0xc4>)
     506:	4a21      	ldr	r2, [pc, #132]	; (58c <c_main+0xc8>)
     508:	2308      	movs	r3, #8
     50a:	f000 fbbd 	bl	c88 <rtr_mc_set>
     50e:	2001      	movs	r0, #1
     510:	f000 fcc0 	bl	e94 <rtr_alloc>
     514:	1e04      	subs	r4, r0, #0
     516:	d102      	bne.n	51e <c_main+0x5a>
     518:	2009      	movs	r0, #9
     51a:	f7ff fe07 	bl	12c <rt_error>
     51e:	1c20      	adds	r0, r4, #0
     520:	491b      	ldr	r1, [pc, #108]	; (590 <c_main+0xcc>)
     522:	4a1a      	ldr	r2, [pc, #104]	; (58c <c_main+0xc8>)
     524:	2308      	movs	r3, #8
     526:	f000 fbaf 	bl	c88 <rtr_mc_set>
     52a:	2001      	movs	r0, #1
     52c:	f000 fcb2 	bl	e94 <rtr_alloc>
     530:	1e04      	subs	r4, r0, #0
     532:	d102      	bne.n	53a <c_main+0x76>
     534:	2009      	movs	r0, #9
     536:	f7ff fdf9 	bl	12c <rt_error>
     53a:	2180      	movs	r1, #128	; 0x80
     53c:	0609      	lsls	r1, r1, #24
     53e:	2380      	movs	r3, #128	; 0x80
     540:	1c20      	adds	r0, r4, #0
     542:	1c0a      	adds	r2, r1, #0
     544:	00db      	lsls	r3, r3, #3
     546:	f000 fb9f 	bl	c88 <rtr_mc_set>
     54a:	4812      	ldr	r0, [pc, #72]	; (594 <c_main+0xd0>)
     54c:	f001 f82c 	bl	15a8 <spin1_set_timer_tick>
     550:	2002      	movs	r0, #2
     552:	4911      	ldr	r1, [pc, #68]	; (598 <c_main+0xd4>)
     554:	2201      	movs	r2, #1
     556:	f000 fffb 	bl	1550 <spin1_callback_on>
     55a:	2000      	movs	r0, #0
     55c:	1c02      	adds	r2, r0, #0
     55e:	490f      	ldr	r1, [pc, #60]	; (59c <c_main+0xd8>)
     560:	f000 fff6 	bl	1550 <spin1_callback_on>
     564:	490e      	ldr	r1, [pc, #56]	; (5a0 <SPARE_SIZE>)
     566:	2200      	movs	r2, #0
     568:	2005      	movs	r0, #5
     56a:	f000 fff1 	bl	1550 <spin1_callback_on>
     56e:	2000      	movs	r0, #0
     570:	f001 f8ba 	bl	16e8 <spin1_start>
     574:	bd38      	pop	{r3, r4, r5, pc}
     576:	46c0      	nop			; (mov r8, r8)
     578:	00400368 	.word	0x00400368
     57c:	00400364 	.word	0x00400364
     580:	00400360 	.word	0x00400360
     584:	00001e08 	.word	0x00001e08
     588:	11100001 	.word	0x11100001
     58c:	ffff0001 	.word	0xffff0001
     590:	11100000 	.word	0x11100000
     594:	000186a0 	.word	0x000186a0
     598:	000003e1 	.word	0x000003e1
     59c:	000003b9 	.word	0x000003b9
     5a0:	000003cd 	.word	0x000003cd

000005a4 <rte_handler>:
     5a4:	4b01      	ldr	r3, [pc, #4]	; (5ac <rte_handler+0x8>)
     5a6:	2208      	movs	r2, #8
     5a8:	701a      	strb	r2, [r3, #0]
     5aa:	4770      	bx	lr
     5ac:	e5007f2b 	.word	0xe5007f2b

000005b0 <sark_cpu_state>:
     5b0:	4b02      	ldr	r3, [pc, #8]	; (5bc <sark_cpu_state+0xc>)
     5b2:	69db      	ldr	r3, [r3, #28]
     5b4:	332e      	adds	r3, #46	; 0x2e
     5b6:	7018      	strb	r0, [r3, #0]
     5b8:	4770      	bx	lr
     5ba:	46c0      	nop			; (mov r8, r8)
     5bc:	0040036c 	.word	0x0040036c

000005c0 <sark_app_lead>:
     5c0:	235c      	movs	r3, #92	; 0x5c
     5c2:	4a03      	ldr	r2, [pc, #12]	; (5d0 <sark_app_lead+0x10>)
     5c4:	781b      	ldrb	r3, [r3, #0]
     5c6:	6812      	ldr	r2, [r2, #0]
     5c8:	00db      	lsls	r3, r3, #3
     5ca:	18d3      	adds	r3, r2, r3
     5cc:	78d8      	ldrb	r0, [r3, #3]
     5ce:	4770      	bx	lr
     5d0:	e5007fe4 	.word	0xe5007fe4

000005d4 <sark_block_init>:
     5d4:	b530      	push	{r4, r5, lr}
     5d6:	1c0b      	adds	r3, r1, #0
     5d8:	1c04      	adds	r4, r0, #0
     5da:	e002      	b.n	5e2 <sark_block_init+0xe>
     5dc:	18a5      	adds	r5, r4, r2
     5de:	6025      	str	r5, [r4, #0]
     5e0:	1c2c      	adds	r4, r5, #0
     5e2:	3b01      	subs	r3, #1
     5e4:	2b00      	cmp	r3, #0
     5e6:	d1f9      	bne.n	5dc <sark_block_init+0x8>
     5e8:	3901      	subs	r1, #1
     5ea:	434a      	muls	r2, r1
     5ec:	1880      	adds	r0, r0, r2
     5ee:	6003      	str	r3, [r0, #0]
     5f0:	bd30      	pop	{r4, r5, pc}
	...

000005f4 <sark_msg_get>:
     5f4:	b510      	push	{r4, lr}
     5f6:	f7ff ede8 	blx	1c8 <cpu_int_disable>
     5fa:	4b09      	ldr	r3, [pc, #36]	; (620 <ETH_TX_SIZE+0x20>)
     5fc:	6a1c      	ldr	r4, [r3, #32]
     5fe:	2c00      	cmp	r4, #0
     600:	d00a      	beq.n	618 <ETH_TX_SIZE+0x18>
     602:	6822      	ldr	r2, [r4, #0]
     604:	621a      	str	r2, [r3, #32]
     606:	8c9a      	ldrh	r2, [r3, #36]	; 0x24
     608:	8cd9      	ldrh	r1, [r3, #38]	; 0x26
     60a:	3201      	adds	r2, #1
     60c:	0412      	lsls	r2, r2, #16
     60e:	0c12      	lsrs	r2, r2, #16
     610:	849a      	strh	r2, [r3, #36]	; 0x24
     612:	4291      	cmp	r1, r2
     614:	d200      	bcs.n	618 <ETH_TX_SIZE+0x18>
     616:	84da      	strh	r2, [r3, #38]	; 0x26
     618:	f7ff edde 	blx	1d8 <cpu_int_restore>
     61c:	1c20      	adds	r0, r4, #0
     61e:	bd10      	pop	{r4, pc}
     620:	0040036c 	.word	0x0040036c

00000624 <sark_msg_free>:
     624:	b510      	push	{r4, lr}
     626:	1c04      	adds	r4, r0, #0
     628:	f7ff edce 	blx	1c8 <cpu_int_disable>
     62c:	4b04      	ldr	r3, [pc, #16]	; (640 <sark_msg_free+0x1c>)
     62e:	6a1a      	ldr	r2, [r3, #32]
     630:	6022      	str	r2, [r4, #0]
     632:	8c9a      	ldrh	r2, [r3, #36]	; 0x24
     634:	621c      	str	r4, [r3, #32]
     636:	3a01      	subs	r2, #1
     638:	849a      	strh	r2, [r3, #36]	; 0x24
     63a:	f7ff edce 	blx	1d8 <cpu_int_restore>
     63e:	bd10      	pop	{r4, pc}
     640:	0040036c 	.word	0x0040036c

00000644 <sark_shmsg_get>:
     644:	b510      	push	{r4, lr}
     646:	2000      	movs	r0, #0
     648:	f7ff edce 	blx	1e8 <sark_lock_get>
     64c:	4b09      	ldr	r3, [pc, #36]	; (674 <sark_shmsg_get+0x30>)
     64e:	681c      	ldr	r4, [r3, #0]
     650:	2c00      	cmp	r4, #0
     652:	d00a      	beq.n	66a <sark_shmsg_get+0x26>
     654:	6822      	ldr	r2, [r4, #0]
     656:	601a      	str	r2, [r3, #0]
     658:	889a      	ldrh	r2, [r3, #4]
     65a:	88d9      	ldrh	r1, [r3, #6]
     65c:	3201      	adds	r2, #1
     65e:	0412      	lsls	r2, r2, #16
     660:	0c12      	lsrs	r2, r2, #16
     662:	809a      	strh	r2, [r3, #4]
     664:	4291      	cmp	r1, r2
     666:	d200      	bcs.n	66a <sark_shmsg_get+0x26>
     668:	80da      	strh	r2, [r3, #6]
     66a:	2100      	movs	r1, #0
     66c:	f7ff edce 	blx	20c <sark_lock_free>
     670:	1c20      	adds	r0, r4, #0
     672:	bd10      	pop	{r4, pc}
     674:	e5007f68 	.word	0xe5007f68

00000678 <sark_shmsg_free>:
     678:	b510      	push	{r4, lr}
     67a:	1c04      	adds	r4, r0, #0
     67c:	2000      	movs	r0, #0
     67e:	f7ff edb4 	blx	1e8 <sark_lock_get>
     682:	4b05      	ldr	r3, [pc, #20]	; (698 <sark_shmsg_free+0x20>)
     684:	2100      	movs	r1, #0
     686:	681a      	ldr	r2, [r3, #0]
     688:	6022      	str	r2, [r4, #0]
     68a:	889a      	ldrh	r2, [r3, #4]
     68c:	601c      	str	r4, [r3, #0]
     68e:	3a01      	subs	r2, #1
     690:	809a      	strh	r2, [r3, #4]
     692:	f7ff edbc 	blx	20c <sark_lock_free>
     696:	bd10      	pop	{r4, pc}
     698:	e5007f68 	.word	0xe5007f68

0000069c <sark_init>:
     69c:	b570      	push	{r4, r5, r6, lr}
     69e:	2520      	movs	r5, #32
     6a0:	1c04      	adds	r4, r0, #0
     6a2:	8c28      	ldrh	r0, [r5, #32]
     6a4:	8c6a      	ldrh	r2, [r5, #34]	; 0x22
     6a6:	0080      	lsls	r0, r0, #2
     6a8:	1a20      	subs	r0, r4, r0
     6aa:	21d2      	movs	r1, #210	; 0xd2
     6ac:	f7ff ed70 	blx	190 <cpu_init_mode>
     6b0:	8caa      	ldrh	r2, [r5, #36]	; 0x24
     6b2:	21d1      	movs	r1, #209	; 0xd1
     6b4:	f7ff ed6c 	blx	190 <cpu_init_mode>
     6b8:	2200      	movs	r2, #0
     6ba:	21df      	movs	r1, #223	; 0xdf
     6bc:	f7ff ed68 	blx	190 <cpu_init_mode>
     6c0:	8ce9      	ldrh	r1, [r5, #38]	; 0x26
     6c2:	2658      	movs	r6, #88	; 0x58
     6c4:	0889      	lsrs	r1, r1, #2
     6c6:	0089      	lsls	r1, r1, #2
     6c8:	1a61      	subs	r1, r4, r1
     6ca:	4c2a      	ldr	r4, [pc, #168]	; (774 <ZI_LENGTH+0xb4>)
     6cc:	6121      	str	r1, [r4, #16]
     6ce:	6ae8      	ldr	r0, [r5, #44]	; 0x2c
     6d0:	6160      	str	r0, [r4, #20]
     6d2:	f000 fb97 	bl	e04 <sark_heap_init>
     6d6:	4b28      	ldr	r3, [pc, #160]	; (778 <ZI_LENGTH+0xb8>)
     6d8:	4a28      	ldr	r2, [pc, #160]	; (77c <ZI_LENGTH+0xbc>)
     6da:	681b      	ldr	r3, [r3, #0]
     6dc:	4d28      	ldr	r5, [pc, #160]	; (780 <ZI_LENGTH+0xc0>)
     6de:	0e1b      	lsrs	r3, r3, #24
     6e0:	6063      	str	r3, [r4, #4]
     6e2:	189b      	adds	r3, r3, r2
     6e4:	2192      	movs	r1, #146	; 0x92
     6e6:	0049      	lsls	r1, r1, #1
     6e8:	61a0      	str	r0, [r4, #24]
     6ea:	791b      	ldrb	r3, [r3, #4]
     6ec:	6023      	str	r3, [r4, #0]
     6ee:	8cab      	ldrh	r3, [r5, #36]	; 0x24
     6f0:	8623      	strh	r3, [r4, #48]	; 0x30
     6f2:	4b24      	ldr	r3, [pc, #144]	; (784 <ZI_LENGTH+0xc4>)
     6f4:	60a3      	str	r3, [r4, #8]
     6f6:	7830      	ldrb	r0, [r6, #0]
     6f8:	f000 fb78 	bl	dec <sark_alloc>
     6fc:	2292      	movs	r2, #146	; 0x92
     6fe:	0052      	lsls	r2, r2, #1
     700:	6220      	str	r0, [r4, #32]
     702:	7831      	ldrb	r1, [r6, #0]
     704:	f7ff ff66 	bl	5d4 <sark_block_init>
     708:	6823      	ldr	r3, [r4, #0]
     70a:	2b11      	cmp	r3, #17
     70c:	d81d      	bhi.n	74a <ZI_LENGTH+0x8a>
     70e:	4a1e      	ldr	r2, [pc, #120]	; (788 <ZI_LENGTH+0xc8>)
     710:	01d8      	lsls	r0, r3, #7
     712:	1880      	adds	r0, r0, r2
     714:	6daa      	ldr	r2, [r5, #88]	; 0x58
     716:	61e0      	str	r0, [r4, #28]
     718:	4353      	muls	r3, r2
     71a:	6d6a      	ldr	r2, [r5, #84]	; 0x54
     71c:	009b      	lsls	r3, r3, #2
     71e:	18d3      	adds	r3, r2, r3
     720:	2100      	movs	r1, #0
     722:	2270      	movs	r2, #112	; 0x70
     724:	6363      	str	r3, [r4, #52]	; 0x34
     726:	f7ff ed86 	blx	234 <sark_word_set>
     72a:	69e0      	ldr	r0, [r4, #28]
     72c:	2205      	movs	r2, #5
     72e:	1c03      	adds	r3, r0, #0
     730:	332e      	adds	r3, #46	; 0x2e
     732:	701a      	strb	r2, [r3, #0]
     734:	235c      	movs	r3, #92	; 0x5c
     736:	781a      	ldrb	r2, [r3, #0]
     738:	1c03      	adds	r3, r0, #0
     73a:	332f      	adds	r3, #47	; 0x2f
     73c:	701a      	strb	r2, [r3, #0]
     73e:	69ed      	ldr	r5, [r5, #28]
     740:	6445      	str	r5, [r0, #68]	; 0x44
     742:	4912      	ldr	r1, [pc, #72]	; (78c <ZI_LENGTH+0xcc>)
     744:	3048      	adds	r0, #72	; 0x48
     746:	f7ff ed6c 	blx	220 <sark_str_cpy>
     74a:	f000 fa3b 	bl	bc4 <sark_vic_init>
     74e:	2359      	movs	r3, #89	; 0x59
     750:	7818      	ldrb	r0, [r3, #0]
     752:	2112      	movs	r1, #18
     754:	2201      	movs	r2, #1
     756:	4b0e      	ldr	r3, [pc, #56]	; (790 <ZI_LENGTH+0xd0>)
     758:	f000 fa5c 	bl	c14 <sark_vic_set>
     75c:	2106      	movs	r1, #6
     75e:	2201      	movs	r2, #1
     760:	2010      	movs	r0, #16
     762:	4b0c      	ldr	r3, [pc, #48]	; (794 <ZI_LENGTH+0xd4>)
     764:	f000 fa56 	bl	c14 <sark_vic_set>
     768:	235a      	movs	r3, #90	; 0x5a
     76a:	7818      	ldrb	r0, [r3, #0]
     76c:	f000 fa0c 	bl	b88 <event_alloc>
     770:	201f      	movs	r0, #31
     772:	bd70      	pop	{r4, r5, r6, pc}
     774:	0040036c 	.word	0x0040036c
     778:	40000014 	.word	0x40000014
     77c:	e5007f90 	.word	0xe5007f90
     780:	e5007f00 	.word	0xe5007f00
     784:	deaddead 	.word	0xdeaddead
     788:	e5007000 	.word	0xe5007000
     78c:	00001e3c 	.word	0x00001e3c
     790:	000002ec 	.word	0x000002ec
     794:	00000cfc 	.word	0x00000cfc

00000798 <sark_msg_send>:
     798:	b5f8      	push	{r3, r4, r5, r6, r7, lr}
     79a:	1c05      	adds	r5, r0, #0
     79c:	1c0f      	adds	r7, r1, #0
     79e:	f7ff ff51 	bl	644 <sark_shmsg_get>
     7a2:	1c04      	adds	r4, r0, #0
     7a4:	3800      	subs	r0, #0
     7a6:	d03d      	beq.n	824 <STACK_SIZE+0x24>
     7a8:	1c29      	adds	r1, r5, #0
     7aa:	f7ff ed56 	blx	258 <sark_msg_cpy>
     7ae:	4e1e      	ldr	r6, [pc, #120]	; (828 <STACK_SIZE+0x28>)
     7b0:	2501      	movs	r5, #1
     7b2:	69f3      	ldr	r3, [r6, #28]
     7b4:	1c28      	adds	r0, r5, #0
     7b6:	635c      	str	r4, [r3, #52]	; 0x34
     7b8:	3339      	adds	r3, #57	; 0x39
     7ba:	701d      	strb	r5, [r3, #0]
     7bc:	f7ff ed14 	blx	1e8 <sark_lock_get>
     7c0:	6831      	ldr	r1, [r6, #0]
     7c2:	4a1a      	ldr	r2, [pc, #104]	; (82c <STACK_SIZE+0x2c>)
     7c4:	1c2e      	adds	r6, r5, #0
     7c6:	6813      	ldr	r3, [r2, #0]
     7c8:	408e      	lsls	r6, r1
     7ca:	1c31      	adds	r1, r6, #0
     7cc:	4319      	orrs	r1, r3
     7ce:	6011      	str	r1, [r2, #0]
     7d0:	2b00      	cmp	r3, #0
     7d2:	d106      	bne.n	7e2 <sark_msg_send+0x4a>
     7d4:	4b16      	ldr	r3, [pc, #88]	; (830 <STACK_SIZE+0x30>)
     7d6:	4a17      	ldr	r2, [pc, #92]	; (834 <STACK_SIZE+0x34>)
     7d8:	781b      	ldrb	r3, [r3, #0]
     7da:	409d      	lsls	r5, r3
     7dc:	4b16      	ldr	r3, [pc, #88]	; (838 <STACK_SIZE+0x38>)
     7de:	18ad      	adds	r5, r5, r2
     7e0:	601d      	str	r5, [r3, #0]
     7e2:	2101      	movs	r1, #1
     7e4:	f7ff ed12 	blx	20c <sark_lock_free>
     7e8:	4b0f      	ldr	r3, [pc, #60]	; (828 <STACK_SIZE+0x28>)
     7ea:	4a14      	ldr	r2, [pc, #80]	; (83c <STACK_SIZE+0x3c>)
     7ec:	69db      	ldr	r3, [r3, #28]
     7ee:	6815      	ldr	r5, [r2, #0]
     7f0:	1c18      	adds	r0, r3, #0
     7f2:	3039      	adds	r0, #57	; 0x39
     7f4:	e008      	b.n	808 <STACK_SIZE+0x8>
     7f6:	6811      	ldr	r1, [r2, #0]
     7f8:	1b49      	subs	r1, r1, r5
     7fa:	42b9      	cmp	r1, r7
     7fc:	d904      	bls.n	808 <STACK_SIZE+0x8>
     7fe:	3339      	adds	r3, #57	; 0x39
     800:	781b      	ldrb	r3, [r3, #0]
     802:	2b00      	cmp	r3, #0
     804:	d009      	beq.n	81a <STACK_SIZE+0x1a>
     806:	e003      	b.n	810 <STACK_SIZE+0x10>
     808:	7801      	ldrb	r1, [r0, #0]
     80a:	2900      	cmp	r1, #0
     80c:	d1f3      	bne.n	7f6 <sark_msg_send+0x5e>
     80e:	e7f6      	b.n	7fe <sark_msg_send+0x66>
     810:	1c20      	adds	r0, r4, #0
     812:	f7ff ff31 	bl	678 <sark_shmsg_free>
     816:	2000      	movs	r0, #0
     818:	e004      	b.n	824 <STACK_SIZE+0x24>
     81a:	4b03      	ldr	r3, [pc, #12]	; (828 <STACK_SIZE+0x28>)
     81c:	2001      	movs	r0, #1
     81e:	6ada      	ldr	r2, [r3, #44]	; 0x2c
     820:	3201      	adds	r2, #1
     822:	62da      	str	r2, [r3, #44]	; 0x2c
     824:	bdf8      	pop	{r3, r4, r5, r6, r7, pc}
     826:	46c0      	nop			; (mov r8, r8)
     828:	0040036c 	.word	0x0040036c
     82c:	e5007fec 	.word	0xe5007fec
     830:	e5007fa8 	.word	0xe5007fa8
     834:	5ec00000 	.word	0x5ec00000
     838:	e2000008 	.word	0xe2000008
     83c:	e5007f10 	.word	0xe5007f10

00000840 <sark_cmd_ver>:
     840:	b508      	push	{r3, lr}
     842:	4b0a      	ldr	r3, [pc, #40]	; (86c <sark_cmd_ver+0x2c>)
     844:	6859      	ldr	r1, [r3, #4]
     846:	681b      	ldr	r3, [r3, #0]
     848:	020a      	lsls	r2, r1, #8
     84a:	18d3      	adds	r3, r2, r3
     84c:	4a08      	ldr	r2, [pc, #32]	; (870 <sark_cmd_ver+0x30>)
     84e:	4909      	ldr	r1, [pc, #36]	; (874 <sark_cmd_ver+0x34>)
     850:	8812      	ldrh	r2, [r2, #0]
     852:	0412      	lsls	r2, r2, #16
     854:	189b      	adds	r3, r3, r2
     856:	6143      	str	r3, [r0, #20]
     858:	4b07      	ldr	r3, [pc, #28]	; (878 <sark_cmd_ver+0x38>)
     85a:	6183      	str	r3, [r0, #24]
     85c:	4b07      	ldr	r3, [pc, #28]	; (87c <sark_cmd_ver+0x3c>)
     85e:	681b      	ldr	r3, [r3, #0]
     860:	61c3      	str	r3, [r0, #28]
     862:	3020      	adds	r0, #32
     864:	f7ff ecdc 	blx	220 <sark_str_cpy>
     868:	201b      	movs	r0, #27
     86a:	bd08      	pop	{r3, pc}
     86c:	0040036c 	.word	0x0040036c
     870:	e5007f00 	.word	0xe5007f00
     874:	00001e4c 	.word	0x00001e4c
     878:	00820100 	.word	0x00820100
     87c:	00001e48 	.word	0x00001e48

00000880 <sark_cmd_read>:
     880:	69c1      	ldr	r1, [r0, #28]
     882:	b530      	push	{r4, r5, lr}
     884:	6983      	ldr	r3, [r0, #24]
     886:	2902      	cmp	r1, #2
     888:	d803      	bhi.n	892 <sark_cmd_read+0x12>
     88a:	2280      	movs	r2, #128	; 0x80
     88c:	0052      	lsls	r2, r2, #1
     88e:	429a      	cmp	r2, r3
     890:	d203      	bcs.n	89a <sark_cmd_read+0x1a>
     892:	2384      	movs	r3, #132	; 0x84
     894:	8203      	strh	r3, [r0, #16]
     896:	2300      	movs	r3, #0
     898:	e023      	b.n	8e2 <sark_cmd_read+0x62>
     89a:	6942      	ldr	r2, [r0, #20]
     89c:	3014      	adds	r0, #20
     89e:	2900      	cmp	r1, #0
     8a0:	d108      	bne.n	8b4 <sark_cmd_read+0x34>
     8a2:	18d1      	adds	r1, r2, r3
     8a4:	1a80      	subs	r0, r0, r2
     8a6:	e002      	b.n	8ae <sark_cmd_read+0x2e>
     8a8:	7814      	ldrb	r4, [r2, #0]
     8aa:	5484      	strb	r4, [r0, r2]
     8ac:	3201      	adds	r2, #1
     8ae:	428a      	cmp	r2, r1
     8b0:	d1fa      	bne.n	8a8 <sark_cmd_read+0x28>
     8b2:	e016      	b.n	8e2 <sark_cmd_read+0x62>
     8b4:	2901      	cmp	r1, #1
     8b6:	d10a      	bne.n	8ce <sark_cmd_read+0x4e>
     8b8:	0859      	lsrs	r1, r3, #1
     8ba:	0049      	lsls	r1, r1, #1
     8bc:	1889      	adds	r1, r1, r2
     8be:	1a80      	subs	r0, r0, r2
     8c0:	e002      	b.n	8c8 <sark_cmd_read+0x48>
     8c2:	8814      	ldrh	r4, [r2, #0]
     8c4:	5284      	strh	r4, [r0, r2]
     8c6:	3202      	adds	r2, #2
     8c8:	428a      	cmp	r2, r1
     8ca:	d1fa      	bne.n	8c2 <sark_cmd_read+0x42>
     8cc:	e009      	b.n	8e2 <sark_cmd_read+0x62>
     8ce:	089c      	lsrs	r4, r3, #2
     8d0:	00a4      	lsls	r4, r4, #2
     8d2:	1904      	adds	r4, r0, r4
     8d4:	1c01      	adds	r1, r0, #0
     8d6:	e002      	b.n	8de <sark_cmd_read+0x5e>
     8d8:	1a0d      	subs	r5, r1, r0
     8da:	58ad      	ldr	r5, [r5, r2]
     8dc:	c120      	stmia	r1!, {r5}
     8de:	42a1      	cmp	r1, r4
     8e0:	d1fa      	bne.n	8d8 <sark_cmd_read+0x58>
     8e2:	1c18      	adds	r0, r3, #0
     8e4:	bd30      	pop	{r4, r5, pc}

000008e6 <sark_cmd_write>:
     8e6:	69c1      	ldr	r1, [r0, #28]
     8e8:	b530      	push	{r4, r5, lr}
     8ea:	6982      	ldr	r2, [r0, #24]
     8ec:	2902      	cmp	r1, #2
     8ee:	d803      	bhi.n	8f8 <sark_cmd_write+0x12>
     8f0:	2380      	movs	r3, #128	; 0x80
     8f2:	005b      	lsls	r3, r3, #1
     8f4:	4293      	cmp	r3, r2
     8f6:	d202      	bcs.n	8fe <sark_cmd_write+0x18>
     8f8:	2384      	movs	r3, #132	; 0x84
     8fa:	8203      	strh	r3, [r0, #16]
     8fc:	e026      	b.n	94c <sark_cmd_write+0x66>
     8fe:	6943      	ldr	r3, [r0, #20]
     900:	2900      	cmp	r1, #0
     902:	d10b      	bne.n	91c <sark_cmd_write+0x36>
     904:	1881      	adds	r1, r0, r2
     906:	1c02      	adds	r2, r0, #0
     908:	e005      	b.n	916 <sark_cmd_write+0x30>
     90a:	1c14      	adds	r4, r2, #0
     90c:	3420      	adds	r4, #32
     90e:	7825      	ldrb	r5, [r4, #0]
     910:	1a14      	subs	r4, r2, r0
     912:	3201      	adds	r2, #1
     914:	54e5      	strb	r5, [r4, r3]
     916:	428a      	cmp	r2, r1
     918:	d1f7      	bne.n	90a <sark_cmd_write+0x24>
     91a:	e017      	b.n	94c <sark_cmd_write+0x66>
     91c:	3020      	adds	r0, #32
     91e:	2901      	cmp	r1, #1
     920:	d10b      	bne.n	93a <sark_cmd_write+0x54>
     922:	0851      	lsrs	r1, r2, #1
     924:	0049      	lsls	r1, r1, #1
     926:	1841      	adds	r1, r0, r1
     928:	1c02      	adds	r2, r0, #0
     92a:	e003      	b.n	934 <sark_cmd_write+0x4e>
     92c:	8815      	ldrh	r5, [r2, #0]
     92e:	1a14      	subs	r4, r2, r0
     930:	3202      	adds	r2, #2
     932:	52e5      	strh	r5, [r4, r3]
     934:	428a      	cmp	r2, r1
     936:	d1f9      	bne.n	92c <sark_cmd_write+0x46>
     938:	e008      	b.n	94c <sark_cmd_write+0x66>
     93a:	0892      	lsrs	r2, r2, #2
     93c:	0092      	lsls	r2, r2, #2
     93e:	18d2      	adds	r2, r2, r3
     940:	1ac0      	subs	r0, r0, r3
     942:	e001      	b.n	948 <sark_cmd_write+0x62>
     944:	58c1      	ldr	r1, [r0, r3]
     946:	c302      	stmia	r3!, {r1}
     948:	4293      	cmp	r3, r2
     94a:	d1fb      	bne.n	944 <sark_cmd_write+0x5e>
     94c:	2000      	movs	r0, #0
     94e:	bd30      	pop	{r4, r5, pc}

00000950 <sark_cmd_fill>:
     950:	b508      	push	{r3, lr}
     952:	1c03      	adds	r3, r0, #0
     954:	3314      	adds	r3, #20
     956:	cb07      	ldmia	r3!, {r0, r1, r2}
     958:	f7ff ec6c 	blx	234 <sark_word_set>
     95c:	2000      	movs	r0, #0
     95e:	bd08      	pop	{r3, pc}

00000960 <sark_wait>:
     960:	b508      	push	{r3, lr}
     962:	e001      	b.n	968 <sark_wait+0x8>
     964:	f7ff ec3c 	blx	1e0 <cpu_wfi>
     968:	235d      	movs	r3, #93	; 0x5d
     96a:	781b      	ldrb	r3, [r3, #0]
     96c:	07da      	lsls	r2, r3, #31
     96e:	d4f9      	bmi.n	964 <sark_wait+0x4>
     970:	bd08      	pop	{r3, pc}
	...

00000974 <sark_int>:
     974:	4b55      	ldr	r3, [pc, #340]	; (acc <sark_int+0x158>)
     976:	2101      	movs	r1, #1
     978:	685a      	ldr	r2, [r3, #4]
     97a:	b570      	push	{r4, r5, r6, lr}
     97c:	4091      	lsls	r1, r2
     97e:	4a54      	ldr	r2, [pc, #336]	; (ad0 <sark_int+0x15c>)
     980:	1889      	adds	r1, r1, r2
     982:	4a54      	ldr	r2, [pc, #336]	; (ad4 <sark_int+0x160>)
     984:	6011      	str	r1, [r2, #0]
     986:	69da      	ldr	r2, [r3, #28]
     988:	1c11      	adds	r1, r2, #0
     98a:	3138      	adds	r1, #56	; 0x38
     98c:	780b      	ldrb	r3, [r1, #0]
     98e:	2b00      	cmp	r3, #0
     990:	d100      	bne.n	994 <sark_int+0x20>
     992:	e099      	b.n	ac8 <sark_int+0x154>
     994:	6b15      	ldr	r5, [r2, #48]	; 0x30
     996:	2b02      	cmp	r3, #2
     998:	d100      	bne.n	99c <sark_int+0x28>
     99a:	6310      	str	r0, [r2, #48]	; 0x30
     99c:	2200      	movs	r2, #0
     99e:	700a      	strb	r2, [r1, #0]
     9a0:	2b03      	cmp	r3, #3
     9a2:	d124      	bne.n	9ee <sark_int+0x7a>
     9a4:	1ee8      	subs	r0, r5, #3
     9a6:	280a      	cmp	r0, #10
     9a8:	d900      	bls.n	9ac <sark_int+0x38>
     9aa:	e08d      	b.n	ac8 <sark_int+0x154>
     9ac:	f7ff fcd0 	bl	350 <__gnu_thumb1_case_uqi>
     9b0:	068c8c10 	.word	0x068c8c10
     9b4:	161b0c08 	.word	0x161b0c08
     9b8:	1616      	.short	0x1616
     9ba:	16          	.byte	0x16
     9bb:	00          	.byte	0x00
     9bc:	2001      	movs	r0, #1
     9be:	e000      	b.n	9c2 <sark_int+0x4e>
     9c0:	2000      	movs	r0, #0
     9c2:	f000 f8bf 	bl	b44 <event_pause>
     9c6:	e07f      	b.n	ac8 <sark_int+0x154>
     9c8:	20ff      	movs	r0, #255	; 0xff
     9ca:	f000 f8d1 	bl	b70 <event_stop>
     9ce:	e07b      	b.n	ac8 <sark_int+0x154>
     9d0:	235d      	movs	r3, #93	; 0x5d
     9d2:	781a      	ldrb	r2, [r3, #0]
     9d4:	2101      	movs	r1, #1
     9d6:	438a      	bics	r2, r1
     9d8:	701a      	strb	r2, [r3, #0]
     9da:	e075      	b.n	ac8 <sark_int+0x154>
     9dc:	4b3e      	ldr	r3, [pc, #248]	; (ad8 <sark_int+0x164>)
     9de:	2280      	movs	r2, #128	; 0x80
     9e0:	62dd      	str	r5, [r3, #44]	; 0x2c
     9e2:	0592      	lsls	r2, r2, #22
     9e4:	e000      	b.n	9e8 <sark_int+0x74>
     9e6:	2210      	movs	r2, #16
     9e8:	4b3c      	ldr	r3, [pc, #240]	; (adc <sark_int+0x168>)
     9ea:	601a      	str	r2, [r3, #0]
     9ec:	e06c      	b.n	ac8 <sark_int+0x154>
     9ee:	2b01      	cmp	r3, #1
     9f0:	d16a      	bne.n	ac8 <sark_int+0x154>
     9f2:	f7ff fdff 	bl	5f4 <sark_msg_get>
     9f6:	1e04      	subs	r4, r0, #0
     9f8:	d063      	beq.n	ac2 <sark_int+0x14e>
     9fa:	1c29      	adds	r1, r5, #0
     9fc:	1c20      	adds	r0, r4, #0
     9fe:	f7ff ec2c 	blx	258 <sark_msg_cpy>
     a02:	1c28      	adds	r0, r5, #0
     a04:	f7ff fe38 	bl	678 <sark_shmsg_free>
     a08:	4b30      	ldr	r3, [pc, #192]	; (acc <sark_int+0x158>)
     a0a:	6a9a      	ldr	r2, [r3, #40]	; 0x28
     a0c:	3201      	adds	r2, #1
     a0e:	629a      	str	r2, [r3, #40]	; 0x28
     a10:	7aa5      	ldrb	r5, [r4, #10]
     a12:	231f      	movs	r3, #31
     a14:	1c28      	adds	r0, r5, #0
     a16:	4398      	bics	r0, r3
     a18:	d130      	bne.n	a7c <sark_int+0x108>
     a1a:	88a3      	ldrh	r3, [r4, #4]
     a1c:	2b17      	cmp	r3, #23
     a1e:	d801      	bhi.n	a24 <sark_int+0xb0>
     a20:	2381      	movs	r3, #129	; 0x81
     a22:	e01b      	b.n	a5c <sark_int+0xe8>
     a24:	8a23      	ldrh	r3, [r4, #16]
     a26:	2280      	movs	r2, #128	; 0x80
     a28:	8222      	strh	r2, [r4, #16]
     a2a:	2b00      	cmp	r3, #0
     a2c:	d103      	bne.n	a36 <sark_int+0xc2>
     a2e:	1c20      	adds	r0, r4, #0
     a30:	f7ff ff06 	bl	840 <sark_cmd_ver>
     a34:	e013      	b.n	a5e <sark_int+0xea>
     a36:	2b02      	cmp	r3, #2
     a38:	d103      	bne.n	a42 <sark_int+0xce>
     a3a:	1c20      	adds	r0, r4, #0
     a3c:	f7ff ff20 	bl	880 <sark_cmd_read>
     a40:	e00d      	b.n	a5e <sark_int+0xea>
     a42:	2b03      	cmp	r3, #3
     a44:	d103      	bne.n	a4e <sark_int+0xda>
     a46:	1c20      	adds	r0, r4, #0
     a48:	f7ff ff4d 	bl	8e6 <sark_cmd_write>
     a4c:	e007      	b.n	a5e <sark_int+0xea>
     a4e:	2b05      	cmp	r3, #5
     a50:	d103      	bne.n	a5a <sark_int+0xe6>
     a52:	1c20      	adds	r0, r4, #0
     a54:	f7ff ff7c 	bl	950 <sark_cmd_fill>
     a58:	e001      	b.n	a5e <sark_int+0xea>
     a5a:	2383      	movs	r3, #131	; 0x83
     a5c:	8223      	strh	r3, [r4, #16]
     a5e:	7aa2      	ldrb	r2, [r4, #10]
     a60:	7ae1      	ldrb	r1, [r4, #11]
     a62:	89a3      	ldrh	r3, [r4, #12]
     a64:	300c      	adds	r0, #12
     a66:	72e2      	strb	r2, [r4, #11]
     a68:	89e2      	ldrh	r2, [r4, #14]
     a6a:	80a0      	strh	r0, [r4, #4]
     a6c:	72a1      	strb	r1, [r4, #10]
     a6e:	81a2      	strh	r2, [r4, #12]
     a70:	81e3      	strh	r3, [r4, #14]
     a72:	1c20      	adds	r0, r4, #0
     a74:	210a      	movs	r1, #10
     a76:	f7ff fe8f 	bl	798 <sark_msg_send>
     a7a:	e01e      	b.n	aba <sark_int+0x146>
     a7c:	235b      	movs	r3, #91	; 0x5b
     a7e:	781b      	ldrb	r3, [r3, #0]
     a80:	2b00      	cmp	r3, #0
     a82:	d00f      	beq.n	aa4 <sark_int+0x130>
     a84:	4b16      	ldr	r3, [pc, #88]	; (ae0 <sark_int+0x16c>)
     a86:	699b      	ldr	r3, [r3, #24]
     a88:	2b00      	cmp	r3, #0
     a8a:	d016      	beq.n	aba <sark_int+0x146>
     a8c:	f7ff eb9c 	blx	1c8 <cpu_int_disable>
     a90:	096a      	lsrs	r2, r5, #5
     a92:	1c21      	adds	r1, r4, #0
     a94:	1c06      	adds	r6, r0, #0
     a96:	2003      	movs	r0, #3
     a98:	f000 ff22 	bl	18e0 <schedule_sysmode>
     a9c:	1c30      	adds	r0, r6, #0
     a9e:	f7ff eb9c 	blx	1d8 <cpu_int_restore>
     aa2:	e011      	b.n	ac8 <sark_int+0x154>
     aa4:	4b0f      	ldr	r3, [pc, #60]	; (ae4 <sark_int+0x170>)
     aa6:	681a      	ldr	r2, [r3, #0]
     aa8:	2380      	movs	r3, #128	; 0x80
     aaa:	055b      	lsls	r3, r3, #21
     aac:	421a      	tst	r2, r3
     aae:	d004      	beq.n	aba <sark_int+0x146>
     ab0:	4a09      	ldr	r2, [pc, #36]	; (ad8 <sark_int+0x164>)
     ab2:	6294      	str	r4, [r2, #40]	; 0x28
     ab4:	4a09      	ldr	r2, [pc, #36]	; (adc <sark_int+0x168>)
     ab6:	6013      	str	r3, [r2, #0]
     ab8:	e006      	b.n	ac8 <sark_int+0x154>
     aba:	1c20      	adds	r0, r4, #0
     abc:	f7ff fdb2 	bl	624 <sark_msg_free>
     ac0:	e002      	b.n	ac8 <sark_int+0x154>
     ac2:	1c28      	adds	r0, r5, #0
     ac4:	f7ff fdd8 	bl	678 <sark_shmsg_free>
     ac8:	bd70      	pop	{r4, r5, r6, pc}
     aca:	46c0      	nop			; (mov r8, r8)
     acc:	0040036c 	.word	0x0040036c
     ad0:	5ec00000 	.word	0x5ec00000
     ad4:	e200000c 	.word	0xe200000c
     ad8:	004003a8 	.word	0x004003a8
     adc:	2f000018 	.word	0x2f000018
     ae0:	004005d4 	.word	0x004005d4
     ae4:	2f000010 	.word	0x2f000010

00000ae8 <event_wait>:
     ae8:	4b13      	ldr	r3, [pc, #76]	; (b38 <event_wait+0x50>)
     aea:	b570      	push	{r4, r5, r6, lr}
     aec:	681b      	ldr	r3, [r3, #0]
     aee:	4c13      	ldr	r4, [pc, #76]	; (b3c <event_wait+0x54>)
     af0:	2501      	movs	r5, #1
     af2:	409d      	lsls	r5, r3
     af4:	7ea3      	ldrb	r3, [r4, #26]
     af6:	4e12      	ldr	r6, [pc, #72]	; (b40 <event_wait+0x58>)
     af8:	2b00      	cmp	r3, #0
     afa:	d012      	beq.n	b22 <event_wait+0x3a>
     afc:	2009      	movs	r0, #9
     afe:	f7ff fd57 	bl	5b0 <sark_cpu_state>
     b02:	e001      	b.n	b08 <event_wait+0x20>
     b04:	f7ff eb6c 	blx	1e0 <cpu_wfi>
     b08:	6833      	ldr	r3, [r6, #0]
     b0a:	1c2a      	adds	r2, r5, #0
     b0c:	439a      	bics	r2, r3
     b0e:	1e13      	subs	r3, r2, #0
     b10:	d1f8      	bne.n	b04 <event_wait+0x1c>
     b12:	7ea3      	ldrb	r3, [r4, #26]
     b14:	2201      	movs	r2, #1
     b16:	4053      	eors	r3, r2
     b18:	2007      	movs	r0, #7
     b1a:	76a3      	strb	r3, [r4, #26]
     b1c:	f7ff fd48 	bl	5b0 <sark_cpu_state>
     b20:	e009      	b.n	b36 <event_wait+0x4e>
     b22:	2008      	movs	r0, #8
     b24:	f7ff fd44 	bl	5b0 <sark_cpu_state>
     b28:	e001      	b.n	b2e <event_wait+0x46>
     b2a:	f7ff eb5a 	blx	1e0 <cpu_wfi>
     b2e:	6833      	ldr	r3, [r6, #0]
     b30:	422b      	tst	r3, r5
     b32:	d1fa      	bne.n	b2a <event_wait+0x42>
     b34:	e7ed      	b.n	b12 <event_wait+0x2a>
     b36:	bd70      	pop	{r4, r5, r6, pc}
     b38:	0040036c 	.word	0x0040036c
     b3c:	004003a8 	.word	0x004003a8
     b40:	e2000058 	.word	0xe2000058

00000b44 <event_pause>:
     b44:	b538      	push	{r3, r4, r5, lr}
     b46:	1c05      	adds	r5, r0, #0
     b48:	4c08      	ldr	r4, [pc, #32]	; (b6c <event_pause+0x28>)
     b4a:	2800      	cmp	r0, #0
     b4c:	d003      	beq.n	b56 <event_pause+0x12>
     b4e:	2301      	movs	r3, #1
     b50:	7623      	strb	r3, [r4, #24]
     b52:	200a      	movs	r0, #10
     b54:	e001      	b.n	b5a <event_pause+0x16>
     b56:	7620      	strb	r0, [r4, #24]
     b58:	2007      	movs	r0, #7
     b5a:	f7ff fd29 	bl	5b0 <sark_cpu_state>
     b5e:	6b23      	ldr	r3, [r4, #48]	; 0x30
     b60:	2b00      	cmp	r3, #0
     b62:	d002      	beq.n	b6a <event_pause+0x26>
     b64:	6b61      	ldr	r1, [r4, #52]	; 0x34
     b66:	1c28      	adds	r0, r5, #0
     b68:	4798      	blx	r3
     b6a:	bd38      	pop	{r3, r4, r5, pc}
     b6c:	004003a8 	.word	0x004003a8

00000b70 <event_stop>:
     b70:	4b03      	ldr	r3, [pc, #12]	; (b80 <event_stop+0x10>)
     b72:	2202      	movs	r2, #2
     b74:	761a      	strb	r2, [r3, #24]
     b76:	4a03      	ldr	r2, [pc, #12]	; (b84 <event_stop+0x14>)
     b78:	6cd9      	ldr	r1, [r3, #76]	; 0x4c
     b7a:	6011      	str	r1, [r2, #0]
     b7c:	6398      	str	r0, [r3, #56]	; 0x38
     b7e:	4770      	bx	lr
     b80:	004003a8 	.word	0x004003a8
     b84:	2f000014 	.word	0x2f000014

00000b88 <event_alloc>:
     b88:	b570      	push	{r4, r5, r6, lr}
     b8a:	2118      	movs	r1, #24
     b8c:	1c06      	adds	r6, r0, #0
     b8e:	f000 f92d 	bl	dec <sark_alloc>
     b92:	4d0b      	ldr	r5, [pc, #44]	; (bc0 <event_alloc+0x38>)
     b94:	1e04      	subs	r4, r0, #0
     b96:	d00d      	beq.n	bb4 <event_alloc+0x2c>
     b98:	1c31      	adds	r1, r6, #0
     b9a:	2218      	movs	r2, #24
     b9c:	f7ff fd1a 	bl	5d4 <sark_block_init>
     ba0:	1c06      	adds	r6, r0, #0
     ba2:	f7ff eb12 	blx	1c8 <cpu_int_disable>
     ba6:	682a      	ldr	r2, [r5, #0]
     ba8:	6032      	str	r2, [r6, #0]
     baa:	602c      	str	r4, [r5, #0]
     bac:	f7ff eb14 	blx	1d8 <cpu_int_restore>
     bb0:	2001      	movs	r0, #1
     bb2:	e003      	b.n	bbc <event_alloc+0x34>
     bb4:	696a      	ldr	r2, [r5, #20]
     bb6:	2308      	movs	r3, #8
     bb8:	4313      	orrs	r3, r2
     bba:	616b      	str	r3, [r5, #20]
     bbc:	bd70      	pop	{r4, r5, r6, pc}
     bbe:	46c0      	nop			; (mov r8, r8)
     bc0:	004003a8 	.word	0x004003a8

00000bc4 <sark_vic_init>:
     bc4:	4b0b      	ldr	r3, [pc, #44]	; (bf4 <sark_vic_init+0x30>)
     bc6:	2201      	movs	r2, #1
     bc8:	4252      	negs	r2, r2
     bca:	b510      	push	{r4, lr}
     bcc:	601a      	str	r2, [r3, #0]
     bce:	4b0a      	ldr	r3, [pc, #40]	; (bf8 <sark_vic_init+0x34>)
     bd0:	2200      	movs	r2, #0
     bd2:	601a      	str	r2, [r3, #0]
     bd4:	4b09      	ldr	r3, [pc, #36]	; (bfc <sark_vic_init+0x38>)
     bd6:	4c0a      	ldr	r4, [pc, #40]	; (c00 <ETH_RX_SIZE>)
     bd8:	601a      	str	r2, [r3, #0]
     bda:	490a      	ldr	r1, [pc, #40]	; (c04 <ETH_RX_SIZE+0x4>)
     bdc:	4b0a      	ldr	r3, [pc, #40]	; (c08 <ETH_RX_SIZE+0x8>)
     bde:	1e58      	subs	r0, r3, #1
     be0:	601a      	str	r2, [r3, #0]
     be2:	38ff      	subs	r0, #255	; 0xff
     be4:	3304      	adds	r3, #4
     be6:	6004      	str	r4, [r0, #0]
     be8:	428b      	cmp	r3, r1
     bea:	d1f8      	bne.n	bde <sark_vic_init+0x1a>
     bec:	4b07      	ldr	r3, [pc, #28]	; (c0c <ETH_RX_SIZE+0xc>)
     bee:	4a08      	ldr	r2, [pc, #32]	; (c10 <ETH_RX_SIZE+0x10>)
     bf0:	601a      	str	r2, [r3, #0]
     bf2:	bd10      	pop	{r4, pc}
     bf4:	2f000014 	.word	0x2f000014
     bf8:	2f00000c 	.word	0x2f00000c
     bfc:	2f000030 	.word	0x2f000030
     c00:	00000108 	.word	0x00000108
     c04:	2f000240 	.word	0x2f000240
     c08:	2f000200 	.word	0x2f000200
     c0c:	2f000034 	.word	0x2f000034
     c10:	0000031c 	.word	0x0000031c

00000c14 <sark_vic_set>:
     c14:	b530      	push	{r4, r5, lr}
     c16:	2810      	cmp	r0, #16
     c18:	d106      	bne.n	c28 <sark_vic_set+0x14>
     c1a:	2020      	movs	r0, #32
     c1c:	61c3      	str	r3, [r0, #28]
     c1e:	2001      	movs	r0, #1
     c20:	4b0a      	ldr	r3, [pc, #40]	; (c4c <sark_vic_set+0x38>)
     c22:	4088      	lsls	r0, r1
     c24:	6018      	str	r0, [r3, #0]
     c26:	e009      	b.n	c3c <sark_vic_set+0x28>
     c28:	4d09      	ldr	r5, [pc, #36]	; (c50 <sark_vic_set+0x3c>)
     c2a:	0084      	lsls	r4, r0, #2
     c2c:	1964      	adds	r4, r4, r5
     c2e:	6023      	str	r3, [r4, #0]
     c30:	4b08      	ldr	r3, [pc, #32]	; (c54 <sark_vic_set+0x40>)
     c32:	0080      	lsls	r0, r0, #2
     c34:	18c0      	adds	r0, r0, r3
     c36:	2320      	movs	r3, #32
     c38:	430b      	orrs	r3, r1
     c3a:	6003      	str	r3, [r0, #0]
     c3c:	2a00      	cmp	r2, #0
     c3e:	d004      	beq.n	c4a <sark_vic_set+0x36>
     c40:	2301      	movs	r3, #1
     c42:	408b      	lsls	r3, r1
     c44:	1c19      	adds	r1, r3, #0
     c46:	4b04      	ldr	r3, [pc, #16]	; (c58 <sark_vic_set+0x44>)
     c48:	6019      	str	r1, [r3, #0]
     c4a:	bd30      	pop	{r4, r5, pc}
     c4c:	2f00000c 	.word	0x2f00000c
     c50:	2f000100 	.word	0x2f000100
     c54:	2f000200 	.word	0x2f000200
     c58:	2f000010 	.word	0x2f000010

00000c5c <v2p_mask>:
     c5c:	2300      	movs	r3, #0
     c5e:	1c1a      	adds	r2, r3, #0
     c60:	2101      	movs	r1, #1
     c62:	b530      	push	{r4, r5, lr}
     c64:	1c0c      	adds	r4, r1, #0
     c66:	409c      	lsls	r4, r3
     c68:	4220      	tst	r0, r4
     c6a:	d005      	beq.n	c78 <v2p_mask+0x1c>
     c6c:	4d05      	ldr	r5, [pc, #20]	; (c84 <v2p_mask+0x28>)
     c6e:	195c      	adds	r4, r3, r5
     c70:	7824      	ldrb	r4, [r4, #0]
     c72:	1c0d      	adds	r5, r1, #0
     c74:	40a5      	lsls	r5, r4
     c76:	432a      	orrs	r2, r5
     c78:	3301      	adds	r3, #1
     c7a:	2b12      	cmp	r3, #18
     c7c:	d1f2      	bne.n	c64 <v2p_mask+0x8>
     c7e:	1c10      	adds	r0, r2, #0
     c80:	bd30      	pop	{r4, r5, pc}
     c82:	46c0      	nop			; (mov r8, r8)
     c84:	e5007fa8 	.word	0xe5007fa8

00000c88 <rtr_mc_set>:
     c88:	b5f7      	push	{r0, r1, r2, r4, r5, r6, r7, lr}
     c8a:	1c1f      	adds	r7, r3, #0
     c8c:	4b14      	ldr	r3, [pc, #80]	; (ce0 <rtr_mc_set+0x58>)
     c8e:	1c05      	adds	r5, r0, #0
     c90:	1c0e      	adds	r6, r1, #0
     c92:	9201      	str	r2, [sp, #4]
     c94:	2000      	movs	r0, #0
     c96:	429d      	cmp	r5, r3
     c98:	d821      	bhi.n	cde <rtr_mc_set+0x56>
     c9a:	4a12      	ldr	r2, [pc, #72]	; (ce4 <rtr_mc_set+0x5c>)
     c9c:	012b      	lsls	r3, r5, #4
     c9e:	6814      	ldr	r4, [r2, #0]
     ca0:	0238      	lsls	r0, r7, #8
     ca2:	18e4      	adds	r4, r4, r3
     ca4:	0a03      	lsrs	r3, r0, #8
     ca6:	6063      	str	r3, [r4, #4]
     ca8:	235c      	movs	r3, #92	; 0x5c
     caa:	781a      	ldrb	r2, [r3, #0]
     cac:	4b0e      	ldr	r3, [pc, #56]	; (ce8 <rtr_mc_set+0x60>)
     cae:	0b80      	lsrs	r0, r0, #14
     cb0:	18d2      	adds	r2, r2, r3
     cb2:	4b0e      	ldr	r3, [pc, #56]	; (cec <rtr_mc_set+0x64>)
     cb4:	00ad      	lsls	r5, r5, #2
     cb6:	681b      	ldr	r3, [r3, #0]
     cb8:	021b      	lsls	r3, r3, #8
     cba:	18d3      	adds	r3, r2, r3
     cbc:	8063      	strh	r3, [r4, #2]
     cbe:	f7ff ffcd 	bl	c5c <v2p_mask>
     cc2:	233f      	movs	r3, #63	; 0x3f
     cc4:	401f      	ands	r7, r3
     cc6:	4b0a      	ldr	r3, [pc, #40]	; (cf0 <rtr_mc_set+0x68>)
     cc8:	9a01      	ldr	r2, [sp, #4]
     cca:	0180      	lsls	r0, r0, #6
     ccc:	4307      	orrs	r7, r0
     cce:	50ef      	str	r7, [r5, r3]
     cd0:	4b08      	ldr	r3, [pc, #32]	; (cf4 <rtr_mc_set+0x6c>)
     cd2:	2001      	movs	r0, #1
     cd4:	50ee      	str	r6, [r5, r3]
     cd6:	4b08      	ldr	r3, [pc, #32]	; (cf8 <rtr_mc_set+0x70>)
     cd8:	60a6      	str	r6, [r4, #8]
     cda:	50ea      	str	r2, [r5, r3]
     cdc:	60e2      	str	r2, [r4, #12]
     cde:	bdfe      	pop	{r1, r2, r3, r4, r5, r6, r7, pc}
     ce0:	000003ff 	.word	0x000003ff
     ce4:	e5007fd4 	.word	0xe5007fd4
     ce8:	ffff8000 	.word	0xffff8000
     cec:	0040036c 	.word	0x0040036c
     cf0:	e1004000 	.word	0xe1004000
     cf4:	e1008000 	.word	0xe1008000
     cf8:	e100c000 	.word	0xe100c000

00000cfc <sark_fiq_han>:
     cfc:	e92d000c 	push	{r2, r3}
     d00:	e3a03202 	mov	r3, #536870912	; 0x20000000
     d04:	e5933014 	ldr	r3, [r3, #20]
     d08:	e59f3010 	ldr	r3, [pc, #16]	; d20 <sark_fiq_han+0x24>
     d0c:	e5932038 	ldr	r2, [r3, #56]	; 0x38
     d10:	e2822001 	add	r2, r2, #1
     d14:	e5832038 	str	r2, [r3, #56]	; 0x38
     d18:	e8bd000c 	pop	{r2, r3}
     d1c:	e25ef004 	subs	pc, lr, #4
     d20:	0040036c 	.word	0x0040036c

00000d24 <sark_xalloc>:
     d24:	b5f7      	push	{r0, r1, r2, r4, r5, r6, r7, lr}
     d26:	1c07      	adds	r7, r0, #0
     d28:	1c15      	adds	r5, r2, #0
     d2a:	2aff      	cmp	r2, #255	; 0xff
     d2c:	d858      	bhi.n	de0 <sark_xalloc+0xbc>
     d2e:	2900      	cmp	r1, #0
     d30:	d100      	bne.n	d34 <sark_xalloc+0x10>
     d32:	e055      	b.n	de0 <sark_xalloc+0xbc>
     d34:	0a1e      	lsrs	r6, r3, #8
     d36:	0798      	lsls	r0, r3, #30
     d38:	d401      	bmi.n	d3e <sark_xalloc+0x1a>
     d3a:	225c      	movs	r2, #92	; 0x5c
     d3c:	7816      	ldrb	r6, [r2, #0]
     d3e:	0236      	lsls	r6, r6, #8
     d40:	1976      	adds	r6, r6, r5
     d42:	2d00      	cmp	r5, #0
     d44:	d005      	beq.n	d52 <sark_xalloc+0x2e>
     d46:	4a27      	ldr	r2, [pc, #156]	; (de4 <sark_xalloc+0xc0>)
     d48:	00b0      	lsls	r0, r6, #2
     d4a:	6812      	ldr	r2, [r2, #0]
     d4c:	5882      	ldr	r2, [r0, r2]
     d4e:	2a00      	cmp	r2, #0
     d50:	d146      	bne.n	de0 <sark_xalloc+0xbc>
     d52:	2203      	movs	r2, #3
     d54:	3103      	adds	r1, #3
     d56:	4391      	bics	r1, r2
     d58:	2201      	movs	r2, #1
     d5a:	3108      	adds	r1, #8
     d5c:	4013      	ands	r3, r2
     d5e:	9101      	str	r1, [sp, #4]
     d60:	9300      	str	r3, [sp, #0]
     d62:	d003      	beq.n	d6c <sark_xalloc+0x48>
     d64:	2006      	movs	r0, #6
     d66:	f7ff ea40 	blx	1e8 <sark_lock_get>
     d6a:	4684      	mov	ip, r0
     d6c:	683c      	ldr	r4, [r7, #0]
     d6e:	2200      	movs	r2, #0
     d70:	e02d      	b.n	dce <sark_xalloc+0xaa>
     d72:	9801      	ldr	r0, [sp, #4]
     d74:	6821      	ldr	r1, [r4, #0]
     d76:	1823      	adds	r3, r4, r0
     d78:	42a3      	cmp	r3, r4
     d7a:	d92a      	bls.n	dd2 <sark_xalloc+0xae>
     d7c:	428b      	cmp	r3, r1
     d7e:	d902      	bls.n	d86 <sark_xalloc+0x62>
     d80:	1c22      	adds	r2, r4, #0
     d82:	6864      	ldr	r4, [r4, #4]
     d84:	e023      	b.n	dce <sark_xalloc+0xaa>
     d86:	1c18      	adds	r0, r3, #0
     d88:	3008      	adds	r0, #8
     d8a:	4281      	cmp	r1, r0
     d8c:	d904      	bls.n	d98 <sark_xalloc+0x74>
     d8e:	6019      	str	r1, [r3, #0]
     d90:	6861      	ldr	r1, [r4, #4]
     d92:	6059      	str	r1, [r3, #4]
     d94:	6023      	str	r3, [r4, #0]
     d96:	6063      	str	r3, [r4, #4]
     d98:	6863      	ldr	r3, [r4, #4]
     d9a:	2a00      	cmp	r2, #0
     d9c:	d001      	beq.n	da2 <sark_xalloc+0x7e>
     d9e:	6053      	str	r3, [r2, #4]
     da0:	e000      	b.n	da4 <sark_xalloc+0x80>
     da2:	603b      	str	r3, [r7, #0]
     da4:	9a00      	ldr	r2, [sp, #0]
     da6:	2a00      	cmp	r2, #0
     da8:	d003      	beq.n	db2 <sark_xalloc+0x8e>
     daa:	4660      	mov	r0, ip
     dac:	2106      	movs	r1, #6
     dae:	f7ff ea2e 	blx	20c <sark_lock_free>
     db2:	480d      	ldr	r0, [pc, #52]	; (de8 <sark_xalloc+0xc4>)
     db4:	1833      	adds	r3, r6, r0
     db6:	6063      	str	r3, [r4, #4]
     db8:	2d00      	cmp	r5, #0
     dba:	d005      	beq.n	dc8 <sark_xalloc+0xa4>
     dbc:	4b09      	ldr	r3, [pc, #36]	; (de4 <sark_xalloc+0xc0>)
     dbe:	1c22      	adds	r2, r4, #0
     dc0:	681b      	ldr	r3, [r3, #0]
     dc2:	00b6      	lsls	r6, r6, #2
     dc4:	3208      	adds	r2, #8
     dc6:	50f2      	str	r2, [r6, r3]
     dc8:	1c20      	adds	r0, r4, #0
     dca:	3008      	adds	r0, #8
     dcc:	e009      	b.n	de2 <sark_xalloc+0xbe>
     dce:	2c00      	cmp	r4, #0
     dd0:	d1cf      	bne.n	d72 <sark_xalloc+0x4e>
     dd2:	9900      	ldr	r1, [sp, #0]
     dd4:	2900      	cmp	r1, #0
     dd6:	d003      	beq.n	de0 <sark_xalloc+0xbc>
     dd8:	4660      	mov	r0, ip
     dda:	2106      	movs	r1, #6
     ddc:	f7ff ea16 	blx	20c <sark_lock_free>
     de0:	2000      	movs	r0, #0
     de2:	bdfe      	pop	{r1, r2, r3, r4, r5, r6, r7, pc}
     de4:	e5007fdc 	.word	0xe5007fdc
     de8:	ffff0000 	.word	0xffff0000

00000dec <sark_alloc>:
     dec:	4a04      	ldr	r2, [pc, #16]	; (e00 <sark_alloc+0x14>)
     dee:	b508      	push	{r3, lr}
     df0:	1c03      	adds	r3, r0, #0
     df2:	6990      	ldr	r0, [r2, #24]
     df4:	2200      	movs	r2, #0
     df6:	4359      	muls	r1, r3
     df8:	1c13      	adds	r3, r2, #0
     dfa:	f7ff ff93 	bl	d24 <sark_xalloc>
     dfe:	bd08      	pop	{r3, pc}
     e00:	0040036c 	.word	0x0040036c

00000e04 <sark_heap_init>:
     e04:	1c03      	adds	r3, r0, #0
     e06:	330c      	adds	r3, #12
     e08:	3908      	subs	r1, #8
     e0a:	6043      	str	r3, [r0, #4]
     e0c:	6003      	str	r3, [r0, #0]
     e0e:	2300      	movs	r3, #0
     e10:	6081      	str	r1, [r0, #8]
     e12:	60c1      	str	r1, [r0, #12]
     e14:	6103      	str	r3, [r0, #16]
     e16:	600b      	str	r3, [r1, #0]
     e18:	604b      	str	r3, [r1, #4]
     e1a:	4770      	bx	lr

00000e1c <rtr_alloc_id>:
     e1c:	b5f7      	push	{r0, r1, r2, r4, r5, r6, r7, lr}
     e1e:	2400      	movs	r4, #0
     e20:	1c06      	adds	r6, r0, #0
     e22:	9101      	str	r1, [sp, #4]
     e24:	42a0      	cmp	r0, r4
     e26:	d02f      	beq.n	e88 <rtr_alloc_id+0x6c>
     e28:	4b18      	ldr	r3, [pc, #96]	; (e8c <rtr_alloc_id+0x70>)
     e2a:	2007      	movs	r0, #7
     e2c:	681d      	ldr	r5, [r3, #0]
     e2e:	f7ff e9dc 	blx	1e8 <sark_lock_get>
     e32:	4b17      	ldr	r3, [pc, #92]	; (e90 <rtr_alloc_id+0x74>)
     e34:	2100      	movs	r1, #0
     e36:	881c      	ldrh	r4, [r3, #0]
     e38:	469c      	mov	ip, r3
     e3a:	e020      	b.n	e7e <rtr_alloc_id+0x62>
     e3c:	0123      	lsls	r3, r4, #4
     e3e:	18eb      	adds	r3, r5, r3
     e40:	881f      	ldrh	r7, [r3, #0]
     e42:	19a2      	adds	r2, r4, r6
     e44:	42ba      	cmp	r2, r7
     e46:	d902      	bls.n	e4e <rtr_alloc_id+0x32>
     e48:	1c21      	adds	r1, r4, #0
     e4a:	885c      	ldrh	r4, [r3, #2]
     e4c:	e017      	b.n	e7e <rtr_alloc_id+0x62>
     e4e:	42ba      	cmp	r2, r7
     e50:	d206      	bcs.n	e60 <rtr_alloc_id+0x44>
     e52:	0116      	lsls	r6, r2, #4
     e54:	19ae      	adds	r6, r5, r6
     e56:	8037      	strh	r7, [r6, #0]
     e58:	885f      	ldrh	r7, [r3, #2]
     e5a:	8077      	strh	r7, [r6, #2]
     e5c:	801a      	strh	r2, [r3, #0]
     e5e:	805a      	strh	r2, [r3, #2]
     e60:	885a      	ldrh	r2, [r3, #2]
     e62:	2900      	cmp	r1, #0
     e64:	d003      	beq.n	e6e <rtr_alloc_id+0x52>
     e66:	0109      	lsls	r1, r1, #4
     e68:	186d      	adds	r5, r5, r1
     e6a:	806a      	strh	r2, [r5, #2]
     e6c:	e001      	b.n	e72 <rtr_alloc_id+0x56>
     e6e:	4661      	mov	r1, ip
     e70:	800a      	strh	r2, [r1, #0]
     e72:	2280      	movs	r2, #128	; 0x80
     e74:	9901      	ldr	r1, [sp, #4]
     e76:	0212      	lsls	r2, r2, #8
     e78:	430a      	orrs	r2, r1
     e7a:	805a      	strh	r2, [r3, #2]
     e7c:	e001      	b.n	e82 <rtr_alloc_id+0x66>
     e7e:	2c00      	cmp	r4, #0
     e80:	d1dc      	bne.n	e3c <rtr_alloc_id+0x20>
     e82:	2107      	movs	r1, #7
     e84:	f7ff e9c2 	blx	20c <sark_lock_free>
     e88:	1c20      	adds	r0, r4, #0
     e8a:	bdfe      	pop	{r1, r2, r3, r4, r5, r6, r7, pc}
     e8c:	e5007fd4 	.word	0xe5007fd4
     e90:	e5007fe0 	.word	0xe5007fe0

00000e94 <rtr_alloc>:
     e94:	b508      	push	{r3, lr}
     e96:	235c      	movs	r3, #92	; 0x5c
     e98:	7819      	ldrb	r1, [r3, #0]
     e9a:	f7ff ffbf 	bl	e1c <rtr_alloc_id>
     e9e:	bd08      	pop	{r3, pc}

00000ea0 <io_buf_init>:
     ea0:	b538      	push	{r3, r4, r5, lr}
     ea2:	4d0c      	ldr	r5, [pc, #48]	; (ed4 <io_buf_init+0x34>)
     ea4:	4b0c      	ldr	r3, [pc, #48]	; (ed8 <io_buf_init+0x38>)
     ea6:	6d29      	ldr	r1, [r5, #80]	; 0x50
     ea8:	6818      	ldr	r0, [r3, #0]
     eaa:	3110      	adds	r1, #16
     eac:	2200      	movs	r2, #0
     eae:	2301      	movs	r3, #1
     eb0:	f7ff ff38 	bl	d24 <sark_xalloc>
     eb4:	1e04      	subs	r4, r0, #0
     eb6:	d102      	bne.n	ebe <io_buf_init+0x1e>
     eb8:	200e      	movs	r0, #14
     eba:	f7ff f937 	bl	12c <rt_error>
     ebe:	69eb      	ldr	r3, [r5, #28]
     ec0:	6063      	str	r3, [r4, #4]
     ec2:	4a06      	ldr	r2, [pc, #24]	; (edc <io_buf_init+0x3c>)
     ec4:	8b2b      	ldrh	r3, [r5, #24]
     ec6:	60a3      	str	r3, [r4, #8]
     ec8:	2300      	movs	r3, #0
     eca:	1c20      	adds	r0, r4, #0
     ecc:	6023      	str	r3, [r4, #0]
     ece:	6013      	str	r3, [r2, #0]
     ed0:	60e3      	str	r3, [r4, #12]
     ed2:	bd38      	pop	{r3, r4, r5, pc}
     ed4:	e5007f00 	.word	0xe5007f00
     ed8:	e5007fd0 	.word	0xe5007fd0
     edc:	00400018 	.word	0x00400018

00000ee0 <io_put_char>:
     ee0:	b570      	push	{r4, r5, r6, lr}
     ee2:	1c0d      	adds	r5, r1, #0
     ee4:	2803      	cmp	r0, #3
     ee6:	d907      	bls.n	ef8 <io_put_char+0x18>
     ee8:	4a34      	ldr	r2, [pc, #208]	; (fbc <RTR_TST2+0xb8>)
     eea:	6813      	ldr	r3, [r2, #0]
     eec:	54c1      	strb	r1, [r0, r3]
     eee:	3301      	adds	r3, #1
     ef0:	6013      	str	r3, [r2, #0]
     ef2:	2200      	movs	r2, #0
     ef4:	54c2      	strb	r2, [r0, r3]
     ef6:	e060      	b.n	fba <RTR_TST2+0xb6>
     ef8:	2800      	cmp	r0, #0
     efa:	d13a      	bne.n	f72 <RTR_TST2+0x6e>
     efc:	4b30      	ldr	r3, [pc, #192]	; (fc0 <RTR_TST2+0xbc>)
     efe:	681b      	ldr	r3, [r3, #0]
     f00:	2b00      	cmp	r3, #0
     f02:	d11d      	bne.n	f40 <RTR_TST2+0x3c>
     f04:	2001      	movs	r0, #1
     f06:	2192      	movs	r1, #146	; 0x92
     f08:	4081      	lsls	r1, r0
     f0a:	f7ff ff6f 	bl	dec <sark_alloc>
     f0e:	1e04      	subs	r4, r0, #0
     f10:	d102      	bne.n	f18 <RTR_TST2+0x14>
     f12:	200e      	movs	r0, #14
     f14:	f7ff f90a 	bl	12c <rt_error>
     f18:	2307      	movs	r3, #7
     f1a:	7223      	strb	r3, [r4, #8]
     f1c:	2300      	movs	r3, #0
     f1e:	7263      	strb	r3, [r4, #9]
     f20:	23ff      	movs	r3, #255	; 0xff
     f22:	72a3      	strb	r3, [r4, #10]
     f24:	4b27      	ldr	r3, [pc, #156]	; (fc4 <RTR_TST2+0xc0>)
     f26:	889a      	ldrh	r2, [r3, #4]
     f28:	81a2      	strh	r2, [r4, #12]
     f2a:	4a27      	ldr	r2, [pc, #156]	; (fc8 <RTR_TST2+0xc4>)
     f2c:	6812      	ldr	r2, [r2, #0]
     f2e:	72e2      	strb	r2, [r4, #11]
     f30:	881b      	ldrh	r3, [r3, #0]
     f32:	81e3      	strh	r3, [r4, #14]
     f34:	2340      	movs	r3, #64	; 0x40
     f36:	8223      	strh	r3, [r4, #16]
     f38:	230c      	movs	r3, #12
     f3a:	80a3      	strh	r3, [r4, #4]
     f3c:	4b20      	ldr	r3, [pc, #128]	; (fc0 <RTR_TST2+0xbc>)
     f3e:	601c      	str	r4, [r3, #0]
     f40:	4b1f      	ldr	r3, [pc, #124]	; (fc0 <RTR_TST2+0xbc>)
     f42:	6818      	ldr	r0, [r3, #0]
     f44:	8883      	ldrh	r3, [r0, #4]
     f46:	18c2      	adds	r2, r0, r3
     f48:	3301      	adds	r3, #1
     f4a:	041b      	lsls	r3, r3, #16
     f4c:	0c1b      	lsrs	r3, r3, #16
     f4e:	7215      	strb	r5, [r2, #8]
     f50:	8083      	strh	r3, [r0, #4]
     f52:	2d00      	cmp	r5, #0
     f54:	d005      	beq.n	f62 <RTR_TST2+0x5e>
     f56:	2d0a      	cmp	r5, #10
     f58:	d003      	beq.n	f62 <RTR_TST2+0x5e>
     f5a:	2286      	movs	r2, #134	; 0x86
     f5c:	0052      	lsls	r2, r2, #1
     f5e:	4293      	cmp	r3, r2
     f60:	d12b      	bne.n	fba <RTR_TST2+0xb6>
     f62:	210a      	movs	r1, #10
     f64:	f7ff fc18 	bl	798 <sark_msg_send>
     f68:	4b15      	ldr	r3, [pc, #84]	; (fc0 <RTR_TST2+0xbc>)
     f6a:	220c      	movs	r2, #12
     f6c:	681b      	ldr	r3, [r3, #0]
     f6e:	809a      	strh	r2, [r3, #4]
     f70:	e023      	b.n	fba <RTR_TST2+0xb6>
     f72:	2802      	cmp	r0, #2
     f74:	d121      	bne.n	fba <RTR_TST2+0xb6>
     f76:	4e15      	ldr	r6, [pc, #84]	; (fcc <RTR_TST2+0xc8>)
     f78:	6833      	ldr	r3, [r6, #0]
     f7a:	2b00      	cmp	r3, #0
     f7c:	d105      	bne.n	f8a <RTR_TST2+0x86>
     f7e:	4b12      	ldr	r3, [pc, #72]	; (fc8 <RTR_TST2+0xc4>)
     f80:	69dc      	ldr	r4, [r3, #28]
     f82:	f7ff ff8d 	bl	ea0 <io_buf_init>
     f86:	65a0      	str	r0, [r4, #88]	; 0x58
     f88:	6030      	str	r0, [r6, #0]
     f8a:	4a11      	ldr	r2, [pc, #68]	; (fd0 <RTR_TST2+0xcc>)
     f8c:	6834      	ldr	r4, [r6, #0]
     f8e:	6813      	ldr	r3, [r2, #0]
     f90:	18e1      	adds	r1, r4, r3
     f92:	3301      	adds	r3, #1
     f94:	6013      	str	r3, [r2, #0]
     f96:	4a0b      	ldr	r2, [pc, #44]	; (fc4 <RTR_TST2+0xc0>)
     f98:	740d      	strb	r5, [r1, #16]
     f9a:	6d12      	ldr	r2, [r2, #80]	; 0x50
     f9c:	4293      	cmp	r3, r2
     f9e:	d107      	bne.n	fb0 <RTR_TST2+0xac>
     fa0:	60e3      	str	r3, [r4, #12]
     fa2:	f7ff ff7d 	bl	ea0 <io_buf_init>
     fa6:	6833      	ldr	r3, [r6, #0]
     fa8:	6020      	str	r0, [r4, #0]
     faa:	681b      	ldr	r3, [r3, #0]
     fac:	6033      	str	r3, [r6, #0]
     fae:	e004      	b.n	fba <RTR_TST2+0xb6>
     fb0:	2d00      	cmp	r5, #0
     fb2:	d001      	beq.n	fb8 <RTR_TST2+0xb4>
     fb4:	2d0a      	cmp	r5, #10
     fb6:	d100      	bne.n	fba <RTR_TST2+0xb6>
     fb8:	60e3      	str	r3, [r4, #12]
     fba:	bd70      	pop	{r4, r5, r6, pc}
     fbc:	0040001c 	.word	0x0040001c
     fc0:	00400010 	.word	0x00400010
     fc4:	e5007f00 	.word	0xe5007f00
     fc8:	0040036c 	.word	0x0040036c
     fcc:	00400014 	.word	0x00400014
     fd0:	00400018 	.word	0x00400018

00000fd4 <io_put_fixed>:
     fd4:	b5f0      	push	{r4, r5, r6, r7, lr}
     fd6:	b08d      	sub	sp, #52	; 0x34
     fd8:	9001      	str	r0, [sp, #4]
     fda:	1c15      	adds	r5, r2, #0
     fdc:	2b0c      	cmp	r3, #12
     fde:	d900      	bls.n	fe2 <io_put_fixed+0xe>
     fe0:	230c      	movs	r3, #12
     fe2:	1c0a      	adds	r2, r1, #0
     fe4:	2400      	movs	r4, #0
     fe6:	e008      	b.n	ffa <io_put_fixed+0x26>
     fe8:	0c17      	lsrs	r7, r2, #16
     fea:	3730      	adds	r7, #48	; 0x30
     fec:	46bc      	mov	ip, r7
     fee:	a805      	add	r0, sp, #20
     ff0:	3401      	adds	r4, #1
     ff2:	18c7      	adds	r7, r0, r3
     ff4:	4266      	negs	r6, r4
     ff6:	4660      	mov	r0, ip
     ff8:	55b8      	strb	r0, [r7, r6]
     ffa:	0412      	lsls	r2, r2, #16
     ffc:	0c12      	lsrs	r2, r2, #16
     ffe:	200a      	movs	r0, #10
    1000:	4342      	muls	r2, r0
    1002:	429c      	cmp	r4, r3
    1004:	d1f0      	bne.n	fe8 <io_put_fixed+0x14>
    1006:	0c12      	lsrs	r2, r2, #16
    1008:	2004      	movs	r0, #4
    100a:	4290      	cmp	r0, r2
    100c:	4180      	sbcs	r0, r0
    100e:	2601      	movs	r6, #1
    1010:	4240      	negs	r0, r0
    1012:	2200      	movs	r2, #0
    1014:	46b4      	mov	ip, r6
    1016:	2730      	movs	r7, #48	; 0x30
    1018:	e00a      	b.n	1030 <SV_SIZE+0x30>
    101a:	a805      	add	r0, sp, #20
    101c:	5c16      	ldrb	r6, [r2, r0]
    101e:	2e38      	cmp	r6, #56	; 0x38
    1020:	d902      	bls.n	1028 <SV_SIZE+0x28>
    1022:	5417      	strb	r7, [r2, r0]
    1024:	2001      	movs	r0, #1
    1026:	e002      	b.n	102e <SV_SIZE+0x2e>
    1028:	3601      	adds	r6, #1
    102a:	5416      	strb	r6, [r2, r0]
    102c:	2000      	movs	r0, #0
    102e:	3201      	adds	r2, #1
    1030:	429a      	cmp	r2, r3
    1032:	d202      	bcs.n	103a <SV_SIZE+0x3a>
    1034:	4666      	mov	r6, ip
    1036:	4230      	tst	r0, r6
    1038:	d1ef      	bne.n	101a <SV_SIZE+0x1a>
    103a:	2b00      	cmp	r3, #0
    103c:	d003      	beq.n	1046 <SV_SIZE+0x46>
    103e:	242e      	movs	r4, #46	; 0x2e
    1040:	aa05      	add	r2, sp, #20
    1042:	54d4      	strb	r4, [r2, r3]
    1044:	1c5c      	adds	r4, r3, #1
    1046:	0c09      	lsrs	r1, r1, #16
    1048:	1841      	adds	r1, r0, r1
    104a:	a803      	add	r0, sp, #12
    104c:	f7ff e936 	blx	2bc <sark_div10>
    1050:	9a04      	ldr	r2, [sp, #16]
    1052:	9903      	ldr	r1, [sp, #12]
    1054:	ab05      	add	r3, sp, #20
    1056:	3230      	adds	r2, #48	; 0x30
    1058:	54e2      	strb	r2, [r4, r3]
    105a:	1c66      	adds	r6, r4, #1
    105c:	2900      	cmp	r1, #0
    105e:	d001      	beq.n	1064 <SV_SIZE+0x64>
    1060:	1c34      	adds	r4, r6, #0
    1062:	e7f2      	b.n	104a <SV_SIZE+0x4a>
    1064:	9813      	ldr	r0, [sp, #76]	; 0x4c
    1066:	2800      	cmp	r0, #0
    1068:	d008      	beq.n	107c <SV_SIZE+0x7c>
    106a:	222d      	movs	r2, #45	; 0x2d
    106c:	559a      	strb	r2, [r3, r6]
    106e:	1ca6      	adds	r6, r4, #2
    1070:	e004      	b.n	107c <SV_SIZE+0x7c>
    1072:	9801      	ldr	r0, [sp, #4]
    1074:	9912      	ldr	r1, [sp, #72]	; 0x48
    1076:	f7ff ff33 	bl	ee0 <io_put_char>
    107a:	3d01      	subs	r5, #1
    107c:	1c73      	adds	r3, r6, #1
    107e:	429d      	cmp	r5, r3
    1080:	d8f7      	bhi.n	1072 <SV_SIZE+0x72>
    1082:	3e01      	subs	r6, #1
    1084:	ab05      	add	r3, sp, #20
    1086:	5cf1      	ldrb	r1, [r6, r3]
    1088:	9801      	ldr	r0, [sp, #4]
    108a:	f7ff ff29 	bl	ee0 <io_put_char>
    108e:	2e00      	cmp	r6, #0
    1090:	d1f7      	bne.n	1082 <SV_SIZE+0x82>
    1092:	b00d      	add	sp, #52	; 0x34
    1094:	bdf0      	pop	{r4, r5, r6, r7, pc}
	...

00001098 <io_printf>:
    1098:	b40e      	push	{r1, r2, r3}
    109a:	b5f0      	push	{r4, r5, r6, r7, lr}
    109c:	b08c      	sub	sp, #48	; 0x30
    109e:	1c04      	adds	r4, r0, #0
    10a0:	9d11      	ldr	r5, [sp, #68]	; 0x44
    10a2:	2803      	cmp	r0, #3
    10a4:	d100      	bne.n	10a8 <io_printf+0x10>
    10a6:	e145      	b.n	1334 <io_printf+0x29c>
    10a8:	d903      	bls.n	10b2 <io_printf+0x1a>
    10aa:	4aa5      	ldr	r2, [pc, #660]	; (1340 <io_printf+0x2a8>)
    10ac:	2300      	movs	r3, #0
    10ae:	7003      	strb	r3, [r0, #0]
    10b0:	6013      	str	r3, [r2, #0]
    10b2:	ab12      	add	r3, sp, #72	; 0x48
    10b4:	9305      	str	r3, [sp, #20]
    10b6:	7829      	ldrb	r1, [r5, #0]
    10b8:	2900      	cmp	r1, #0
    10ba:	d100      	bne.n	10be <io_printf+0x26>
    10bc:	e13a      	b.n	1334 <io_printf+0x29c>
    10be:	2925      	cmp	r1, #37	; 0x25
    10c0:	d001      	beq.n	10c6 <io_printf+0x2e>
    10c2:	3501      	adds	r5, #1
    10c4:	e053      	b.n	116e <io_printf+0xd6>
    10c6:	7869      	ldrb	r1, [r5, #1]
    10c8:	3502      	adds	r5, #2
    10ca:	2900      	cmp	r1, #0
    10cc:	d100      	bne.n	10d0 <io_printf+0x38>
    10ce:	e131      	b.n	1334 <io_printf+0x29c>
    10d0:	2930      	cmp	r1, #48	; 0x30
    10d2:	d002      	beq.n	10da <io_printf+0x42>
    10d4:	2020      	movs	r0, #32
    10d6:	9003      	str	r0, [sp, #12]
    10d8:	e000      	b.n	10dc <io_printf+0x44>
    10da:	9103      	str	r1, [sp, #12]
    10dc:	2600      	movs	r6, #0
    10de:	220a      	movs	r2, #10
    10e0:	e007      	b.n	10f2 <io_printf+0x5a>
    10e2:	4356      	muls	r6, r2
    10e4:	1876      	adds	r6, r6, r1
    10e6:	7829      	ldrb	r1, [r5, #0]
    10e8:	3e30      	subs	r6, #48	; 0x30
    10ea:	3501      	adds	r5, #1
    10ec:	2900      	cmp	r1, #0
    10ee:	d100      	bne.n	10f2 <io_printf+0x5a>
    10f0:	e120      	b.n	1334 <io_printf+0x29c>
    10f2:	1c0b      	adds	r3, r1, #0
    10f4:	3b30      	subs	r3, #48	; 0x30
    10f6:	2b09      	cmp	r3, #9
    10f8:	d9f3      	bls.n	10e2 <io_printf+0x4a>
    10fa:	1c37      	adds	r7, r6, #0
    10fc:	2306      	movs	r3, #6
    10fe:	292e      	cmp	r1, #46	; 0x2e
    1100:	d110      	bne.n	1124 <io_printf+0x8c>
    1102:	7829      	ldrb	r1, [r5, #0]
    1104:	2300      	movs	r3, #0
    1106:	3501      	adds	r5, #1
    1108:	200a      	movs	r0, #10
    110a:	e004      	b.n	1116 <io_printf+0x7e>
    110c:	4343      	muls	r3, r0
    110e:	185b      	adds	r3, r3, r1
    1110:	3b30      	subs	r3, #48	; 0x30
    1112:	7829      	ldrb	r1, [r5, #0]
    1114:	3501      	adds	r5, #1
    1116:	1c0a      	adds	r2, r1, #0
    1118:	3a30      	subs	r2, #48	; 0x30
    111a:	2a09      	cmp	r2, #9
    111c:	d9f6      	bls.n	110c <io_printf+0x74>
    111e:	2900      	cmp	r1, #0
    1120:	d100      	bne.n	1124 <io_printf+0x8c>
    1122:	e107      	b.n	1334 <io_printf+0x29c>
    1124:	296b      	cmp	r1, #107	; 0x6b
    1126:	d100      	bne.n	112a <io_printf+0x92>
    1128:	e0b0      	b.n	128c <io_printf+0x1f4>
    112a:	d80d      	bhi.n	1148 <io_printf+0xb0>
    112c:	2963      	cmp	r1, #99	; 0x63
    112e:	d01a      	beq.n	1166 <io_printf+0xce>
    1130:	d805      	bhi.n	113e <io_printf+0xa6>
    1132:	294b      	cmp	r1, #75	; 0x4b
    1134:	d100      	bne.n	1138 <io_printf+0xa0>
    1136:	e09a      	b.n	126e <io_printf+0x1d6>
    1138:	2952      	cmp	r1, #82	; 0x52
    113a:	d118      	bne.n	116e <io_printf+0xd6>
    113c:	e09e      	b.n	127c <io_printf+0x1e4>
    113e:	2964      	cmp	r1, #100	; 0x64
    1140:	d036      	beq.n	11b0 <io_printf+0x118>
    1142:	2966      	cmp	r1, #102	; 0x66
    1144:	d113      	bne.n	116e <io_printf+0xd6>
    1146:	e092      	b.n	126e <io_printf+0x1d6>
    1148:	2975      	cmp	r1, #117	; 0x75
    114a:	d066      	beq.n	121a <io_printf+0x182>
    114c:	d805      	bhi.n	115a <io_printf+0xc2>
    114e:	2972      	cmp	r1, #114	; 0x72
    1150:	d100      	bne.n	1154 <io_printf+0xbc>
    1152:	e09b      	b.n	128c <io_printf+0x1f4>
    1154:	2973      	cmp	r1, #115	; 0x73
    1156:	d10a      	bne.n	116e <io_printf+0xd6>
    1158:	e00d      	b.n	1176 <io_printf+0xde>
    115a:	2978      	cmp	r1, #120	; 0x78
    115c:	d100      	bne.n	1160 <io_printf+0xc8>
    115e:	e0a6      	b.n	12ae <io_printf+0x216>
    1160:	297a      	cmp	r1, #122	; 0x7a
    1162:	d104      	bne.n	116e <io_printf+0xd6>
    1164:	e0ce      	b.n	1304 <io_printf+0x26c>
    1166:	9b05      	ldr	r3, [sp, #20]
    1168:	6819      	ldr	r1, [r3, #0]
    116a:	1d1a      	adds	r2, r3, #4
    116c:	9205      	str	r2, [sp, #20]
    116e:	1c20      	adds	r0, r4, #0
    1170:	f7ff feb6 	bl	ee0 <io_put_char>
    1174:	e79f      	b.n	10b6 <io_printf+0x1e>
    1176:	9b05      	ldr	r3, [sp, #20]
    1178:	681e      	ldr	r6, [r3, #0]
    117a:	1d1a      	adds	r2, r3, #4
    117c:	1c33      	adds	r3, r6, #0
    117e:	9205      	str	r2, [sp, #20]
    1180:	781a      	ldrb	r2, [r3, #0]
    1182:	1b99      	subs	r1, r3, r6
    1184:	9103      	str	r1, [sp, #12]
    1186:	3301      	adds	r3, #1
    1188:	2a00      	cmp	r2, #0
    118a:	d1f9      	bne.n	1180 <io_printf+0xe8>
    118c:	e004      	b.n	1198 <io_printf+0x100>
    118e:	1c20      	adds	r0, r4, #0
    1190:	2120      	movs	r1, #32
    1192:	f7ff fea5 	bl	ee0 <io_put_char>
    1196:	3f01      	subs	r7, #1
    1198:	9a03      	ldr	r2, [sp, #12]
    119a:	4297      	cmp	r7, r2
    119c:	dcf7      	bgt.n	118e <io_printf+0xf6>
    119e:	e003      	b.n	11a8 <io_printf+0x110>
    11a0:	1c20      	adds	r0, r4, #0
    11a2:	3601      	adds	r6, #1
    11a4:	f7ff fe9c 	bl	ee0 <io_put_char>
    11a8:	7831      	ldrb	r1, [r6, #0]
    11aa:	2900      	cmp	r1, #0
    11ac:	d1f8      	bne.n	11a0 <io_printf+0x108>
    11ae:	e782      	b.n	10b6 <io_printf+0x1e>
    11b0:	9b05      	ldr	r3, [sp, #20]
    11b2:	6819      	ldr	r1, [r3, #0]
    11b4:	1d1a      	adds	r2, r3, #4
    11b6:	2300      	movs	r3, #0
    11b8:	9205      	str	r2, [sp, #20]
    11ba:	9303      	str	r3, [sp, #12]
    11bc:	4299      	cmp	r1, r3
    11be:	da02      	bge.n	11c6 <io_printf+0x12e>
    11c0:	202d      	movs	r0, #45	; 0x2d
    11c2:	4249      	negs	r1, r1
    11c4:	9003      	str	r0, [sp, #12]
    11c6:	2700      	movs	r7, #0
    11c8:	a806      	add	r0, sp, #24
    11ca:	f7ff e878 	blx	2bc <sark_div10>
    11ce:	9a07      	ldr	r2, [sp, #28]
    11d0:	9906      	ldr	r1, [sp, #24]
    11d2:	ab08      	add	r3, sp, #32
    11d4:	3230      	adds	r2, #48	; 0x30
    11d6:	54fa      	strb	r2, [r7, r3]
    11d8:	3701      	adds	r7, #1
    11da:	2900      	cmp	r1, #0
    11dc:	d1f4      	bne.n	11c8 <io_printf+0x130>
    11de:	e001      	b.n	11e4 <io_printf+0x14c>
    11e0:	2f00      	cmp	r7, #0
    11e2:	d003      	beq.n	11ec <io_printf+0x154>
    11e4:	3f01      	subs	r7, #1
    11e6:	5cfa      	ldrb	r2, [r7, r3]
    11e8:	2a30      	cmp	r2, #48	; 0x30
    11ea:	d0f9      	beq.n	11e0 <io_printf+0x148>
    11ec:	9903      	ldr	r1, [sp, #12]
    11ee:	2900      	cmp	r1, #0
    11f0:	d007      	beq.n	1202 <io_printf+0x16a>
    11f2:	3701      	adds	r7, #1
    11f4:	55d9      	strb	r1, [r3, r7]
    11f6:	e004      	b.n	1202 <io_printf+0x16a>
    11f8:	1c20      	adds	r0, r4, #0
    11fa:	2120      	movs	r1, #32
    11fc:	f7ff fe70 	bl	ee0 <io_put_char>
    1200:	3e01      	subs	r6, #1
    1202:	1c7b      	adds	r3, r7, #1
    1204:	429e      	cmp	r6, r3
    1206:	d8f7      	bhi.n	11f8 <io_printf+0x160>
    1208:	ab08      	add	r3, sp, #32
    120a:	5cf9      	ldrb	r1, [r7, r3]
    120c:	1c20      	adds	r0, r4, #0
    120e:	3f01      	subs	r7, #1
    1210:	f7ff fe66 	bl	ee0 <io_put_char>
    1214:	1c79      	adds	r1, r7, #1
    1216:	d1f7      	bne.n	1208 <io_printf+0x170>
    1218:	e74d      	b.n	10b6 <io_printf+0x1e>
    121a:	9b05      	ldr	r3, [sp, #20]
    121c:	2700      	movs	r7, #0
    121e:	6819      	ldr	r1, [r3, #0]
    1220:	1d1a      	adds	r2, r3, #4
    1222:	9205      	str	r2, [sp, #20]
    1224:	a806      	add	r0, sp, #24
    1226:	f7ff e84a 	blx	2bc <sark_div10>
    122a:	9a07      	ldr	r2, [sp, #28]
    122c:	9906      	ldr	r1, [sp, #24]
    122e:	3230      	adds	r2, #48	; 0x30
    1230:	ab08      	add	r3, sp, #32
    1232:	54fa      	strb	r2, [r7, r3]
    1234:	3701      	adds	r7, #1
    1236:	2900      	cmp	r1, #0
    1238:	d1f4      	bne.n	1224 <io_printf+0x18c>
    123a:	e001      	b.n	1240 <io_printf+0x1a8>
    123c:	2f00      	cmp	r7, #0
    123e:	d00a      	beq.n	1256 <io_printf+0x1be>
    1240:	3f01      	subs	r7, #1
    1242:	ab08      	add	r3, sp, #32
    1244:	5cfb      	ldrb	r3, [r7, r3]
    1246:	2b30      	cmp	r3, #48	; 0x30
    1248:	d105      	bne.n	1256 <io_printf+0x1be>
    124a:	e7f7      	b.n	123c <io_printf+0x1a4>
    124c:	1c20      	adds	r0, r4, #0
    124e:	9903      	ldr	r1, [sp, #12]
    1250:	f7ff fe46 	bl	ee0 <io_put_char>
    1254:	3e01      	subs	r6, #1
    1256:	1c7b      	adds	r3, r7, #1
    1258:	429e      	cmp	r6, r3
    125a:	d8f7      	bhi.n	124c <io_printf+0x1b4>
    125c:	ab08      	add	r3, sp, #32
    125e:	5cf9      	ldrb	r1, [r7, r3]
    1260:	1c20      	adds	r0, r4, #0
    1262:	3f01      	subs	r7, #1
    1264:	f7ff fe3c 	bl	ee0 <io_put_char>
    1268:	1c7a      	adds	r2, r7, #1
    126a:	d1f7      	bne.n	125c <io_printf+0x1c4>
    126c:	e723      	b.n	10b6 <io_printf+0x1e>
    126e:	9a05      	ldr	r2, [sp, #20]
    1270:	9803      	ldr	r0, [sp, #12]
    1272:	1d11      	adds	r1, r2, #4
    1274:	9105      	str	r1, [sp, #20]
    1276:	6811      	ldr	r1, [r2, #0]
    1278:	9000      	str	r0, [sp, #0]
    127a:	e005      	b.n	1288 <io_printf+0x1f0>
    127c:	9a05      	ldr	r2, [sp, #20]
    127e:	1d11      	adds	r1, r2, #4
    1280:	9105      	str	r1, [sp, #20]
    1282:	6811      	ldr	r1, [r2, #0]
    1284:	9a03      	ldr	r2, [sp, #12]
    1286:	9200      	str	r2, [sp, #0]
    1288:	2200      	movs	r2, #0
    128a:	e00a      	b.n	12a2 <io_printf+0x20a>
    128c:	9a05      	ldr	r2, [sp, #20]
    128e:	1d11      	adds	r1, r2, #4
    1290:	6812      	ldr	r2, [r2, #0]
    1292:	9105      	str	r1, [sp, #20]
    1294:	17d0      	asrs	r0, r2, #31
    1296:	1811      	adds	r1, r2, r0
    1298:	4041      	eors	r1, r0
    129a:	0049      	lsls	r1, r1, #1
    129c:	9803      	ldr	r0, [sp, #12]
    129e:	0fd2      	lsrs	r2, r2, #31
    12a0:	9000      	str	r0, [sp, #0]
    12a2:	9201      	str	r2, [sp, #4]
    12a4:	1c20      	adds	r0, r4, #0
    12a6:	1c32      	adds	r2, r6, #0
    12a8:	f7ff fe94 	bl	fd4 <io_put_fixed>
    12ac:	e703      	b.n	10b6 <io_printf+0x1e>
    12ae:	9b05      	ldr	r3, [sp, #20]
    12b0:	210f      	movs	r1, #15
    12b2:	1d1a      	adds	r2, r3, #4
    12b4:	4823      	ldr	r0, [pc, #140]	; (1344 <io_printf+0x2ac>)
    12b6:	681b      	ldr	r3, [r3, #0]
    12b8:	2700      	movs	r7, #0
    12ba:	468c      	mov	ip, r1
    12bc:	9205      	str	r2, [sp, #20]
    12be:	4662      	mov	r2, ip
    12c0:	401a      	ands	r2, r3
    12c2:	5c81      	ldrb	r1, [r0, r2]
    12c4:	aa08      	add	r2, sp, #32
    12c6:	54b9      	strb	r1, [r7, r2]
    12c8:	091b      	lsrs	r3, r3, #4
    12ca:	3701      	adds	r7, #1
    12cc:	2b00      	cmp	r3, #0
    12ce:	d1f6      	bne.n	12be <io_printf+0x226>
    12d0:	e001      	b.n	12d6 <io_printf+0x23e>
    12d2:	2f00      	cmp	r7, #0
    12d4:	d00a      	beq.n	12ec <io_printf+0x254>
    12d6:	3f01      	subs	r7, #1
    12d8:	ab08      	add	r3, sp, #32
    12da:	5cfb      	ldrb	r3, [r7, r3]
    12dc:	2b30      	cmp	r3, #48	; 0x30
    12de:	d105      	bne.n	12ec <io_printf+0x254>
    12e0:	e7f7      	b.n	12d2 <io_printf+0x23a>
    12e2:	1c20      	adds	r0, r4, #0
    12e4:	9903      	ldr	r1, [sp, #12]
    12e6:	f7ff fdfb 	bl	ee0 <io_put_char>
    12ea:	3e01      	subs	r6, #1
    12ec:	1c7b      	adds	r3, r7, #1
    12ee:	429e      	cmp	r6, r3
    12f0:	d8f7      	bhi.n	12e2 <io_printf+0x24a>
    12f2:	ab08      	add	r3, sp, #32
    12f4:	5cf9      	ldrb	r1, [r7, r3]
    12f6:	1c20      	adds	r0, r4, #0
    12f8:	3f01      	subs	r7, #1
    12fa:	f7ff fdf1 	bl	ee0 <io_put_char>
    12fe:	1c7a      	adds	r2, r7, #1
    1300:	d1f7      	bne.n	12f2 <io_printf+0x25a>
    1302:	e6d8      	b.n	10b6 <io_printf+0x1e>
    1304:	9b05      	ldr	r3, [sp, #20]
    1306:	1e77      	subs	r7, r6, #1
    1308:	1d1a      	adds	r2, r3, #4
    130a:	681b      	ldr	r3, [r3, #0]
    130c:	9303      	str	r3, [sp, #12]
    130e:	4b0e      	ldr	r3, [pc, #56]	; (1348 <io_printf+0x2b0>)
    1310:	9205      	str	r2, [sp, #20]
    1312:	18f6      	adds	r6, r6, r3
    1314:	00b6      	lsls	r6, r6, #2
    1316:	e00a      	b.n	132e <io_printf+0x296>
    1318:	9a03      	ldr	r2, [sp, #12]
    131a:	230f      	movs	r3, #15
    131c:	40f2      	lsrs	r2, r6
    131e:	4013      	ands	r3, r2
    1320:	4a08      	ldr	r2, [pc, #32]	; (1344 <io_printf+0x2ac>)
    1322:	1c20      	adds	r0, r4, #0
    1324:	5cd1      	ldrb	r1, [r2, r3]
    1326:	f7ff fddb 	bl	ee0 <io_put_char>
    132a:	3f01      	subs	r7, #1
    132c:	3e04      	subs	r6, #4
    132e:	2f00      	cmp	r7, #0
    1330:	daf2      	bge.n	1318 <io_printf+0x280>
    1332:	e6c0      	b.n	10b6 <io_printf+0x1e>
    1334:	b00c      	add	sp, #48	; 0x30
    1336:	bcf0      	pop	{r4, r5, r6, r7}
    1338:	bc08      	pop	{r3}
    133a:	b003      	add	sp, #12
    133c:	4718      	bx	r3
    133e:	46c0      	nop			; (mov r8, r8)
    1340:	0040001c 	.word	0x0040001c
    1344:	00001e5b 	.word	0x00001e5b
    1348:	3fffffff 	.word	0x3fffffff

0000134c <configure_dma_controller>:
    134c:	4b06      	ldr	r3, [pc, #24]	; (1368 <configure_dma_controller+0x1c>)
    134e:	223f      	movs	r2, #63	; 0x3f
    1350:	601a      	str	r2, [r3, #0]
    1352:	220d      	movs	r2, #13
    1354:	601a      	str	r2, [r3, #0]
    1356:	4b05      	ldr	r3, [pc, #20]	; (136c <configure_dma_controller+0x20>)
    1358:	22c0      	movs	r2, #192	; 0xc0
    135a:	0112      	lsls	r2, r2, #4
    135c:	601a      	str	r2, [r3, #0]
    135e:	4b04      	ldr	r3, [pc, #16]	; (1370 <configure_dma_controller+0x24>)
    1360:	2203      	movs	r2, #3
    1362:	601a      	str	r2, [r3, #0]
    1364:	4770      	bx	lr
    1366:	46c0      	nop			; (mov r8, r8)
    1368:	40000010 	.word	0x40000010
    136c:	40000018 	.word	0x40000018
    1370:	40000028 	.word	0x40000028

00001374 <configure_timer1>:
    1374:	4b07      	ldr	r3, [pc, #28]	; (1394 <configure_timer1+0x20>)
    1376:	2200      	movs	r2, #0
    1378:	601a      	str	r2, [r3, #0]
    137a:	4b07      	ldr	r3, [pc, #28]	; (1398 <configure_timer1+0x24>)
    137c:	2201      	movs	r2, #1
    137e:	601a      	str	r2, [r3, #0]
    1380:	4b06      	ldr	r3, [pc, #24]	; (139c <configure_timer1+0x28>)
    1382:	8c9b      	ldrh	r3, [r3, #36]	; 0x24
    1384:	4358      	muls	r0, r3
    1386:	2384      	movs	r3, #132	; 0x84
    1388:	059b      	lsls	r3, r3, #22
    138a:	6018      	str	r0, [r3, #0]
    138c:	4b04      	ldr	r3, [pc, #16]	; (13a0 <configure_timer1+0x2c>)
    138e:	6018      	str	r0, [r3, #0]
    1390:	4770      	bx	lr
    1392:	46c0      	nop			; (mov r8, r8)
    1394:	21000008 	.word	0x21000008
    1398:	2100000c 	.word	0x2100000c
    139c:	e5007f00 	.word	0xe5007f00
    13a0:	21000018 	.word	0x21000018

000013a4 <configure_vic>:
    13a4:	4b2c      	ldr	r3, [pc, #176]	; (1458 <configure_vic+0xb4>)
    13a6:	4a2d      	ldr	r2, [pc, #180]	; (145c <configure_vic+0xb8>)
    13a8:	b510      	push	{r4, lr}
    13aa:	601a      	str	r2, [r3, #0]
    13ac:	4a2c      	ldr	r2, [pc, #176]	; (1460 <configure_vic+0xbc>)
    13ae:	2320      	movs	r3, #32
    13b0:	69d9      	ldr	r1, [r3, #28]
    13b2:	6011      	str	r1, [r2, #0]
    13b4:	492b      	ldr	r1, [pc, #172]	; (1464 <configure_vic+0xc0>)
    13b6:	4a2c      	ldr	r2, [pc, #176]	; (1468 <configure_vic+0xc4>)
    13b8:	6808      	ldr	r0, [r1, #0]
    13ba:	6010      	str	r0, [r2, #0]
    13bc:	4a2b      	ldr	r2, [pc, #172]	; (146c <configure_vic+0xc8>)
    13be:	482c      	ldr	r0, [pc, #176]	; (1470 <configure_vic+0xcc>)
    13c0:	6814      	ldr	r4, [r2, #0]
    13c2:	6004      	str	r4, [r0, #0]
    13c4:	482b      	ldr	r0, [pc, #172]	; (1474 <configure_vic+0xd0>)
    13c6:	6800      	ldr	r0, [r0, #0]
    13c8:	2805      	cmp	r0, #5
    13ca:	d815      	bhi.n	13f8 <configure_vic+0x54>
    13cc:	f7fe ffc0 	bl	350 <__gnu_thumb1_case_uqi>
    13d0:	140c0703 	.word	0x140c0703
    13d4:	0310      	.short	0x0310
    13d6:	4828      	ldr	r0, [pc, #160]	; (1478 <configure_vic+0xd4>)
    13d8:	61d8      	str	r0, [r3, #28]
    13da:	2340      	movs	r3, #64	; 0x40
    13dc:	e00d      	b.n	13fa <configure_vic+0x56>
    13de:	4827      	ldr	r0, [pc, #156]	; (147c <configure_vic+0xd8>)
    13e0:	61d8      	str	r0, [r3, #28]
    13e2:	2380      	movs	r3, #128	; 0x80
    13e4:	015b      	lsls	r3, r3, #5
    13e6:	e008      	b.n	13fa <configure_vic+0x56>
    13e8:	4825      	ldr	r0, [pc, #148]	; (1480 <configure_vic+0xdc>)
    13ea:	61d8      	str	r0, [r3, #28]
    13ec:	2310      	movs	r3, #16
    13ee:	e004      	b.n	13fa <configure_vic+0x56>
    13f0:	4824      	ldr	r0, [pc, #144]	; (1484 <configure_vic+0xe0>)
    13f2:	61d8      	str	r0, [r3, #28]
    13f4:	2302      	movs	r3, #2
    13f6:	e000      	b.n	13fa <configure_vic+0x56>
    13f8:	2300      	movs	r3, #0
    13fa:	2059      	movs	r0, #89	; 0x59
    13fc:	7800      	ldrb	r0, [r0, #0]
    13fe:	4c22      	ldr	r4, [pc, #136]	; (1488 <configure_vic+0xe4>)
    1400:	0080      	lsls	r0, r0, #2
    1402:	1900      	adds	r0, r0, r4
    1404:	2400      	movs	r4, #0
    1406:	6004      	str	r4, [r0, #0]
    1408:	4820      	ldr	r0, [pc, #128]	; (148c <configure_vic+0xe8>)
    140a:	4c21      	ldr	r4, [pc, #132]	; (1490 <configure_vic+0xec>)
    140c:	6004      	str	r4, [r0, #0]
    140e:	481e      	ldr	r0, [pc, #120]	; (1488 <configure_vic+0xe4>)
    1410:	2432      	movs	r4, #50	; 0x32
    1412:	6004      	str	r4, [r0, #0]
    1414:	481f      	ldr	r0, [pc, #124]	; (1494 <configure_vic+0xf0>)
    1416:	4c20      	ldr	r4, [pc, #128]	; (1498 <configure_vic+0xf4>)
    1418:	6004      	str	r4, [r0, #0]
    141a:	4820      	ldr	r0, [pc, #128]	; (149c <configure_vic+0xf8>)
    141c:	2426      	movs	r4, #38	; 0x26
    141e:	6004      	str	r4, [r0, #0]
    1420:	481f      	ldr	r0, [pc, #124]	; (14a0 <configure_vic+0xfc>)
    1422:	4c20      	ldr	r4, [pc, #128]	; (14a4 <configure_vic+0x100>)
    1424:	6004      	str	r4, [r0, #0]
    1426:	4820      	ldr	r0, [pc, #128]	; (14a8 <configure_vic+0x104>)
    1428:	242c      	movs	r4, #44	; 0x2c
    142a:	6004      	str	r4, [r0, #0]
    142c:	481f      	ldr	r0, [pc, #124]	; (14ac <configure_vic+0x108>)
    142e:	4c20      	ldr	r4, [pc, #128]	; (14b0 <configure_vic+0x10c>)
    1430:	6004      	str	r4, [r0, #0]
    1432:	4820      	ldr	r0, [pc, #128]	; (14b4 <configure_vic+0x110>)
    1434:	2424      	movs	r4, #36	; 0x24
    1436:	6004      	str	r4, [r0, #0]
    1438:	481f      	ldr	r0, [pc, #124]	; (14b8 <configure_vic+0x114>)
    143a:	4c20      	ldr	r4, [pc, #128]	; (14bc <configure_vic+0x118>)
    143c:	6004      	str	r4, [r0, #0]
    143e:	4820      	ldr	r0, [pc, #128]	; (14c0 <configure_vic+0x11c>)
    1440:	242b      	movs	r4, #43	; 0x2b
    1442:	6004      	str	r4, [r0, #0]
    1444:	481f      	ldr	r0, [pc, #124]	; (14c4 <configure_vic+0x120>)
    1446:	4c20      	ldr	r4, [pc, #128]	; (14c8 <configure_vic+0x124>)
    1448:	6004      	str	r4, [r0, #0]
    144a:	4820      	ldr	r0, [pc, #128]	; (14cc <configure_vic+0x128>)
    144c:	2421      	movs	r4, #33	; 0x21
    144e:	6004      	str	r4, [r0, #0]
    1450:	600b      	str	r3, [r1, #0]
    1452:	4b1f      	ldr	r3, [pc, #124]	; (14d0 <configure_vic+0x12c>)
    1454:	6013      	str	r3, [r2, #0]
    1456:	bd10      	pop	{r4, pc}
    1458:	2f000014 	.word	0x2f000014
    145c:	00003052 	.word	0x00003052
    1460:	00400440 	.word	0x00400440
    1464:	2f00000c 	.word	0x2f00000c
    1468:	004005c8 	.word	0x004005c8
    146c:	2f000010 	.word	0x2f000010
    1470:	00400470 	.word	0x00400470
    1474:	00400008 	.word	0x00400008
    1478:	000019f8 	.word	0x000019f8
    147c:	00001b48 	.word	0x00001b48
    1480:	00001c18 	.word	0x00001c18
    1484:	00001cc0 	.word	0x00001cc0
    1488:	2f000200 	.word	0x2f000200
    148c:	2f000100 	.word	0x2f000100
    1490:	000002ec 	.word	0x000002ec
    1494:	2f00010c 	.word	0x2f00010c
    1498:	00001980 	.word	0x00001980
    149c:	2f00020c 	.word	0x2f00020c
    14a0:	2f000108 	.word	0x2f000108
    14a4:	00001abc 	.word	0x00001abc
    14a8:	2f000208 	.word	0x2f000208
    14ac:	2f000104 	.word	0x2f000104
    14b0:	00001bc0 	.word	0x00001bc0
    14b4:	2f000204 	.word	0x2f000204
    14b8:	2f000110 	.word	0x2f000110
    14bc:	00001a30 	.word	0x00001a30
    14c0:	2f000210 	.word	0x2f000210
    14c4:	2f000114 	.word	0x2f000114
    14c8:	00001c58 	.word	0x00001c58
    14cc:	2f000214 	.word	0x2f000214
    14d0:	00001052 	.word	0x00001052

000014d4 <dispatch>:
    14d4:	b573      	push	{r0, r1, r4, r5, r6, lr}
    14d6:	e031      	b.n	153c <dispatch+0x68>
    14d8:	22c8      	movs	r2, #200	; 0xc8
    14da:	435a      	muls	r2, r3
    14dc:	491a      	ldr	r1, [pc, #104]	; (1548 <dispatch+0x74>)
    14de:	3301      	adds	r3, #1
    14e0:	188a      	adds	r2, r1, r2
    14e2:	6811      	ldr	r1, [r2, #0]
    14e4:	6850      	ldr	r0, [r2, #4]
    14e6:	4281      	cmp	r1, r0
    14e8:	d018      	beq.n	151c <dispatch+0x48>
    14ea:	200c      	movs	r0, #12
    14ec:	4348      	muls	r0, r1
    14ee:	3101      	adds	r1, #1
    14f0:	1810      	adds	r0, r2, r0
    14f2:	6885      	ldr	r5, [r0, #8]
    14f4:	9501      	str	r5, [sp, #4]
    14f6:	68c6      	ldr	r6, [r0, #12]
    14f8:	6905      	ldr	r5, [r0, #16]
    14fa:	200f      	movs	r0, #15
    14fc:	4001      	ands	r1, r0
    14fe:	6011      	str	r1, [r2, #0]
    1500:	9a01      	ldr	r2, [sp, #4]
    1502:	2a00      	cmp	r2, #0
    1504:	d00a      	beq.n	151c <dispatch+0x48>
    1506:	1c20      	adds	r0, r4, #0
    1508:	f7fe ee66 	blx	1d8 <cpu_int_restore>
    150c:	9b01      	ldr	r3, [sp, #4]
    150e:	1c30      	adds	r0, r6, #0
    1510:	1c29      	adds	r1, r5, #0
    1512:	4798      	blx	r3
    1514:	f7fe ee58 	blx	1c8 <cpu_int_disable>
    1518:	2300      	movs	r3, #0
    151a:	1c04      	adds	r4, r0, #0
    151c:	4a0b      	ldr	r2, [pc, #44]	; (154c <dispatch+0x78>)
    151e:	6811      	ldr	r1, [r2, #0]
    1520:	2900      	cmp	r1, #0
    1522:	d103      	bne.n	152c <dispatch+0x58>
    1524:	6813      	ldr	r3, [r2, #0]
    1526:	2b00      	cmp	r3, #0
    1528:	d008      	beq.n	153c <dispatch+0x68>
    152a:	e002      	b.n	1532 <dispatch+0x5e>
    152c:	2b03      	cmp	r3, #3
    152e:	d9d3      	bls.n	14d8 <dispatch+0x4>
    1530:	e7f8      	b.n	1524 <dispatch+0x50>
    1532:	f7fe ee56 	blx	1e0 <cpu_wfi>
    1536:	1c20      	adds	r0, r4, #0
    1538:	f7fe ee4e 	blx	1d8 <cpu_int_restore>
    153c:	4b03      	ldr	r3, [pc, #12]	; (154c <dispatch+0x78>)
    153e:	681b      	ldr	r3, [r3, #0]
    1540:	2b00      	cmp	r3, #0
    1542:	d1e7      	bne.n	1514 <dispatch+0x40>
    1544:	bd73      	pop	{r0, r1, r4, r5, r6, pc}
    1546:	46c0      	nop			; (mov r8, r8)
    1548:	0040003c 	.word	0x0040003c
    154c:	0040035c 	.word	0x0040035c

00001550 <spin1_callback_on>:
    1550:	b538      	push	{r3, r4, r5, lr}
    1552:	1c14      	adds	r4, r2, #0
    1554:	4a11      	ldr	r2, [pc, #68]	; (159c <spin1_callback_on+0x4c>)
    1556:	00c3      	lsls	r3, r0, #3
    1558:	5099      	str	r1, [r3, r2]
    155a:	18d3      	adds	r3, r2, r3
    155c:	1c05      	adds	r5, r0, #0
    155e:	605c      	str	r4, [r3, #4]
    1560:	2c00      	cmp	r4, #0
    1562:	da08      	bge.n	1576 <spin1_callback_on+0x26>
    1564:	4b0e      	ldr	r3, [pc, #56]	; (15a0 <spin1_callback_on+0x50>)
    1566:	6819      	ldr	r1, [r3, #0]
    1568:	3101      	adds	r1, #1
    156a:	d101      	bne.n	1570 <spin1_callback_on+0x20>
    156c:	6018      	str	r0, [r3, #0]
    156e:	e002      	b.n	1576 <spin1_callback_on+0x26>
    1570:	2013      	movs	r0, #19
    1572:	f7fe fddb 	bl	12c <rt_error>
    1576:	2d05      	cmp	r5, #5
    1578:	d001      	beq.n	157e <spin1_callback_on+0x2e>
    157a:	2d00      	cmp	r5, #0
    157c:	d10c      	bne.n	1598 <spin1_callback_on+0x48>
    157e:	4a09      	ldr	r2, [pc, #36]	; (15a4 <spin1_callback_on+0x54>)
    1580:	6813      	ldr	r3, [r2, #0]
    1582:	1c99      	adds	r1, r3, #2
    1584:	d101      	bne.n	158a <spin1_callback_on+0x3a>
    1586:	6014      	str	r4, [r2, #0]
    1588:	e006      	b.n	1598 <spin1_callback_on+0x48>
    158a:	3301      	adds	r3, #1
    158c:	d104      	bne.n	1598 <spin1_callback_on+0x48>
    158e:	3401      	adds	r4, #1
    1590:	d002      	beq.n	1598 <spin1_callback_on+0x48>
    1592:	2013      	movs	r0, #19
    1594:	f7fe fdca 	bl	12c <rt_error>
    1598:	bd38      	pop	{r3, r4, r5, pc}
    159a:	46c0      	nop			; (mov r8, r8)
    159c:	004005d4 	.word	0x004005d4
    15a0:	00400008 	.word	0x00400008
    15a4:	00400004 	.word	0x00400004

000015a8 <spin1_set_timer_tick>:
    15a8:	4b01      	ldr	r3, [pc, #4]	; (15b0 <spin1_set_timer_tick+0x8>)
    15aa:	6018      	str	r0, [r3, #0]
    15ac:	4770      	bx	lr
    15ae:	46c0      	nop			; (mov r8, r8)
    15b0:	00400028 	.word	0x00400028

000015b4 <clean_up>:
    15b4:	b508      	push	{r3, lr}
    15b6:	f7fe ee08 	blx	1c8 <cpu_int_disable>
    15ba:	4b10      	ldr	r3, [pc, #64]	; (15fc <clean_up+0x48>)
    15bc:	681a      	ldr	r2, [r3, #0]
    15be:	2320      	movs	r3, #32
    15c0:	61da      	str	r2, [r3, #28]
    15c2:	4b0f      	ldr	r3, [pc, #60]	; (1600 <clean_up+0x4c>)
    15c4:	681a      	ldr	r2, [r3, #0]
    15c6:	4b0f      	ldr	r3, [pc, #60]	; (1604 <clean_up+0x50>)
    15c8:	601a      	str	r2, [r3, #0]
    15ca:	4b0f      	ldr	r3, [pc, #60]	; (1608 <clean_up+0x54>)
    15cc:	681a      	ldr	r2, [r3, #0]
    15ce:	4b0f      	ldr	r3, [pc, #60]	; (160c <clean_up+0x58>)
    15d0:	601a      	str	r2, [r3, #0]
    15d2:	2359      	movs	r3, #89	; 0x59
    15d4:	781b      	ldrb	r3, [r3, #0]
    15d6:	4a0e      	ldr	r2, [pc, #56]	; (1610 <clean_up+0x5c>)
    15d8:	009b      	lsls	r3, r3, #2
    15da:	189b      	adds	r3, r3, r2
    15dc:	2232      	movs	r2, #50	; 0x32
    15de:	601a      	str	r2, [r3, #0]
    15e0:	4b0c      	ldr	r3, [pc, #48]	; (1614 <clean_up+0x60>)
    15e2:	2201      	movs	r2, #1
    15e4:	601a      	str	r2, [r3, #0]
    15e6:	4b0c      	ldr	r3, [pc, #48]	; (1618 <clean_up+0x64>)
    15e8:	2200      	movs	r2, #0
    15ea:	601a      	str	r2, [r3, #0]
    15ec:	4b0b      	ldr	r3, [pc, #44]	; (161c <clean_up+0x68>)
    15ee:	223f      	movs	r2, #63	; 0x3f
    15f0:	601a      	str	r2, [r3, #0]
    15f2:	220d      	movs	r2, #13
    15f4:	601a      	str	r2, [r3, #0]
    15f6:	f7fe edf0 	blx	1d8 <cpu_int_restore>
    15fa:	bd08      	pop	{r3, pc}
    15fc:	00400440 	.word	0x00400440
    1600:	004005c8 	.word	0x004005c8
    1604:	2f00000c 	.word	0x2f00000c
    1608:	00400470 	.word	0x00400470
    160c:	2f000010 	.word	0x2f000010
    1610:	2f000200 	.word	0x2f000200
    1614:	2100000c 	.word	0x2100000c
    1618:	40000018 	.word	0x40000018
    161c:	40000010 	.word	0x40000010

00001620 <report_debug>:
    1620:	b508      	push	{r3, lr}
    1622:	4b10      	ldr	r3, [pc, #64]	; (1664 <report_debug+0x44>)
    1624:	781b      	ldrb	r3, [r3, #0]
    1626:	2b00      	cmp	r3, #0
    1628:	d00e      	beq.n	1648 <report_debug+0x28>
    162a:	4b0f      	ldr	r3, [pc, #60]	; (1668 <report_debug+0x48>)
    162c:	4a0f      	ldr	r2, [pc, #60]	; (166c <report_debug+0x4c>)
    162e:	681b      	ldr	r3, [r3, #0]
    1630:	6812      	ldr	r2, [r2, #0]
    1632:	2002      	movs	r0, #2
    1634:	18d2      	adds	r2, r2, r3
    1636:	490e      	ldr	r1, [pc, #56]	; (1670 <report_debug+0x50>)
    1638:	f7ff fd2e 	bl	1098 <io_printf>
    163c:	4b0d      	ldr	r3, [pc, #52]	; (1674 <report_debug+0x54>)
    163e:	2002      	movs	r0, #2
    1640:	681a      	ldr	r2, [r3, #0]
    1642:	490d      	ldr	r1, [pc, #52]	; (1678 <report_debug+0x58>)
    1644:	f7ff fd28 	bl	1098 <io_printf>
    1648:	4b0c      	ldr	r3, [pc, #48]	; (167c <report_debug+0x5c>)
    164a:	2002      	movs	r0, #2
    164c:	681a      	ldr	r2, [r3, #0]
    164e:	490c      	ldr	r1, [pc, #48]	; (1680 <report_debug+0x60>)
    1650:	f7ff fd22 	bl	1098 <io_printf>
    1654:	4b0b      	ldr	r3, [pc, #44]	; (1684 <report_debug+0x64>)
    1656:	2002      	movs	r0, #2
    1658:	681a      	ldr	r2, [r3, #0]
    165a:	490b      	ldr	r1, [pc, #44]	; (1688 <report_debug+0x68>)
    165c:	f7ff fd1c 	bl	1098 <io_printf>
    1660:	bd08      	pop	{r3, pc}
    1662:	46c0      	nop			; (mov r8, r8)
    1664:	00400478 	.word	0x00400478
    1668:	e1000300 	.word	0xe1000300
    166c:	e1000304 	.word	0xe1000304
    1670:	00001e6c 	.word	0x00001e6c
    1674:	e1000320 	.word	0xe1000320
    1678:	00001e92 	.word	0x00001e92
    167c:	0040047c 	.word	0x0040047c
    1680:	00001eb8 	.word	0x00001eb8
    1684:	40000040 	.word	0x40000040
    1688:	00001ede 	.word	0x00001ede

0000168c <report_warns>:
    168c:	4b0f      	ldr	r3, [pc, #60]	; (16cc <report_warns+0x40>)
    168e:	b510      	push	{r4, lr}
    1690:	681a      	ldr	r2, [r3, #0]
    1692:	1c1c      	adds	r4, r3, #0
    1694:	07d3      	lsls	r3, r2, #31
    1696:	d505      	bpl.n	16a4 <report_warns+0x18>
    1698:	4b0d      	ldr	r3, [pc, #52]	; (16d0 <report_warns+0x44>)
    169a:	2002      	movs	r0, #2
    169c:	681a      	ldr	r2, [r3, #0]
    169e:	490d      	ldr	r1, [pc, #52]	; (16d4 <report_warns+0x48>)
    16a0:	f7ff fcfa 	bl	1098 <io_printf>
    16a4:	6823      	ldr	r3, [r4, #0]
    16a6:	2002      	movs	r0, #2
    16a8:	4203      	tst	r3, r0
    16aa:	d004      	beq.n	16b6 <report_warns+0x2a>
    16ac:	4b0a      	ldr	r3, [pc, #40]	; (16d8 <report_warns+0x4c>)
    16ae:	490b      	ldr	r1, [pc, #44]	; (16dc <report_warns+0x50>)
    16b0:	681a      	ldr	r2, [r3, #0]
    16b2:	f7ff fcf1 	bl	1098 <io_printf>
    16b6:	4b05      	ldr	r3, [pc, #20]	; (16cc <report_warns+0x40>)
    16b8:	681b      	ldr	r3, [r3, #0]
    16ba:	075a      	lsls	r2, r3, #29
    16bc:	d505      	bpl.n	16ca <report_warns+0x3e>
    16be:	4b08      	ldr	r3, [pc, #32]	; (16e0 <report_warns+0x54>)
    16c0:	2002      	movs	r0, #2
    16c2:	681a      	ldr	r2, [r3, #0]
    16c4:	4907      	ldr	r1, [pc, #28]	; (16e4 <report_warns+0x58>)
    16c6:	f7ff fce7 	bl	1098 <io_printf>
    16ca:	bd10      	pop	{r4, pc}
    16cc:	00400020 	.word	0x00400020
    16d0:	00400024 	.word	0x00400024
    16d4:	00001efd 	.word	0x00001efd
    16d8:	00400030 	.word	0x00400030
    16dc:	00001f29 	.word	0x00001f29
    16e0:	0040002c 	.word	0x0040002c
    16e4:	00001f54 	.word	0x00001f54

000016e8 <spin1_start>:
    16e8:	b570      	push	{r4, r5, r6, lr}
    16ea:	1c06      	adds	r6, r0, #0
    16ec:	2007      	movs	r0, #7
    16ee:	f7fe ff5f 	bl	5b0 <sark_cpu_state>
    16f2:	2380      	movs	r3, #128	; 0x80
    16f4:	2400      	movs	r4, #0
    16f6:	059b      	lsls	r3, r3, #22
    16f8:	601c      	str	r4, [r3, #0]
    16fa:	f7ff fe27 	bl	134c <configure_dma_controller>
    16fe:	4d26      	ldr	r5, [pc, #152]	; (1798 <spin1_start+0xb0>)
    1700:	6828      	ldr	r0, [r5, #0]
    1702:	f7ff fe37 	bl	1374 <configure_timer1>
    1706:	f7ff fe4d 	bl	13a4 <configure_vic>
    170a:	4b24      	ldr	r3, [pc, #144]	; (179c <spin1_start+0xb4>)
    170c:	601c      	str	r4, [r3, #0]
    170e:	4b24      	ldr	r3, [pc, #144]	; (17a0 <spin1_start+0xb8>)
    1710:	601c      	str	r4, [r3, #0]
    1712:	4b24      	ldr	r3, [pc, #144]	; (17a4 <spin1_start+0xbc>)
    1714:	601c      	str	r4, [r3, #0]
    1716:	4b24      	ldr	r3, [pc, #144]	; (17a8 <spin1_start+0xc0>)
    1718:	601c      	str	r4, [r3, #0]
    171a:	2e01      	cmp	r6, #1
    171c:	d101      	bne.n	1722 <spin1_start+0x3a>
    171e:	f7ff f9e3 	bl	ae8 <event_wait>
    1722:	682b      	ldr	r3, [r5, #0]
    1724:	2b00      	cmp	r3, #0
    1726:	d002      	beq.n	172e <spin1_start+0x46>
    1728:	4b20      	ldr	r3, [pc, #128]	; (17ac <spin1_start+0xc4>)
    172a:	22e2      	movs	r2, #226	; 0xe2
    172c:	601a      	str	r2, [r3, #0]
    172e:	4b20      	ldr	r3, [pc, #128]	; (17b0 <spin1_start+0xc8>)
    1730:	2200      	movs	r2, #0
    1732:	601a      	str	r2, [r3, #0]
    1734:	4b1f      	ldr	r3, [pc, #124]	; (17b4 <spin1_start+0xcc>)
    1736:	2201      	movs	r2, #1
    1738:	601a      	str	r2, [r3, #0]
    173a:	f7ff fecb 	bl	14d4 <dispatch>
    173e:	f7ff ff39 	bl	15b4 <clean_up>
    1742:	f7fe ed3a 	blx	1b8 <cpu_int_enable>
    1746:	4c1c      	ldr	r4, [pc, #112]	; (17b8 <spin1_start+0xd0>)
    1748:	4b1c      	ldr	r3, [pc, #112]	; (17bc <spin1_start+0xd4>)
    174a:	6822      	ldr	r2, [r4, #0]
    174c:	601a      	str	r2, [r3, #0]
    174e:	4a13      	ldr	r2, [pc, #76]	; (179c <spin1_start+0xb4>)
    1750:	491b      	ldr	r1, [pc, #108]	; (17c0 <spin1_start+0xd8>)
    1752:	6812      	ldr	r2, [r2, #0]
    1754:	605a      	str	r2, [r3, #4]
    1756:	4a1b      	ldr	r2, [pc, #108]	; (17c4 <spin1_start+0xdc>)
    1758:	6812      	ldr	r2, [r2, #0]
    175a:	6809      	ldr	r1, [r1, #0]
    175c:	188a      	adds	r2, r1, r2
    175e:	609a      	str	r2, [r3, #8]
    1760:	4a19      	ldr	r2, [pc, #100]	; (17c8 <spin1_start+0xe0>)
    1762:	6812      	ldr	r2, [r2, #0]
    1764:	60da      	str	r2, [r3, #12]
    1766:	4a19      	ldr	r2, [pc, #100]	; (17cc <spin1_start+0xe4>)
    1768:	6812      	ldr	r2, [r2, #0]
    176a:	611a      	str	r2, [r3, #16]
    176c:	4a18      	ldr	r2, [pc, #96]	; (17d0 <spin1_start+0xe8>)
    176e:	6812      	ldr	r2, [r2, #0]
    1770:	3a01      	subs	r2, #1
    1772:	615a      	str	r2, [r3, #20]
    1774:	4a17      	ldr	r2, [pc, #92]	; (17d4 <spin1_start+0xec>)
    1776:	6812      	ldr	r2, [r2, #0]
    1778:	619a      	str	r2, [r3, #24]
    177a:	4a09      	ldr	r2, [pc, #36]	; (17a0 <spin1_start+0xb8>)
    177c:	6812      	ldr	r2, [r2, #0]
    177e:	61da      	str	r2, [r3, #28]
    1780:	4a08      	ldr	r2, [pc, #32]	; (17a4 <spin1_start+0xbc>)
    1782:	6812      	ldr	r2, [r2, #0]
    1784:	621a      	str	r2, [r3, #32]
    1786:	4a08      	ldr	r2, [pc, #32]	; (17a8 <spin1_start+0xc0>)
    1788:	6812      	ldr	r2, [r2, #0]
    178a:	625a      	str	r2, [r3, #36]	; 0x24
    178c:	f7ff ff48 	bl	1620 <report_debug>
    1790:	f7ff ff7c 	bl	168c <report_warns>
    1794:	6820      	ldr	r0, [r4, #0]
    1796:	bd70      	pop	{r4, r5, r6, pc}
    1798:	00400028 	.word	0x00400028
    179c:	00400020 	.word	0x00400020
    17a0:	00400030 	.word	0x00400030
    17a4:	00400024 	.word	0x00400024
    17a8:	0040002c 	.word	0x0040002c
    17ac:	21000008 	.word	0x21000008
    17b0:	004005cc 	.word	0x004005cc
    17b4:	0040035c 	.word	0x0040035c
    17b8:	00400038 	.word	0x00400038
    17bc:	00400444 	.word	0x00400444
    17c0:	e1000304 	.word	0xe1000304
    17c4:	e1000300 	.word	0xe1000300
    17c8:	e1000320 	.word	0xe1000320
    17cc:	0040047c 	.word	0x0040047c
    17d0:	00400000 	.word	0x00400000
    17d4:	40000040 	.word	0x40000040

000017d8 <spin1_send_mc_packet>:
    17d8:	b5f7      	push	{r0, r1, r2, r4, r5, r6, r7, lr}
    17da:	1c14      	adds	r4, r2, #0
    17dc:	1c06      	adds	r6, r0, #0
    17de:	1c0d      	adds	r5, r1, #0
    17e0:	f7fe ece2 	blx	1a8 <cpu_irq_disable>
    17e4:	2380      	movs	r3, #128	; 0x80
    17e6:	059b      	lsls	r3, r3, #22
    17e8:	2700      	movs	r7, #0
    17ea:	601f      	str	r7, [r3, #0]
    17ec:	681a      	ldr	r2, [r3, #0]
    17ee:	4b2f      	ldr	r3, [pc, #188]	; (18ac <spin1_send_mc_packet+0xd4>)
    17f0:	0051      	lsls	r1, r2, #1
    17f2:	d520      	bpl.n	1836 <spin1_send_mc_packet+0x5e>
    17f4:	685a      	ldr	r2, [r3, #4]
    17f6:	9201      	str	r2, [sp, #4]
    17f8:	3201      	adds	r2, #1
    17fa:	4694      	mov	ip, r2
    17fc:	4661      	mov	r1, ip
    17fe:	220f      	movs	r2, #15
    1800:	400a      	ands	r2, r1
    1802:	6819      	ldr	r1, [r3, #0]
    1804:	428a      	cmp	r2, r1
    1806:	d10a      	bne.n	181e <spin1_send_mc_packet+0x46>
    1808:	4b29      	ldr	r3, [pc, #164]	; (18b0 <spin1_send_mc_packet+0xd8>)
    180a:	2204      	movs	r2, #4
    180c:	6819      	ldr	r1, [r3, #0]
    180e:	1c3c      	adds	r4, r7, #0
    1810:	430a      	orrs	r2, r1
    1812:	601a      	str	r2, [r3, #0]
    1814:	4b27      	ldr	r3, [pc, #156]	; (18b4 <spin1_send_mc_packet+0xdc>)
    1816:	681a      	ldr	r2, [r3, #0]
    1818:	3201      	adds	r2, #1
    181a:	601a      	str	r2, [r3, #0]
    181c:	e041      	b.n	18a2 <spin1_send_mc_packet+0xca>
    181e:	9901      	ldr	r1, [sp, #4]
    1820:	270c      	movs	r7, #12
    1822:	434f      	muls	r7, r1
    1824:	605a      	str	r2, [r3, #4]
    1826:	19d9      	adds	r1, r3, r7
    1828:	2280      	movs	r2, #128	; 0x80
    182a:	608e      	str	r6, [r1, #8]
    182c:	60cd      	str	r5, [r1, #12]
    182e:	610c      	str	r4, [r1, #16]
    1830:	0112      	lsls	r2, r2, #4
    1832:	4b21      	ldr	r3, [pc, #132]	; (18b8 <spin1_send_mc_packet+0xe0>)
    1834:	e028      	b.n	1888 <spin1_send_mc_packet+0xb0>
    1836:	6859      	ldr	r1, [r3, #4]
    1838:	681f      	ldr	r7, [r3, #0]
    183a:	3101      	adds	r1, #1
    183c:	220f      	movs	r2, #15
    183e:	4011      	ands	r1, r2
    1840:	42b9      	cmp	r1, r7
    1842:	d113      	bne.n	186c <spin1_send_mc_packet+0x94>
    1844:	270c      	movs	r7, #12
    1846:	434f      	muls	r7, r1
    1848:	3101      	adds	r1, #1
    184a:	19df      	adds	r7, r3, r7
    184c:	68ba      	ldr	r2, [r7, #8]
    184e:	9201      	str	r2, [sp, #4]
    1850:	68fa      	ldr	r2, [r7, #12]
    1852:	693f      	ldr	r7, [r7, #16]
    1854:	4694      	mov	ip, r2
    1856:	220f      	movs	r2, #15
    1858:	4011      	ands	r1, r2
    185a:	6019      	str	r1, [r3, #0]
    185c:	2f00      	cmp	r7, #0
    185e:	d002      	beq.n	1866 <spin1_send_mc_packet+0x8e>
    1860:	4b16      	ldr	r3, [pc, #88]	; (18bc <spin1_send_mc_packet+0xe4>)
    1862:	4667      	mov	r7, ip
    1864:	601f      	str	r7, [r3, #0]
    1866:	4b16      	ldr	r3, [pc, #88]	; (18c0 <spin1_send_mc_packet+0xe8>)
    1868:	9901      	ldr	r1, [sp, #4]
    186a:	6019      	str	r1, [r3, #0]
    186c:	4b0f      	ldr	r3, [pc, #60]	; (18ac <spin1_send_mc_packet+0xd4>)
    186e:	685a      	ldr	r2, [r3, #4]
    1870:	681f      	ldr	r7, [r3, #0]
    1872:	4297      	cmp	r7, r2
    1874:	d10a      	bne.n	188c <spin1_send_mc_packet+0xb4>
    1876:	2c00      	cmp	r4, #0
    1878:	d001      	beq.n	187e <spin1_send_mc_packet+0xa6>
    187a:	4b10      	ldr	r3, [pc, #64]	; (18bc <spin1_send_mc_packet+0xe4>)
    187c:	601d      	str	r5, [r3, #0]
    187e:	4b10      	ldr	r3, [pc, #64]	; (18c0 <spin1_send_mc_packet+0xe8>)
    1880:	2280      	movs	r2, #128	; 0x80
    1882:	601e      	str	r6, [r3, #0]
    1884:	4b0f      	ldr	r3, [pc, #60]	; (18c4 <spin1_send_mc_packet+0xec>)
    1886:	0112      	lsls	r2, r2, #4
    1888:	601a      	str	r2, [r3, #0]
    188a:	e009      	b.n	18a0 <spin1_send_mc_packet+0xc8>
    188c:	210c      	movs	r1, #12
    188e:	4351      	muls	r1, r2
    1890:	3201      	adds	r2, #1
    1892:	1859      	adds	r1, r3, r1
    1894:	608e      	str	r6, [r1, #8]
    1896:	60cd      	str	r5, [r1, #12]
    1898:	610c      	str	r4, [r1, #16]
    189a:	210f      	movs	r1, #15
    189c:	400a      	ands	r2, r1
    189e:	605a      	str	r2, [r3, #4]
    18a0:	2401      	movs	r4, #1
    18a2:	f7fe ec9a 	blx	1d8 <cpu_int_restore>
    18a6:	1c20      	adds	r0, r4, #0
    18a8:	bdfe      	pop	{r1, r2, r3, r4, r5, r6, r7, pc}
    18aa:	46c0      	nop			; (mov r8, r8)
    18ac:	00400604 	.word	0x00400604
    18b0:	00400020 	.word	0x00400020
    18b4:	0040002c 	.word	0x0040002c
    18b8:	2f000010 	.word	0x2f000010
    18bc:	20000004 	.word	0x20000004
    18c0:	20000008 	.word	0x20000008
    18c4:	2f000014 	.word	0x2f000014

000018c8 <spin1_get_core_id>:
    18c8:	4b01      	ldr	r3, [pc, #4]	; (18d0 <spin1_get_core_id+0x8>)
    18ca:	6818      	ldr	r0, [r3, #0]
    18cc:	4770      	bx	lr
    18ce:	46c0      	nop			; (mov r8, r8)
    18d0:	0040036c 	.word	0x0040036c

000018d4 <spin1_get_chip_id>:
    18d4:	4b01      	ldr	r3, [pc, #4]	; (18dc <spin1_get_chip_id+0x8>)
    18d6:	8818      	ldrh	r0, [r3, #0]
    18d8:	4770      	bx	lr
    18da:	46c0      	nop			; (mov r8, r8)
    18dc:	e5007f00 	.word	0xe5007f00

000018e0 <schedule_sysmode>:
    18e0:	b5f8      	push	{r3, r4, r5, r6, r7, lr}
    18e2:	4d15      	ldr	r5, [pc, #84]	; (1938 <schedule_sysmode+0x58>)
    18e4:	00c6      	lsls	r6, r0, #3
    18e6:	19ab      	adds	r3, r5, r6
    18e8:	685b      	ldr	r3, [r3, #4]
    18ea:	2b00      	cmp	r3, #0
    18ec:	dc04      	bgt.n	18f8 <schedule_sysmode+0x18>
    18ee:	1c08      	adds	r0, r1, #0
    18f0:	5973      	ldr	r3, [r6, r5]
    18f2:	1c11      	adds	r1, r2, #0
    18f4:	4798      	blx	r3
    18f6:	e01d      	b.n	1934 <schedule_sysmode+0x54>
    18f8:	20c8      	movs	r0, #200	; 0xc8
    18fa:	3b01      	subs	r3, #1
    18fc:	4343      	muls	r3, r0
    18fe:	480f      	ldr	r0, [pc, #60]	; (193c <schedule_sysmode+0x5c>)
    1900:	18c3      	adds	r3, r0, r3
    1902:	685c      	ldr	r4, [r3, #4]
    1904:	200f      	movs	r0, #15
    1906:	1c67      	adds	r7, r4, #1
    1908:	4038      	ands	r0, r7
    190a:	681f      	ldr	r7, [r3, #0]
    190c:	42b8      	cmp	r0, r7
    190e:	d008      	beq.n	1922 <schedule_sysmode+0x42>
    1910:	270c      	movs	r7, #12
    1912:	437c      	muls	r4, r7
    1914:	5976      	ldr	r6, [r6, r5]
    1916:	191c      	adds	r4, r3, r4
    1918:	60a6      	str	r6, [r4, #8]
    191a:	60e1      	str	r1, [r4, #12]
    191c:	6122      	str	r2, [r4, #16]
    191e:	6058      	str	r0, [r3, #4]
    1920:	e008      	b.n	1934 <schedule_sysmode+0x54>
    1922:	4b07      	ldr	r3, [pc, #28]	; (1940 <schedule_sysmode+0x60>)
    1924:	2201      	movs	r2, #1
    1926:	6819      	ldr	r1, [r3, #0]
    1928:	430a      	orrs	r2, r1
    192a:	601a      	str	r2, [r3, #0]
    192c:	4b05      	ldr	r3, [pc, #20]	; (1944 <schedule_sysmode+0x64>)
    192e:	681a      	ldr	r2, [r3, #0]
    1930:	3201      	adds	r2, #1
    1932:	601a      	str	r2, [r3, #0]
    1934:	bdf8      	pop	{r3, r4, r5, r6, r7, pc}
    1936:	46c0      	nop			; (mov r8, r8)
    1938:	004005d4 	.word	0x004005d4
    193c:	0040003c 	.word	0x0040003c
    1940:	00400020 	.word	0x00400020
    1944:	00400024 	.word	0x00400024

00001948 <sark_pre_main>:
    1948:	b508      	push	{r3, lr}
    194a:	2006      	movs	r0, #6
    194c:	f7fe fe30 	bl	5b0 <sark_cpu_state>
    1950:	2201      	movs	r2, #1
    1952:	235b      	movs	r3, #91	; 0x5b
    1954:	701a      	strb	r2, [r3, #0]
    1956:	f7fe fe33 	bl	5c0 <sark_app_lead>
    195a:	4b04      	ldr	r3, [pc, #16]	; (196c <sark_pre_main+0x24>)
    195c:	681b      	ldr	r3, [r3, #0]
    195e:	1ac2      	subs	r2, r0, r3
    1960:	4253      	negs	r3, r2
    1962:	415a      	adcs	r2, r3
    1964:	4b02      	ldr	r3, [pc, #8]	; (1970 <sark_pre_main+0x28>)
    1966:	701a      	strb	r2, [r3, #0]
    1968:	bd08      	pop	{r3, pc}
    196a:	46c0      	nop			; (mov r8, r8)
    196c:	0040036c 	.word	0x0040036c
    1970:	00400478 	.word	0x00400478

00001974 <sark_post_main>:
    1974:	b508      	push	{r3, lr}
    1976:	200b      	movs	r0, #11
    1978:	f7fe fe1a 	bl	5b0 <sark_cpu_state>
    197c:	bd08      	pop	{r3, pc}
	...

00001980 <cc_rx_ready_isr>:
    1980:	e24ee004 	sub	lr, lr, #4
    1984:	e92d500f 	push	{r0, r1, r2, r3, ip, lr}
    1988:	e3a03202 	mov	r3, #536870912	; 0x20000000
    198c:	e593000c 	ldr	r0, [r3, #12]
    1990:	e59fc058 	ldr	ip, [pc, #88]	; 19f0 <cc_rx_ready_isr+0x70>
    1994:	e2100802 	ands	r0, r0, #131072	; 0x20000
    1998:	0a000006 	beq	19b8 <cc_rx_ready_isr+0x38>
    199c:	e5932010 	ldr	r2, [r3, #16]
    19a0:	e5931014 	ldr	r1, [r3, #20]
    19a4:	e59c3028 	ldr	r3, [ip, #40]	; 0x28
    19a8:	e3530000 	cmp	r3, #0
    19ac:	13a00005 	movne	r0, #5
    19b0:	1a000005 	bne	19cc <cc_rx_ready_isr+0x4c>
    19b4:	ea000006 	b	19d4 <cc_rx_ready_isr+0x54>
    19b8:	e5931014 	ldr	r1, [r3, #20]
    19bc:	e59c3000 	ldr	r3, [ip]
    19c0:	e3530000 	cmp	r3, #0
    19c4:	0a000002 	beq	19d4 <cc_rx_ready_isr+0x54>
    19c8:	e1a02000 	mov	r2, r0
    19cc:	ebfffa53 	bl	320 <schedule>
    19d0:	ea000003 	b	19e4 <cc_rx_ready_isr+0x64>
    19d4:	e59f3018 	ldr	r3, [pc, #24]	; 19f4 <cc_rx_ready_isr+0x74>
    19d8:	e5932000 	ldr	r2, [r3]
    19dc:	e2822001 	add	r2, r2, #1
    19e0:	e5832000 	str	r2, [r3]
    19e4:	e3a0342f 	mov	r3, #788529152	; 0x2f000000
    19e8:	e5833030 	str	r3, [r3, #48]	; 0x30
    19ec:	e8fd900f 	ldm	sp!, {r0, r1, r2, r3, ip, pc}^
    19f0:	004005d4 	.word	0x004005d4
    19f4:	0040047c 	.word	0x0040047c

000019f8 <cc_rx_ready_fiqsr>:
    19f8:	e24ee004 	sub	lr, lr, #4
    19fc:	e92d500f 	push	{r0, r1, r2, r3, ip, lr}
    1a00:	e3a03202 	mov	r3, #536870912	; 0x20000000
    1a04:	e593100c 	ldr	r1, [r3, #12]
    1a08:	e59f201c 	ldr	r2, [pc, #28]	; 1a2c <cc_rx_ready_fiqsr+0x34>
    1a0c:	e2111802 	ands	r1, r1, #131072	; 0x20000
    1a10:	15931010 	ldrne	r1, [r3, #16]
    1a14:	05930014 	ldreq	r0, [r3, #20]
    1a18:	15930014 	ldrne	r0, [r3, #20]
    1a1c:	05923000 	ldreq	r3, [r2]
    1a20:	15923028 	ldrne	r3, [r2, #40]	; 0x28
    1a24:	e12fff33 	blx	r3
    1a28:	e8fd900f 	ldm	sp!, {r0, r1, r2, r3, ip, pc}^
    1a2c:	004005d4 	.word	0x004005d4

00001a30 <cc_tx_empty_isr>:
    1a30:	e92d103f 	push	{r0, r1, r2, r3, r4, r5, ip}
    1a34:	e3a03000 	mov	r3, #0
    1a38:	e3a02202 	mov	r2, #536870912	; 0x20000000
    1a3c:	e5823000 	str	r3, [r2]
    1a40:	e3a0c00c 	mov	ip, #12
    1a44:	e59f306c 	ldr	r3, [pc, #108]	; 1ab8 <cc_tx_empty_isr+0x88>
    1a48:	ea000009 	b	1a74 <cc_tx_empty_isr+0x44>
    1a4c:	e020319c 	mla	r0, ip, r1, r3
    1a50:	e2811001 	add	r1, r1, #1
    1a54:	e5904008 	ldr	r4, [r0, #8]
    1a58:	e590500c 	ldr	r5, [r0, #12]
    1a5c:	e5900010 	ldr	r0, [r0, #16]
    1a60:	e201100f 	and	r1, r1, #15
    1a64:	e3500000 	cmp	r0, #0
    1a68:	e5831000 	str	r1, [r3]
    1a6c:	15825004 	strne	r5, [r2, #4]
    1a70:	e5824008 	str	r4, [r2, #8]
    1a74:	e5931000 	ldr	r1, [r3]
    1a78:	e5930004 	ldr	r0, [r3, #4]
    1a7c:	e1510000 	cmp	r1, r0
    1a80:	0a000006 	beq	1aa0 <cc_tx_empty_isr+0x70>
    1a84:	e5920000 	ldr	r0, [r2]
    1a88:	e3100101 	tst	r0, #1073741824	; 0x40000000
    1a8c:	0affffee 	beq	1a4c <cc_tx_empty_isr+0x1c>
    1a90:	e3a02001 	mov	r2, #1
    1a94:	e3a0342f 	mov	r3, #788529152	; 0x2f000000
    1a98:	e5832030 	str	r2, [r3, #48]	; 0x30
    1a9c:	ea000003 	b	1ab0 <cc_tx_empty_isr+0x80>
    1aa0:	e3a02b02 	mov	r2, #2048	; 0x800
    1aa4:	e3a0342f 	mov	r3, #788529152	; 0x2f000000
    1aa8:	e5832014 	str	r2, [r3, #20]
    1aac:	eafffff7 	b	1a90 <cc_tx_empty_isr+0x60>
    1ab0:	e8bd103f 	pop	{r0, r1, r2, r3, r4, r5, ip}
    1ab4:	e25ef004 	subs	pc, lr, #4
    1ab8:	00400604 	.word	0x00400604

00001abc <dma_done_isr>:
    1abc:	e24ee004 	sub	lr, lr, #4
    1ac0:	e92d503f 	push	{r0, r1, r2, r3, r4, r5, ip, lr}
    1ac4:	e3a03008 	mov	r3, #8
    1ac8:	e3a00101 	mov	r0, #1073741824	; 0x40000000
    1acc:	e5803010 	str	r3, [r0, #16]
    1ad0:	e59f3068 	ldr	r3, [pc, #104]	; 1b40 <dma_done_isr+0x84>
    1ad4:	e3a04014 	mov	r4, #20
    1ad8:	e593c000 	ldr	ip, [r3]
    1adc:	e5935004 	ldr	r5, [r3, #4]
    1ae0:	e0223c94 	mla	r2, r4, ip, r3
    1ae4:	e28cc001 	add	ip, ip, #1
    1ae8:	e20cc00f 	and	ip, ip, #15
    1aec:	e15c0005 	cmp	ip, r5
    1af0:	e5921008 	ldr	r1, [r2, #8]
    1af4:	e583c000 	str	ip, [r3]
    1af8:	e592200c 	ldr	r2, [r2, #12]
    1afc:	0a000005 	beq	1b18 <dma_done_isr+0x5c>
    1b00:	e0233c94 	mla	r3, r4, ip, r3
    1b04:	e2833010 	add	r3, r3, #16
    1b08:	e8931018 	ldm	r3, {r3, r4, ip}
    1b0c:	e5803004 	str	r3, [r0, #4]
    1b10:	e5804008 	str	r4, [r0, #8]
    1b14:	e580c00c 	str	ip, [r0, #12]
    1b18:	e59f3024 	ldr	r3, [pc, #36]	; 1b44 <dma_done_isr+0x88>
    1b1c:	e5933008 	ldr	r3, [r3, #8]
    1b20:	e3530000 	cmp	r3, #0
    1b24:	0a000001 	beq	1b30 <dma_done_isr+0x74>
    1b28:	e3a00001 	mov	r0, #1
    1b2c:	ebfff9fb 	bl	320 <schedule>
    1b30:	e3a02001 	mov	r2, #1
    1b34:	e3a0342f 	mov	r3, #788529152	; 0x2f000000
    1b38:	e5832030 	str	r2, [r3, #48]	; 0x30
    1b3c:	e8fd903f 	ldm	sp!, {r0, r1, r2, r3, r4, r5, ip, pc}^
    1b40:	00400480 	.word	0x00400480
    1b44:	004005d4 	.word	0x004005d4

00001b48 <dma_done_fiqsr>:
    1b48:	e24ee004 	sub	lr, lr, #4
    1b4c:	e92d503f 	push	{r0, r1, r2, r3, r4, r5, ip, lr}
    1b50:	e3a03008 	mov	r3, #8
    1b54:	e3a02101 	mov	r2, #1073741824	; 0x40000000
    1b58:	e5823010 	str	r3, [r2, #16]
    1b5c:	e59f3054 	ldr	r3, [pc, #84]	; 1bb8 <dma_done_fiqsr+0x70>
    1b60:	e3a0e014 	mov	lr, #20
    1b64:	e593c000 	ldr	ip, [r3]
    1b68:	e5934004 	ldr	r4, [r3, #4]
    1b6c:	e0213c9e 	mla	r1, lr, ip, r3
    1b70:	e28cc001 	add	ip, ip, #1
    1b74:	e20cc00f 	and	ip, ip, #15
    1b78:	e15c0004 	cmp	ip, r4
    1b7c:	e5910008 	ldr	r0, [r1, #8]
    1b80:	e583c000 	str	ip, [r3]
    1b84:	e591100c 	ldr	r1, [r1, #12]
    1b88:	0a000006 	beq	1ba8 <dma_done_fiqsr+0x60>
    1b8c:	e0233c9e 	mla	r3, lr, ip, r3
    1b90:	e593e014 	ldr	lr, [r3, #20]
    1b94:	e593c018 	ldr	ip, [r3, #24]
    1b98:	e5933010 	ldr	r3, [r3, #16]
    1b9c:	e5823004 	str	r3, [r2, #4]
    1ba0:	e582e008 	str	lr, [r2, #8]
    1ba4:	e582c00c 	str	ip, [r2, #12]
    1ba8:	e59f300c 	ldr	r3, [pc, #12]	; 1bbc <dma_done_fiqsr+0x74>
    1bac:	e5933008 	ldr	r3, [r3, #8]
    1bb0:	e12fff33 	blx	r3
    1bb4:	e8fd903f 	ldm	sp!, {r0, r1, r2, r3, r4, r5, ip, pc}^
    1bb8:	00400480 	.word	0x00400480
    1bbc:	004005d4 	.word	0x004005d4

00001bc0 <timer1_isr>:
    1bc0:	e24ee004 	sub	lr, lr, #4
    1bc4:	e92d500f 	push	{r0, r1, r2, r3, ip, lr}
    1bc8:	e3a02001 	mov	r2, #1
    1bcc:	e3a03421 	mov	r3, #553648128	; 0x21000000
    1bd0:	e583200c 	str	r2, [r3, #12]
    1bd4:	e59f3034 	ldr	r3, [pc, #52]	; 1c10 <timer1_isr+0x50>
    1bd8:	e5931000 	ldr	r1, [r3]
    1bdc:	e0811002 	add	r1, r1, r2
    1be0:	e5831000 	str	r1, [r3]
    1be4:	e59f3028 	ldr	r3, [pc, #40]	; 1c14 <timer1_isr+0x54>
    1be8:	e5933010 	ldr	r3, [r3, #16]
    1bec:	e3530000 	cmp	r3, #0
    1bf0:	0a000002 	beq	1c00 <timer1_isr+0x40>
    1bf4:	e3a00002 	mov	r0, #2
    1bf8:	e3a02000 	mov	r2, #0
    1bfc:	ebfff9c7 	bl	320 <schedule>
    1c00:	e3a02001 	mov	r2, #1
    1c04:	e3a0342f 	mov	r3, #788529152	; 0x2f000000
    1c08:	e5832030 	str	r2, [r3, #48]	; 0x30
    1c0c:	e8fd900f 	ldm	sp!, {r0, r1, r2, r3, ip, pc}^
    1c10:	004005cc 	.word	0x004005cc
    1c14:	004005d4 	.word	0x004005d4

00001c18 <timer1_fiqsr>:
    1c18:	e24ee004 	sub	lr, lr, #4
    1c1c:	e92d500f 	push	{r0, r1, r2, r3, ip, lr}
    1c20:	e3a02001 	mov	r2, #1
    1c24:	e3a03421 	mov	r3, #553648128	; 0x21000000
    1c28:	e583200c 	str	r2, [r3, #12]
    1c2c:	e59f301c 	ldr	r3, [pc, #28]	; 1c50 <timer1_fiqsr+0x38>
    1c30:	e3a01000 	mov	r1, #0
    1c34:	e5930000 	ldr	r0, [r3]
    1c38:	e0800002 	add	r0, r0, r2
    1c3c:	e5830000 	str	r0, [r3]
    1c40:	e59f300c 	ldr	r3, [pc, #12]	; 1c54 <timer1_fiqsr+0x3c>
    1c44:	e5933010 	ldr	r3, [r3, #16]
    1c48:	e12fff33 	blx	r3
    1c4c:	e8fd900f 	ldm	sp!, {r0, r1, r2, r3, ip, pc}^
    1c50:	004005cc 	.word	0x004005cc
    1c54:	004005d4 	.word	0x004005d4

00001c58 <soft_int_isr>:
    1c58:	e24ee004 	sub	lr, lr, #4
    1c5c:	e92d500f 	push	{r0, r1, r2, r3, ip, lr}
    1c60:	e3a02002 	mov	r2, #2
    1c64:	e3a0342f 	mov	r3, #788529152	; 0x2f000000
    1c68:	e583201c 	str	r2, [r3, #28]
    1c6c:	e59f303c 	ldr	r3, [pc, #60]	; 1cb0 <soft_int_isr+0x58>
    1c70:	e3a02000 	mov	r2, #0
    1c74:	e5c32000 	strb	r2, [r3]
    1c78:	e59f3034 	ldr	r3, [pc, #52]	; 1cb4 <soft_int_isr+0x5c>
    1c7c:	e5933020 	ldr	r3, [r3, #32]
    1c80:	e1530002 	cmp	r3, r2
    1c84:	0a000005 	beq	1ca0 <soft_int_isr+0x48>
    1c88:	e59f3028 	ldr	r3, [pc, #40]	; 1cb8 <soft_int_isr+0x60>
    1c8c:	e3a00004 	mov	r0, #4
    1c90:	e5931000 	ldr	r1, [r3]
    1c94:	e59f3020 	ldr	r3, [pc, #32]	; 1cbc <soft_int_isr+0x64>
    1c98:	e5932000 	ldr	r2, [r3]
    1c9c:	ebfff99f 	bl	320 <schedule>
    1ca0:	e3a02001 	mov	r2, #1
    1ca4:	e3a0342f 	mov	r3, #788529152	; 0x2f000000
    1ca8:	e5832030 	str	r2, [r3, #48]	; 0x30
    1cac:	e8fd900f 	ldm	sp!, {r0, r1, r2, r3, ip, pc}^
    1cb0:	00400034 	.word	0x00400034
    1cb4:	004005d4 	.word	0x004005d4
    1cb8:	004005d0 	.word	0x004005d0
    1cbc:	00400474 	.word	0x00400474

00001cc0 <soft_int_fiqsr>:
    1cc0:	e24ee004 	sub	lr, lr, #4
    1cc4:	e92d500f 	push	{r0, r1, r2, r3, ip, lr}
    1cc8:	e3a02002 	mov	r2, #2
    1ccc:	e3a0342f 	mov	r3, #788529152	; 0x2f000000
    1cd0:	e583201c 	str	r2, [r3, #28]
    1cd4:	e59f3024 	ldr	r3, [pc, #36]	; 1d00 <soft_int_fiqsr+0x40>
    1cd8:	e3a02000 	mov	r2, #0
    1cdc:	e5c32000 	strb	r2, [r3]
    1ce0:	e59f201c 	ldr	r2, [pc, #28]	; 1d04 <soft_int_fiqsr+0x44>
    1ce4:	e59f301c 	ldr	r3, [pc, #28]	; 1d08 <soft_int_fiqsr+0x48>
    1ce8:	e5920000 	ldr	r0, [r2]
    1cec:	e59f2018 	ldr	r2, [pc, #24]	; 1d0c <soft_int_fiqsr+0x4c>
    1cf0:	e5933020 	ldr	r3, [r3, #32]
    1cf4:	e5921000 	ldr	r1, [r2]
    1cf8:	e12fff33 	blx	r3
    1cfc:	e8fd900f 	ldm	sp!, {r0, r1, r2, r3, ip, pc}^
    1d00:	00400034 	.word	0x00400034
    1d04:	004005d0 	.word	0x004005d0
    1d08:	004005d4 	.word	0x004005d4
    1d0c:	00400474 	.word	0x00400474
    1d10:	6e657645 	.word	0x6e657645
    1d14:	65722074 	.word	0x65722074
    1d18:	76696563 	.word	0x76696563
    1d1c:	77206465 	.word	0x77206465
    1d20:	20687469 	.word	0x20687469
    1d24:	2079656b 	.word	0x2079656b
    1d28:	78383025 	.word	0x78383025
    1d2c:	6977202c 	.word	0x6977202c
    1d30:	756f6874 	.word	0x756f6874
    1d34:	61702074 	.word	0x61702074
    1d38:	616f6c79 	.word	0x616f6c79
    1d3c:	000a2164 	.word	0x000a2164
    1d40:	6e657645 	.word	0x6e657645
    1d44:	65722074 	.word	0x65722074
    1d48:	76696563 	.word	0x76696563
    1d4c:	77206465 	.word	0x77206465
    1d50:	20687469 	.word	0x20687469
    1d54:	2079656b 	.word	0x2079656b
    1d58:	78383025 	.word	0x78383025
    1d5c:	6170202c 	.word	0x6170202c
    1d60:	616f6c79 	.word	0x616f6c79
    1d64:	30252064 	.word	0x30252064
    1d68:	0a217838 	.word	0x0a217838
    1d6c:	79725400 	.word	0x79725400
    1d70:	20676e69 	.word	0x20676e69
    1d74:	65206f74 	.word	0x65206f74
    1d78:	6c62616e 	.word	0x6c62616e
    1d7c:	65722065 	.word	0x65722065
    1d80:	616e6974 	.word	0x616e6974
    1d84:	65766520 	.word	0x65766520
    1d88:	7320746e 	.word	0x7320746e
    1d8c:	61657274 	.word	0x61657274
    1d90:	676e696d 	.word	0x676e696d
    1d94:	7254000a 	.word	0x7254000a
    1d98:	676e6979 	.word	0x676e6979
    1d9c:	206f7420 	.word	0x206f7420
    1da0:	20746573 	.word	0x20746573
    1da4:	656e2061 	.word	0x656e2061
    1da8:	65722077 	.word	0x65722077
    1dac:	616e6974 	.word	0x616e6974
    1db0:	79656b20 	.word	0x79656b20
    1db4:	3025203a 	.word	0x3025203a
    1db8:	202c7838 	.word	0x202c7838
    1dbc:	73207962 	.word	0x73207962
    1dc0:	69646e65 	.word	0x69646e65
    1dc4:	6320676e 	.word	0x6320676e
    1dc8:	616d6d6f 	.word	0x616d6d6f
    1dcc:	203a646e 	.word	0x203a646e
    1dd0:	78383025 	.word	0x78383025
    1dd4:	54000a2e 	.word	0x54000a2e
    1dd8:	6e697972 	.word	0x6e697972
    1ddc:	6f742067 	.word	0x6f742067
    1de0:	73696420 	.word	0x73696420
    1de4:	656c6261 	.word	0x656c6261
    1de8:	65766520 	.word	0x65766520
    1dec:	7320746e 	.word	0x7320746e
    1df0:	61657274 	.word	0x61657274
    1df4:	676e696d 	.word	0x676e696d
    1df8:	7469000a 	.word	0x7469000a
    1dfc:	74617265 	.word	0x74617265
    1e00:	206e6f69 	.word	0x206e6f69
    1e04:	000a6425 	.word	0x000a6425
    1e08:	74746553 	.word	0x74746553
    1e0c:	20676e69 	.word	0x20676e69
    1e10:	74756f72 	.word	0x74756f72
    1e14:	20676e69 	.word	0x20676e69
    1e18:	6c626174 	.word	0x6c626174
    1e1c:	6e6f2065 	.word	0x6e6f2065
    1e20:	68632820 	.word	0x68632820
    1e24:	203a7069 	.word	0x203a7069
    1e28:	202c6425 	.word	0x202c6425
    1e2c:	65726f63 	.word	0x65726f63
    1e30:	6425203a 	.word	0x6425203a
    1e34:	2e2e2e29 	.word	0x2e2e2e29
    1e38:	0000000a 	.word	0x0000000a

00001e3c <build_name>:
    1e3c:	69746572 6574616e 00007473              retinatest..

00001e48 <build_date>:
    1e48:	53b54810 4b524153 6970532f 6b614e4e     .H.SSARK/SpiNNak
    1e58:	30007265                                         er.

00001e5b <hex>:
    1e5b:	33323130 37363534 62613938 66656463     0123456789abcdef
    1e6b:	5b090900 5f697061 75626564 52205d67     ...[api_debug] R
    1e7b:	6d205254 20202063 61702020 74656b63     TR mc     packet
    1e8b:	25203a73 09000a64 70615b09 65645f69     s: %d....[api_de
    1e9b:	5d677562 52545220 64706420 20636d20     bug] RTR dpd mc 
    1eab:	6b636170 3a737465 0a642520 5b090900     packets: %d....[
    1ebb:	5f697061 75626564 49205d67 74205253     api_debug] ISR t
    1ecb:	776f7268 6170206e 74656b63 25203a73     hrown packets: %
    1edb:	09000a64 70615b09 65645f69 5d677562     d....[api_debug]
    1eeb:	414d4420 72756220 3a737473 64252020      DMA bursts:  %d
    1efb:	0909000a 6970615b 7261775f 77205d6e     ....[api_warn] w
    1f0b:	696e7261 203a676e 6b736174 65757120     arning: task que
    1f1b:	66206575 206c6c75 29752528 0909000a     ue full (%u)....
    1f2b:	6970615b 7261775f 77205d6e 696e7261     [api_warn] warni
    1f3b:	203a676e 20414d44 75657571 75662065     ng: DMA queue fu
    1f4b:	28206c6c 0a297525 5b090900 5f697061     ll (%u)....[api_
    1f5b:	6e726177 6177205d 6e696e72 70203a67     warn] warning: p
    1f6b:	656b6361 75712074 20657565 6c6c7566     acket queue full
    1f7b:	75252820 00000a29                                 (%u)..
