
spike_source_remote_poisson_rbf.elf:     file format elf32-littlearm
spike_source_remote_poisson_rbf.elf
architecture: armv5te, flags 0x00000112:
EXEC_P, HAS_SYMS, D_PAGED
start address 0x00000000

Program Header:
0x70000001 off    0x0000e270 vaddr 0x00006270 paddr 0x00006270 align 2**2
         filesz 0x00000008 memsz 0x00000008 flags r--
    LOAD off    0x00008000 vaddr 0x00000000 paddr 0x00000000 align 2**15
         filesz 0x00006278 memsz 0x00006278 flags r-x
    LOAD off    0x00010000 vaddr 0x00400000 paddr 0x00400000 align 2**15
         filesz 0x00000474 memsz 0x00000c58 flags rw-
private flags = 5000200: [Version5 EABI] [soft-float ABI]

Sections:
Idx Name          Size      VMA       LMA       File off  Algn
  0 RO_DATA       00006270  00000000  00000000  00008000  2**3
                  CONTENTS, ALLOC, LOAD, READONLY, CODE
  1 .ARM.exidx    00000008  00006270  00006270  0000e270  2**2
                  CONTENTS, ALLOC, LOAD, READONLY, DATA
  2 RW_DATA       00000474  00400000  00400000  00010000  2**3
                  CONTENTS, ALLOC, LOAD, DATA
  3 ZI_DATA       000007e4  00400474  00400474  00010474  2**2
                  ALLOC
  4 .comment      0000004f  00000000  00000000  00010474  2**0
                  CONTENTS, READONLY
  5 .ARM.attributes 00000029  00000000  00000000  000104c3  2**0
                  CONTENTS, READONLY
  6 .debug_info   0000647d  00000000  00000000  000104ec  2**0
                  CONTENTS, READONLY, DEBUGGING
  7 .debug_abbrev 00002344  00000000  00000000  00016969  2**0
                  CONTENTS, READONLY, DEBUGGING
  8 .debug_loc    00003189  00000000  00000000  00018cad  2**0
                  CONTENTS, READONLY, DEBUGGING
  9 .debug_aranges 00000770  00000000  00000000  0001be38  2**3
                  CONTENTS, READONLY, DEBUGGING
 10 .debug_ranges 00000220  00000000  00000000  0001c5a8  2**0
                  CONTENTS, READONLY, DEBUGGING
 11 .debug_line   000024d5  00000000  00000000  0001c7c8  2**0
                  CONTENTS, READONLY, DEBUGGING
 12 .debug_str    00000f60  00000000  00000000  0001ec9d  2**0
                  CONTENTS, READONLY, DEBUGGING
 13 .debug_frame  00000760  00000000  00000000  0001fc00  2**2
                  CONTENTS, READONLY, DEBUGGING
SYMBOL TABLE:
00000000 l    d  RO_DATA	00000000 RO_DATA
00006270 l    d  .ARM.exidx	00000000 .ARM.exidx
00400000 l    d  RW_DATA	00000000 RW_DATA
00400474 l    d  ZI_DATA	00000000 ZI_DATA
00000000 l    d  .comment	00000000 .comment
00000000 l    d  .ARM.attributes	00000000 .ARM.attributes
00000000 l    d  .debug_info	00000000 .debug_info
00000000 l    d  .debug_abbrev	00000000 .debug_abbrev
00000000 l    d  .debug_loc	00000000 .debug_loc
00000000 l    d  .debug_aranges	00000000 .debug_aranges
00000000 l    d  .debug_ranges	00000000 .debug_ranges
00000000 l    d  .debug_line	00000000 .debug_line
00000000 l    d  .debug_str	00000000 .debug_str
00000000 l    d  .debug_frame	00000000 .debug_frame
00000000 l    df *ABS*	00000000 sark_alib.o
00000001 l       *ABS*	00000000 GNU
00000000 l       *ABS*	00000000 NULL
80000000 l       *ABS*	00000000 BIT_31
00000001 l       *ABS*	00000000 BUF_WRITE
00000012 l       *ABS*	00000000 NUM_CPUS
00000006 l       *ABS*	00000000 NUM_LINKS
00000000 l       *ABS*	00000000 ITCM_BASE
00008000 l       *ABS*	00000000 ITCM_SIZE
00008000 l       *ABS*	00000000 ITCM_TOP
00400000 l       *ABS*	00000000 DTCM_BASE
00010000 l       *ABS*	00000000 DTCM_SIZE
00410000 l       *ABS*	00000000 DTCM_TOP
70000000 l       *ABS*	00000000 SDRAM_BASE_UNBUF
60000000 l       *ABS*	00000000 SDRAM_BASE_BUF
60000000 l       *ABS*	00000000 SDRAM_BASE
08000000 l       *ABS*	00000000 SDRAM_SIZE
68000000 l       *ABS*	00000000 SDRAM_TOP
f5000000 l       *ABS*	00000000 SYSRAM_BASE_UNBUF
e5000000 l       *ABS*	00000000 SYSRAM_BASE_BUF
e5000000 l       *ABS*	00000000 SYSRAM_BASE
00008000 l       *ABS*	00000000 SYSRAM_SIZE
e5008000 l       *ABS*	00000000 SYSRAM_TOP
f6000000 l       *ABS*	00000000 ROM_BASE
00008000 l       *ABS*	00000000 ROM_SIZE
f6008000 l       *ABS*	00000000 ROM_TOP
10000000 l       *ABS*	00000000 CC_BASE_UNBUF
20000000 l       *ABS*	00000000 CC_BASE_BUF
20000000 l       *ABS*	00000000 CC_BASE
00000000 l       *ABS*	00000000 CC_TCR
00000004 l       *ABS*	00000000 CC_TXDATA
00000008 l       *ABS*	00000000 CC_TXKEY
0000000c l       *ABS*	00000000 CC_RSR
00000010 l       *ABS*	00000000 CC_RXDATA
00000014 l       *ABS*	00000000 CC_RXKEY
00000018 l       *ABS*	00000000 CC_SAR
0000001c l       *ABS*	00000000 CC_TEST
11000000 l       *ABS*	00000000 TIMER_BASE_UNBUF
21000000 l       *ABS*	00000000 TIMER_BASE_BUF
21000000 l       *ABS*	00000000 TIMER_BASE
00000020 l       *ABS*	00000000 TIMER_OFFSET
21000000 l       *ABS*	00000000 TIMER1_BASE
21000020 l       *ABS*	00000000 TIMER2_BASE
00000000 l       *ABS*	00000000 TC_LOAD
00000004 l       *ABS*	00000000 TC_COUNT
00000008 l       *ABS*	00000000 TC_CONTROL
0000000c l       *ABS*	00000000 TC_INT_CLR
00000010 l       *ABS*	00000000 TC_RAW_INT
00000014 l       *ABS*	00000000 TC_MASK_INT
00000018 l       *ABS*	00000000 TC_BG_LOAD
00000000 l       *ABS*	00000000 T1_LOAD
00000004 l       *ABS*	00000000 T1_COUNT
00000008 l       *ABS*	00000000 T1_CONTROL
0000000c l       *ABS*	00000000 T1_INT_CLR
00000010 l       *ABS*	00000000 T1_RAW_INT
00000014 l       *ABS*	00000000 T1_MASK_INT
00000018 l       *ABS*	00000000 T1_BG_LOAD
00000020 l       *ABS*	00000000 T2_LOAD
00000024 l       *ABS*	00000000 T2_COUNT
00000028 l       *ABS*	00000000 T2_CONTROL
0000002c l       *ABS*	00000000 T2_INT_CLR
00000030 l       *ABS*	00000000 T2_RAW_INT
00000034 l       *ABS*	00000000 T2_MASK_INT
00000038 l       *ABS*	00000000 T2_BG_LOAD
1f000000 l       *ABS*	00000000 VIC_BASE_UNBUF
2f000000 l       *ABS*	00000000 VIC_BASE_BUF
2f000000 l       *ABS*	00000000 VIC_BASE
00000000 l       *ABS*	00000000 VIC_IRQST
00000004 l       *ABS*	00000000 VIC_FIQST
00000008 l       *ABS*	00000000 VIC_RAW
0000000c l       *ABS*	00000000 VIC_SELECT
00000010 l       *ABS*	00000000 VIC_ENABLE
00000014 l       *ABS*	00000000 VIC_DISABLE
00000018 l       *ABS*	00000000 VIC_SOFT_SET
0000001c l       *ABS*	00000000 VIC_SOFT_CLR
00000020 l       *ABS*	00000000 VIC_PROTECT
00000030 l       *ABS*	00000000 VIC_VADDR
00000034 l       *ABS*	00000000 VIC_DEFADDR
00000100 l       *ABS*	00000000 VIC_ADDR
00000100 l       *ABS*	00000000 VIC_ADDR0
00000104 l       *ABS*	00000000 VIC_ADDR1
00000108 l       *ABS*	00000000 VIC_ADDR2
0000010c l       *ABS*	00000000 VIC_ADDR3
00000110 l       *ABS*	00000000 VIC_ADDR4
00000114 l       *ABS*	00000000 VIC_ADDR5
00000118 l       *ABS*	00000000 VIC_ADDR6
0000011c l       *ABS*	00000000 VIC_ADDR7
00000120 l       *ABS*	00000000 VIC_ADDR8
00000124 l       *ABS*	00000000 VIC_ADDR9
00000128 l       *ABS*	00000000 VIC_ADDR10
0000012c l       *ABS*	00000000 VIC_ADDR11
00000130 l       *ABS*	00000000 VIC_ADDR12
00000134 l       *ABS*	00000000 VIC_ADDR13
00000138 l       *ABS*	00000000 VIC_ADDR14
0000013c l       *ABS*	00000000 VIC_ADDR15
00000200 l       *ABS*	00000000 VIC_CNTL
00000200 l       *ABS*	00000000 VIC_CNTL0
00000204 l       *ABS*	00000000 VIC_CNTL1
00000208 l       *ABS*	00000000 VIC_CNTL2
0000020c l       *ABS*	00000000 VIC_CNTL3
00000210 l       *ABS*	00000000 VIC_CNTL4
00000214 l       *ABS*	00000000 VIC_CNTL5
00000218 l       *ABS*	00000000 VIC_CNTL6
0000021c l       *ABS*	00000000 VIC_CNTL7
00000220 l       *ABS*	00000000 VIC_CNTL8
00000224 l       *ABS*	00000000 VIC_CNTL9
00000228 l       *ABS*	00000000 VIC_CNTL10
0000022c l       *ABS*	00000000 VIC_CNTL11
00000230 l       *ABS*	00000000 VIC_CNTL12
00000234 l       *ABS*	00000000 VIC_CNTL13
00000238 l       *ABS*	00000000 VIC_CNTL14
0000023c l       *ABS*	00000000 VIC_CNTL15
00000000 l       *ABS*	00000000 WDOG_INT
00000001 l       *ABS*	00000000 SOFTWARE_INT
00000002 l       *ABS*	00000000 COMM_RX_INT
00000003 l       *ABS*	00000000 COMM_TX_INT
00000004 l       *ABS*	00000000 TIMER1_INT
00000005 l       *ABS*	00000000 TIMER2_INT
00000006 l       *ABS*	00000000 CC_RDY_INT
00000007 l       *ABS*	00000000 CC_RPE_INT
00000008 l       *ABS*	00000000 CC_RFE_INT
00000009 l       *ABS*	00000000 CC_TFL_INT
0000000a l       *ABS*	00000000 CC_TOV_INT
0000000b l       *ABS*	00000000 CC_TMT_INT
0000000c l       *ABS*	00000000 DMA_DONE_INT
0000000d l       *ABS*	00000000 DMA_ERR_INT
0000000e l       *ABS*	00000000 DMA_TO_INT
0000000f l       *ABS*	00000000 RTR_DIAG_INT
00000010 l       *ABS*	00000000 RTR_DUMP_INT
00000011 l       *ABS*	00000000 RTR_ERR_INT
00000012 l       *ABS*	00000000 CPU_INT
00000013 l       *ABS*	00000000 ETH_TX_INT
00000014 l       *ABS*	00000000 ETH_RX_INT
00000015 l       *ABS*	00000000 ETH_PHY_INT
00000016 l       *ABS*	00000000 SLOW_CLK_INT
00000017 l       *ABS*	00000000 CC_TNF_INT
00000018 l       *ABS*	00000000 CC_MC_INT
00000019 l       *ABS*	00000000 CC_P2P_INT
0000001a l       *ABS*	00000000 CC_NN_INT
0000001b l       *ABS*	00000000 CC_FR_INT
0000001c l       *ABS*	00000000 INT0_INT
0000001d l       *ABS*	00000000 INT1_INT
0000001e l       *ABS*	00000000 GPIO8_INT
0000001f l       *ABS*	00000000 GPIO9_INT
30000000 l       *ABS*	00000000 DMA_BASE_UNBUF
40000000 l       *ABS*	00000000 DMA_BASE_BUF
40000000 l       *ABS*	00000000 DMA_BASE
00000004 l       *ABS*	00000000 DMA_ADRS
00000008 l       *ABS*	00000000 DMA_ADRT
0000000c l       *ABS*	00000000 DMA_DESC
00000010 l       *ABS*	00000000 DMA_CTRL
00000014 l       *ABS*	00000000 DMA_STAT
00000018 l       *ABS*	00000000 DMA_GCTL
0000001c l       *ABS*	00000000 DMA_CRCC
00000020 l       *ABS*	00000000 DMA_CRCR
00000024 l       *ABS*	00000000 DMA_TMTV
00000028 l       *ABS*	00000000 DMA_SCTL
00000040 l       *ABS*	00000000 DMA_STAT0
00000044 l       *ABS*	00000000 DMA_STAT1
00000048 l       *ABS*	00000000 DMA_STAT2
0000004c l       *ABS*	00000000 DMA_STAT3
00000050 l       *ABS*	00000000 DMA_STAT4
00000054 l       *ABS*	00000000 DMA_STAT5
00000058 l       *ABS*	00000000 DMA_STAT6
0000005c l       *ABS*	00000000 DMA_STAT7
00000104 l       *ABS*	00000000 DMA_AD2S
00000108 l       *ABS*	00000000 DMA_AD2T
0000010c l       *ABS*	00000000 DMA_DES2
00000180 l       *ABS*	00000000 DMA_CRCT
f0000000 l       *ABS*	00000000 PL340_BASE_UNBUF
e0000000 l       *ABS*	00000000 PL340_BASE_BUF
e0000000 l       *ABS*	00000000 PL340_BASE
00000000 l       *ABS*	00000000 MC_STAT
00000004 l       *ABS*	00000000 MC_CMD
00000008 l       *ABS*	00000000 MC_DIRC
0000000c l       *ABS*	00000000 MC_MCFG
00000010 l       *ABS*	00000000 MC_REFP
00000014 l       *ABS*	00000000 MC_CASL
00000018 l       *ABS*	00000000 MC_DQSS
0000001c l       *ABS*	00000000 MC_MRD
00000020 l       *ABS*	00000000 MC_RAS
00000024 l       *ABS*	00000000 MC_RC
00000028 l       *ABS*	00000000 MC_RCD
0000002c l       *ABS*	00000000 MC_RFC
00000030 l       *ABS*	00000000 MC_RP
00000034 l       *ABS*	00000000 MC_RRD
00000038 l       *ABS*	00000000 MC_WR
0000003c l       *ABS*	00000000 MC_WTR
00000040 l       *ABS*	00000000 MC_XP
00000044 l       *ABS*	00000000 MC_XSR
00000048 l       *ABS*	00000000 MC_ESR
0000004c l       *ABS*	00000000 MC_MCFG2
00000050 l       *ABS*	00000000 MC_MCFG3
00000100 l       *ABS*	00000000 MC_QOS0
00000104 l       *ABS*	00000000 MC_QOS1
00000108 l       *ABS*	00000000 MC_QOS2
0000010c l       *ABS*	00000000 MC_QOS3
00000110 l       *ABS*	00000000 MC_QOS4
00000114 l       *ABS*	00000000 MC_QOS5
00000118 l       *ABS*	00000000 MC_QOS6
0000011c l       *ABS*	00000000 MC_QOS7
00000120 l       *ABS*	00000000 MC_QOS8
00000124 l       *ABS*	00000000 MC_QOS9
00000128 l       *ABS*	00000000 MC_QOS10
0000012c l       *ABS*	00000000 MC_QOS11
00000130 l       *ABS*	00000000 MC_QOS12
00000134 l       *ABS*	00000000 MC_QOS13
00000138 l       *ABS*	00000000 MC_QOS14
0000013c l       *ABS*	00000000 MC_QOS15
00000200 l       *ABS*	00000000 MC_CCFG0
00000204 l       *ABS*	00000000 MC_CCFG1
00000208 l       *ABS*	00000000 MC_CCFG2
0000020c l       *ABS*	00000000 MC_CCFG3
00000300 l       *ABS*	00000000 DLL_STATUS
00000304 l       *ABS*	00000000 DLL_CONFIG0
00000308 l       *ABS*	00000000 DLL_CONFIG1
f1000000 l       *ABS*	00000000 RTR_BASE_UNBUF
e1000000 l       *ABS*	00000000 RTR_BASE_BUF
e1000000 l       *ABS*	00000000 RTR_BASE
00000000 l       *ABS*	00000000 RTR_CONTROL
00000004 l       *ABS*	00000000 RTR_STATUS
00000008 l       *ABS*	00000000 RTR_EHDR
0000000c l       *ABS*	00000000 RTR_EKEY
00000010 l       *ABS*	00000000 RTR_EDAT
00000014 l       *ABS*	00000000 RTR_ESTAT
00000018 l       *ABS*	00000000 RTR_DHDR
0000001c l       *ABS*	00000000 RTR_DKEY
00000020 l       *ABS*	00000000 RTR_DDAT
00000024 l       *ABS*	00000000 RTR_DLINK
00000028 l       *ABS*	00000000 RTR_DSTAT
0000002c l       *ABS*	00000000 RTR_DGEN
00000200 l       *ABS*	00000000 RTR_DGF0
00000204 l       *ABS*	00000000 RTR_DGF1
00000208 l       *ABS*	00000000 RTR_DGF2
0000020c l       *ABS*	00000000 RTR_DGF3
00000210 l       *ABS*	00000000 RTR_DGF4
00000214 l       *ABS*	00000000 RTR_DGF5
00000218 l       *ABS*	00000000 RTR_DGF6
0000021c l       *ABS*	00000000 RTR_DGF7
00000220 l       *ABS*	00000000 RTR_DGF8
00000224 l       *ABS*	00000000 RTR_DGF9
00000228 l       *ABS*	00000000 RTR_DGF10
0000022c l       *ABS*	00000000 RTR_DGF11
00000230 l       *ABS*	00000000 RTR_DGF12
00000234 l       *ABS*	00000000 RTR_DGF13
00000238 l       *ABS*	00000000 RTR_DGF14
0000023c l       *ABS*	00000000 RTR_DGF15
00000300 l       *ABS*	00000000 RTR_DGC0
00000304 l       *ABS*	00000000 RTR_DGC1
00000308 l       *ABS*	00000000 RTR_DGC2
0000030c l       *ABS*	00000000 RTR_DGC3
00000310 l       *ABS*	00000000 RTR_DGC4
00000314 l       *ABS*	00000000 RTR_DGC5
00000318 l       *ABS*	00000000 RTR_DGC6
0000031c l       *ABS*	00000000 RTR_DGC7
00000320 l       *ABS*	00000000 RTR_DGC8
00000324 l       *ABS*	00000000 RTR_DGC9
00000328 l       *ABS*	00000000 RTR_DGC10
0000032c l       *ABS*	00000000 RTR_DGC11
00000330 l       *ABS*	00000000 RTR_DGC12
00000334 l       *ABS*	00000000 RTR_DGC13
00000338 l       *ABS*	00000000 RTR_DGC14
0000033c l       *ABS*	00000000 RTR_DGC15
00000f00 l       *ABS*	00000000 RTR_TST1
00000f04 l       *ABS*	00000000 RTR_TST2
00002000 l       *ABS*	00000000 P2P_TABLE_SIZE
00000400 l       *ABS*	00000000 MC_TABLE_SIZE
00000018 l       *ABS*	00000000 MC_RAM_WIDTH
00ffffff l       *ABS*	00000000 MC_RAM_MASK
00000008 l       *ABS*	00000000 P2P_EPW
00000003 l       *ABS*	00000000 P2P_LOG_EPW
00000007 l       *ABS*	00000000 P2P_EMASK
00000003 l       *ABS*	00000000 P2P_BPE
00000007 l       *ABS*	00000000 P2P_BMASK
00db6db6 l       *ABS*	00000000 P2P_INIT
e1004000 l       *ABS*	00000000 RTR_MCRAM_BASE
e1005000 l       *ABS*	00000000 RTR_MCRAM_TOP
e1008000 l       *ABS*	00000000 RTR_MCKEY_BASE
e1009000 l       *ABS*	00000000 RTR_MCKEY_TOP
e100c000 l       *ABS*	00000000 RTR_MCMASK_BASE
e100d000 l       *ABS*	00000000 RTR_MCMASK_TOP
e1010000 l       *ABS*	00000000 RTR_P2P_BASE
e1018000 l       *ABS*	00000000 RTR_P2P_TOP
00000020 l       *ABS*	00000000 MC_CAM_WIDTH
f2000000 l       *ABS*	00000000 SYSCTL_BASE_UNBUF
e2000000 l       *ABS*	00000000 SYSCTL_BASE_BUF
e2000000 l       *ABS*	00000000 SYSCTL_BASE
5ec00000 l       *ABS*	00000000 SC_CODE
59111012 l       *ABS*	00000000 CHIP_ID_CODE
00000000 l       *ABS*	00000000 SC_CHIP_ID
00000004 l       *ABS*	00000000 SC_CPU_DIS
00000008 l       *ABS*	00000000 SC_SET_IRQ
0000000c l       *ABS*	00000000 SC_CLR_IRQ
00000010 l       *ABS*	00000000 SC_SET_OK
00000010 l       *ABS*	00000000 SC_CPU_OK
00000014 l       *ABS*	00000000 SC_CLR_OK
00000018 l       *ABS*	00000000 SC_SOFT_RST_L
0000001c l       *ABS*	00000000 SC_HARD_RST_L
00000020 l       *ABS*	00000000 SC_SUBS_RST_L
00000024 l       *ABS*	00000000 SC_SOFT_RST_P
00000028 l       *ABS*	00000000 SC_HARD_RST_P
0000002c l       *ABS*	00000000 SC_SUBS_RST_P
00000030 l       *ABS*	00000000 SC_RST_CODE
00000034 l       *ABS*	00000000 SC_MON_ID
00000038 l       *ABS*	00000000 SC_MISC_CTRL
0000003c l       *ABS*	00000000 GPIO_RES
00000040 l       *ABS*	00000000 GPIO_PORT
00000044 l       *ABS*	00000000 GPIO_DIR
00000048 l       *ABS*	00000000 GPIO_SET
0000004c l       *ABS*	00000000 GPIO_CLR
00000048 l       *ABS*	00000000 GPIO_READ
00000050 l       *ABS*	00000000 SC_PLL1
00000054 l       *ABS*	00000000 SC_PLL2
00000058 l       *ABS*	00000000 SC_FLAG
00000058 l       *ABS*	00000000 SC_SETFLAG
0000005c l       *ABS*	00000000 SC_CLRFLAG
00000060 l       *ABS*	00000000 SC_CLKMUX
00000064 l       *ABS*	00000000 SC_SLEEP
00000068 l       *ABS*	00000000 SC_TS0
0000006c l       *ABS*	00000000 SC_TS1
00000070 l       *ABS*	00000000 SC_TS2
00000080 l       *ABS*	00000000 SC_ARB0
00000100 l       *ABS*	00000000 SC_TAS0
00000180 l       *ABS*	00000000 SC_TAC0
00000200 l       *ABS*	00000000 SC_LINK_DIS
00000000 l       *ABS*	00000000 RST_POR
00000001 l       *ABS*	00000000 RST_WDT
00000002 l       *ABS*	00000000 RST_USER
00000003 l       *ABS*	00000000 RST_SW
00000004 l       *ABS*	00000000 RST_WDI
f3000000 l       *ABS*	00000000 WDOG_BASE_UNBUF
e3000000 l       *ABS*	00000000 WDOG_BASE_BUF
e3000000 l       *ABS*	00000000 WDOG_BASE
00000000 l       *ABS*	00000000 WD_LOAD
00000004 l       *ABS*	00000000 WD_COUNT
00000008 l       *ABS*	00000000 WD_CTRL
0000000c l       *ABS*	00000000 WD_INTCLR
00000010 l       *ABS*	00000000 WD_RAWINT
00000014 l       *ABS*	00000000 WD_MSKINT
00000c00 l       *ABS*	00000000 WD_LOCK
1acce551 l       *ABS*	00000000 WD_CODE
00000001 l       *ABS*	00000000 WD_INT_B
00000002 l       *ABS*	00000000 WD_RST_B
f4000000 l       *ABS*	00000000 ETH_BASE_UNBUF
e4000000 l       *ABS*	00000000 ETH_BASE_BUF
e4000000 l       *ABS*	00000000 ETH_BASE
e4000000 l       *ABS*	00000000 ETH_TX_BASE
00000600 l       *ABS*	00000000 ETH_TX_SIZE
e4000600 l       *ABS*	00000000 ETH_TX_TOP
e4004000 l       *ABS*	00000000 ETH_RX_BASE
00000c00 l       *ABS*	00000000 ETH_RX_SIZE
e4004c00 l       *ABS*	00000000 ETH_RX_TOP
e4008000 l       *ABS*	00000000 ETH_RX_DESC_RAM
e400c000 l       *ABS*	00000000 ETH_REGS
00000000 l       *ABS*	00000000 ETH_CONTROL
00000004 l       *ABS*	00000000 ETH_STATUS
00000008 l       *ABS*	00000000 ETH_TX_LEN
0000000c l       *ABS*	00000000 ETH_TX_CMD
00000010 l       *ABS*	00000000 ETH_RX_CMD
00000014 l       *ABS*	00000000 ETH_MAC_LO
00000018 l       *ABS*	00000000 ETH_MAC_HI
0000001c l       *ABS*	00000000 ETH_PHY_CTRL
00000020 l       *ABS*	00000000 ETH_INT_CLR
00000024 l       *ABS*	00000000 ETH_RX_BUF_RP
0000002c l       *ABS*	00000000 ETH_RX_DESC_RP
00000001 l       *ABS*	00000000 ETH_TX_CLR
00000010 l       *ABS*	00000000 ETH_RX_CLR
00000001 l       *ABS*	00000000 PHY_CTRL_NRST
00000002 l       *ABS*	00000000 PHY_CTRL_DIN
00000004 l       *ABS*	00000000 PHY_CTRL_DOUT
00000008 l       *ABS*	00000000 PHY_CTRL_OE
00000010 l       *ABS*	00000000 PHY_CTRL_CLK
00000000 l       *ABS*	00000000 PKT_MC
00400000 l       *ABS*	00000000 PKT_P2P
00800000 l       *ABS*	00000000 PKT_NN
00a00000 l       *ABS*	00000000 PKT_NND
00c00000 l       *ABS*	00000000 PKT_FR
00020000 l       *ABS*	00000000 PKT_PL
00020000 l       *ABS*	00000000 PKT_MC_PL
00420000 l       *ABS*	00000000 PKT_P2P_PL
00820000 l       *ABS*	00000000 PKT_NN_PL
00c20000 l       *ABS*	00000000 PKT_FR_PL
0000000a l       *ABS*	00000000 CLK_XTAL_MHZ
0007011a l       *ABS*	00000000 PLL_260
0007011e l       *ABS*	00000000 PLL_300
00070121 l       *ABS*	00000000 PLL_330
00070128 l       *ABS*	00000000 PLL_400
00000050 l       *ABS*	00000000 PLL_LOCK_TIME
809488a5 l       *ABS*	00000000 PLL_CLK_SEL
00000020 l       *ABS*	00000000 SERIAL_NCS
00000010 l       *ABS*	00000000 SERIAL_CLK
00000008 l       *ABS*	00000000 SERIAL_SI
00000004 l       *ABS*	00000000 SERIAL_SO
00000038 l       *ABS*	00000000 SERIAL_OE
80000000 l       *ABS*	00000000 SDRAM_TQ
40000000 l       *ABS*	00000000 SDRAM_DPD
20000000 l       *ABS*	00000000 SDRAM_HERE
00000001 l       *ABS*	00000000 LED_0
00000010 l       *ABS*	00000000 MODE_USER
00000011 l       *ABS*	00000000 MODE_FIQ
00000012 l       *ABS*	00000000 MODE_IRQ
00000013 l       *ABS*	00000000 MODE_SVC
00000017 l       *ABS*	00000000 MODE_ABT
0000001b l       *ABS*	00000000 MODE_UND
0000001f l       *ABS*	00000000 MODE_SYS
00000020 l       *ABS*	00000000 THUMB_BIT
00000080 l       *ABS*	00000000 IMASK_IRQ
00000040 l       *ABS*	00000000 IMASK_FIQ
000000c0 l       *ABS*	00000000 IMASK_ALL
00000001 l       *ABS*	00000000 SARK_EVENT
00000180 l       *ABS*	00000000 SVC_STACK
00000100 l       *ABS*	00000000 IRQ_STACK
00000100 l       *ABS*	00000000 FIQ_STACK
00000004 l       *ABS*	00000000 NUM_SDP_MSGS
0000000f l       *ABS*	00000000 SARK_SLOT
00000010 l       *ABS*	00000000 INIT_EVENTS
deaddead l       *ABS*	00000000 DEAD_WORD
00000001 l       *ABS*	00000000 APLX_ACOPY
00000002 l       *ABS*	00000000 APLX_RCOPY
00000003 l       *ABS*	00000000 APLX_FILL
00000004 l       *ABS*	00000000 APLX_EXEC
000000ff l       *ABS*	00000000 APLX_END
00000010 l       *ABS*	00000000 APLX_ENTRY_SIZE
00000040 l       *ABS*	00000000 APLX_BUF_SIZE
00007fc0 l       *ABS*	00000000 APLX_BUFFER
000000ff l       *ABS*	00000000 TAG_NONE
00000000 l       *ABS*	00000000 TAG_HOST
00000001 l       *ABS*	00000000 RTR_ALLOC_FIRST
00000400 l       *ABS*	00000000 RTR_ALLOC_LAST
000003ff l       *ABS*	00000000 RTR_ALLOC_MAX
00000001 l       *ABS*	00000000 ALLOC_LOCK
00000002 l       *ABS*	00000000 ALLOC_ID
00000005 l       *ABS*	00000000 A_LOCK_SEMA
00000001 l       *ABS*	00000000 A_RTE_RESET
00000002 l       *ABS*	00000000 A_RTE_UNDEF
00000003 l       *ABS*	00000000 A_RTE_SVC
00000004 l       *ABS*	00000000 A_RTE_PABT
00000005 l       *ABS*	00000000 A_RTE_DABT
00000006 l       *ABS*	00000000 A_RTE_IRQ
00000007 l       *ABS*	00000000 A_RTE_FIQ
00000008 l       *ABS*	00000000 A_RTE_VIC
00000002 l       *ABS*	00000000 A_STATE_RTE
00000006 l       *ABS*	00000000 EVENT_COUNT
00000000 l       *ABS*	00000000 CMD_VER
00000001 l       *ABS*	00000000 CMD_RUN
00000002 l       *ABS*	00000000 CMD_READ
00000003 l       *ABS*	00000000 CMD_WRITE
00000004 l       *ABS*	00000000 CMD_APLX
00000005 l       *ABS*	00000000 CMD_FILL
00000010 l       *ABS*	00000000 CMD_REMAP
00000011 l       *ABS*	00000000 CMD_LINK_READ
00000012 l       *ABS*	00000000 CMD_LINK_WRITE
00000013 l       *ABS*	00000000 CMD_AR
00000014 l       *ABS*	00000000 CMD_NNP
00000015 l       *ABS*	00000000 CMD_P2PC
00000016 l       *ABS*	00000000 CMD_SIG
00000017 l       *ABS*	00000000 CMD_FFD
00000018 l       *ABS*	00000000 CMD_AS
00000019 l       *ABS*	00000000 CMD_LED
0000001a l       *ABS*	00000000 CMD_IPTAG
0000001b l       *ABS*	00000000 CMD_SROM
0000001c l       *ABS*	00000000 CMD_ALLOC
0000001d l       *ABS*	00000000 CMD_RTR
00000040 l       *ABS*	00000000 CMD_TUBE
00000080 l       *ABS*	00000000 RC_OK
00000081 l       *ABS*	00000000 RC_LEN
00000082 l       *ABS*	00000000 RC_SUM
00000083 l       *ABS*	00000000 RC_CMD
00000084 l       *ABS*	00000000 RC_ARG
00000085 l       *ABS*	00000000 RC_PORT
00000086 l       *ABS*	00000000 RC_TIMEOUT
00000087 l       *ABS*	00000000 RC_ROUTE
00000088 l       *ABS*	00000000 RC_CPU
00000089 l       *ABS*	00000000 RC_DEAD
0000008a l       *ABS*	00000000 RC_BUF
0000008b l       *ABS*	00000000 RC_P2P_NOREPLY
0000008c l       *ABS*	00000000 RC_P2P_REJECT
0000008d l       *ABS*	00000000 RC_P2P_BUSY
0000008e l       *ABS*	00000000 RC_P2P_TIMEOUT
0000008f l       *ABS*	00000000 RC_PKT_TX
00000000 l       *ABS*	00000000 TYPE_BYTE
00000001 l       *ABS*	00000000 TYPE_HALF
00000002 l       *ABS*	00000000 TYPE_WORD
00000005 l       *ABS*	00000000 PORT_SHIFT
000000e0 l       *ABS*	00000000 PORT_MASK
0000001f l       *ABS*	00000000 CPU_MASK
000000ff l       *ABS*	00000000 PORT_ETH
00000100 l       *ABS*	00000000 SDP_BUF_SIZE
00000080 l       *ABS*	00000000 VCPU_SIZE
0000002c l       *ABS*	00000000 VCPU_RT_CODE
0000002d l       *ABS*	00000000 VCPU_CPU_FLAGS
0000002e l       *ABS*	00000000 VCPU_CPU_STATE
0000002f l       *ABS*	00000000 VCPU_APP_ID
0000001c l       *ABS*	00000000 SARK_MSG_INT
0000001d l       *ABS*	00000000 SARK_SIG_INT
00000000 l       *ABS*	00000000 SARK_VIRT_CPU
00000008 l       *ABS*	00000000 SARK_RANDOM
00000030 l       *ABS*	00000000 SARK_CPU_CLK
00000020 l       *ABS*	00000000 SV_SSIZE
00000060 l       *ABS*	00000000 SV_USIZE
00000080 l       *ABS*	00000000 SV_ISIZE
00000020 l       *ABS*	00000000 SV_VSIZE
00000040 l       *ABS*	00000000 SV_RSIZE
00001000 l       *ABS*	00000000 SV_SIZE
e5007fe0 l       *ABS*	00000000 SV_SROM
e5007f80 l       *ABS*	00000000 SV_UBASE
e5007f00 l       *ABS*	00000000 SV_IBASE
e5007f00 l       *ABS*	00000000 SV_SV
00000100 l       *ABS*	00000000 SYS_BOOT
e5007000 l       *ABS*	00000000 SYS_USER_TOP
e5000100 l       *ABS*	00000000 SYS_USER_BASE
e5007ee0 l       *ABS*	00000000 SV_VECTORS
e5007ea0 l       *ABS*	00000000 SV_RANDOM
e5007000 l       *ABS*	00000000 SV_VCPU
e5007900 l       *ABS*	00000000 SV_SPARE
000005a0 l       *ABS*	00000000 SPARE_SIZE
e5007fe0 l       *ABS*	00000000 SROM_FLAG_BASE
e5007f80 l       *ABS*	00000000 STATUS_MAP_BASE
e5007ee0 l       *ABS*	00000000 RST_BLOCK_BASE
00008000 l       *ABS*	00000000 SRF_PRESENT
000000f0 l       *ABS*	00000000 SRF_HW_VER
00000008 l       *ABS*	00000000 SRF_PHY_INIT
00000004 l       *ABS*	00000000 SRF_PHY_RST
00000002 l       *ABS*	00000000 SRF_PHY_WAIT
00000001 l       *ABS*	00000000 SRF_ETH
00000000 l       *ABS*	00000000 SRF_NONE
00000020 l       RO_DATA	00000000 reset_vec
00000004 l       RO_DATA	00000000 undef
00000024 l       RO_DATA	00000000 undef_vec
00000028 l       RO_DATA	00000000 svc_vec
0000002c l       RO_DATA	00000000 pabt_vec
00000030 l       RO_DATA	00000000 dabt_vec
0000003c l       RO_DATA	00000000 fiq_vec
00000078 l       RO_DATA	00000000 reset_entry
000000d8 l       RO_DATA	00000000 undef_error
000000e0 l       RO_DATA	00000000 svc_error
000000e8 l       RO_DATA	00000000 pabt_error
000000f0 l       RO_DATA	00000000 dabt_error
00000034 l       RO_DATA	00000000 aplx_proc
00000038 l       RO_DATA	00000000 irq_vec
000000f8 l       RO_DATA	00000000 irq_error
00000100 l       RO_DATA	00000000 fiq_error
00000040 l       RO_DATA	00000000 svc_stack
00000042 l       RO_DATA	00000000 irq_stack
00000044 l       RO_DATA	00000000 fiq_stack
00000046 l       RO_DATA	00000000 stack_size
00000048 l       RO_DATA	00000000 code_top
0000004c l       RO_DATA	00000000 heap_base
00000050 l       RO_DATA	00000000 stack_top
00000054 l       RO_DATA	00000000 stack_fill
00000058 l       RO_DATA	00000000 num_msgs
00000059 l       RO_DATA	00000000 sark_slot
0000005a l       RO_DATA	00000000 num_events
0000005b l       RO_DATA	00000000 api
0000005c l       RO_DATA	00000000 app_id
0000005d l       RO_DATA	00000000 app_flags
0000005e l       RO_DATA	00000000 __PAD
00000060 l       RO_DATA	00000000 event_vec
000000d0 l       RO_DATA	00000000 reset_error
00000114 l       RO_DATA	00000000 exc_error
00000138 l       RO_DATA	00000000 cc_error
000001fc l       RO_DATA	00000000 lg1
00000238 l       RO_DATA	00000000 ws1
00000298 l       RO_DATA	00000000 wc2
00000280 l       RO_DATA	00000000 wc1
000002c4 l       RO_DATA	00000000 delay1
0000038c l       RO_DATA	00000000 aplx_buffer
00000390 l       RO_DATA	00000000 aplx_loader
0000037c l       RO_DATA	00000000 aplx_l0
000003a8 l       RO_DATA	00000000 aplx_copy
000003a4 l       RO_DATA	00000000 aplx_rcopy
000003b6 l       RO_DATA	00000000 aplx_fill
000003c6 l       RO_DATA	00000000 aplx_exec
000003bc l       RO_DATA	00000000 aplx_l1
00000000 l    df *ABS*	00000000 sark_base.c
00000000 l    df *ABS*	00000000 sark_event.c
00000000 l    df *ABS*	00000000 sark_timer.c
00000000 l    df *ABS*	00000000 sark_hw.c
00000000 l    df *ABS*	00000000 sark_isr.c
00000000 l    df *ABS*	00000000 sark_alloc.c
00000000 l    df *ABS*	00000000 sark_io.c
000023b0 l     F RO_DATA	00000040 io_buf_init
000024e4 l     F RO_DATA	000000c2 io_put_fixed
004005a4 l     O ZI_DATA	00000004 io_msg
00006133 l     O RO_DATA	00000011 hex
004005a8 l     O ZI_DATA	00000004 io_buf
004005ac l     O ZI_DATA	00000004 buf_ptr
004005b0 l     O ZI_DATA	00000004 sp_ptr
00000000 l    df *ABS*	00000000 sark_pkt.c
00000000 l    df *ABS*	00000000 
00000000 l    df *ABS*	00000000 bit_field.c
00000000 l    df *ABS*	00000000 out_spikes.c
00400474 l     O ZI_DATA	00000004 out_spikes_size
00000000 l    df *ABS*	00000000 configuration.c
00000000 l    df *ABS*	00000000 recording.c
00400480 l     O ZI_DATA	00000030 g_recording_channels
00000000 l    df *ABS*	00000000 spin1-api-configuration.c
00000000 l    df *ABS*	00000000 simulate.c
00400000 l     O RW_DATA	00000004 y.5457
00400004 l     O RW_DATA	00000004 w.5459
00400008 l     O RW_DATA	00000004 z.5458
0040000c l     O RW_DATA	00000004 x.5456
00400010 l     O RW_DATA	00000004 x.5465
00400014 l     O RW_DATA	00000004 y.5466
00400018 l     O RW_DATA	00000004 z.5467
0040001c l     O RW_DATA	00000004 c.5468
004004b8 l     O ZI_DATA	00000004 state_i.5440
004004bc l     O ZI_DATA	00000080 STATE
0040053c l     O ZI_DATA	00000004 c.5460
00400540 l     O ZI_DATA	00000001 set.5491
00400544 l     O ZI_DATA	00000004 gset.5492
00000000 l    df *ABS*	00000000 spike_source.c
00400548 l     O ZI_DATA	00000004 time
00000000 l    df *ABS*	00000000 spike_source_remote_poisson_rbf.c
00400020 l     O RW_DATA	00000004 sensormin
00400024 l     O RW_DATA	00000004 true_luthwhm
00400028 l     O RW_DATA	00000004 gauss_width
0040002c l     O RW_DATA	00000004 sensormax
00400030 l     O RW_DATA	00000004 bunchsize
00400034 l     O RW_DATA	00000004 sensorrange
00400554 l     O ZI_DATA	00000004 inputshift
00400558 l     O ZI_DATA	00000004 ticks
0040055c l     O ZI_DATA	00000004 lasttick.6727
00400560 l     O ZI_DATA	00000004 num_slow_spike_sources
00400564 l     O ZI_DATA	00000004 slow_spike_source_array
00400568 l     O ZI_DATA	00000004 neuidx_to_sensorvalue
0040056c l     O ZI_DATA	00000004 sensorvalue_to_lutidx
00400570 l     O ZI_DATA	00000004 recip_min_rate
00400574 l     O ZI_DATA	00000004 gauss_lut
00400578 l     O ZI_DATA	00000010 spike_source_seed
00400588 l     O ZI_DATA	00000004 final_tick
0040058c l     O ZI_DATA	00000004 recip_max_rate
00400590 l     O ZI_DATA	00000004 listenkey
00400594 l     O ZI_DATA	00000004 num_fast_spike_sources
00400598 l     O ZI_DATA	00000004 fast_spike_source_array
0040059c l     O ZI_DATA	00000004 sensorvalue_to_neuidx
004005a0 l     O ZI_DATA	00000004 sensorvalue_to_spikerate
00000000 l    df *ABS*	00000000 stdfix-exp.c
00006000 l     O RO_DATA	000000d0 __exp_hi
000060d0 l     O RO_DATA	00000040 __expm1_mid
00000000 l    df *ABS*	00000000 spin1_api.c
004005b4 l     O ZI_DATA	00000004 warnings
00400038 l     O RW_DATA	00000004 dma_id
004005b8 l     O ZI_DATA	00000004 fullq
004005bc l     O ZI_DATA	00000004 timer_tick
004005c0 l     O ZI_DATA	00000004 pfull
004005c4 l     O ZI_DATA	00000004 dfull
004005cc l     O ZI_DATA	00000004 exit_val
004005d0 l     O ZI_DATA	00000320 task_queue
004008f0 l     O ZI_DATA	00000004 run
00000000 l    df *ABS*	00000000 spin1_isr.c
00000000 l    df *ABS*	00000000 wf_log.c
00000000 l    df *ABS*	00000000 wf_sqrt.c
00000000 l    df *ABS*	00000000 ef_log.c
00000000 l    df *ABS*	00000000 ef_sqrt.c
00000000 l    df *ABS*	00000000 s_matherr.c
00000000 l    df *ABS*	00000000 s_nan.c
00000000 l    df *ABS*	00000000 sf_fpclassify.c
00000000 l    df *ABS*	00000000 _arm_addsubdf3.o
00000000 l    df *ABS*	00000000 _arm_muldivdf3.o
00000000 l    df *ABS*	00000000 _arm_truncdfsf2.o
00000000 l    df *ABS*	00000000 _arm_addsubsf3.o
00000000 l    df *ABS*	00000000 _arm_muldivsf3.o
00000000 l    df *ABS*	00000000 _arm_cmpsf2.o
00000000 l    df *ABS*	00000000 fixed-bit.c
00000000 l    df *ABS*	00000000 fixed-bit.c
00000000 l    df *ABS*	00000000 fixed-bit.c
00000000 l    df *ABS*	00000000 fixed-bit.c
00000000 l    df *ABS*	00000000 fixed-bit.c
00000000 l    df *ABS*	00000000 fixed-bit.c
00000000 l    df *ABS*	00000000 fixed-bit.c
00000000 l    df *ABS*	00000000 fixed-bit.c
00000000 l    df *ABS*	00000000 fixed-bit.c
00000000 l    df *ABS*	00000000 fixed-bit.c
00000000 l    df *ABS*	00000000 fixed-bit.c
00000000 l    df *ABS*	00000000 fixed-bit.c
00000000 l    df *ABS*	00000000 fixed-bit.c
00000000 l    df *ABS*	00000000 fixed-bit.c
00000000 l    df *ABS*	00000000 fixed-bit.c
00000000 l    df *ABS*	00000000 fixed-bit.c
00000000 l    df *ABS*	00000000 fixed-bit.c
00000000 l    df *ABS*	00000000 fixed-bit.c
00000000 l    df *ABS*	00000000 fixed-bit.c
00000000 l    df *ABS*	00000000 fixed-bit.c
00000000 l    df *ABS*	00000000 fixed-bit.c
00000000 l    df *ABS*	00000000 fixed-bit.c
00000000 l    df *ABS*	00000000 fixed-bit.c
00000000 l    df *ABS*	00000000 fixed-bit.c
00000000 l    df *ABS*	00000000 fixed-bit.c
00000000 l    df *ABS*	00000000 fixed-bit.c
00000000 l    df *ABS*	00000000 fixed-bit.c
00000000 l    df *ABS*	00000000 fixed-bit.c
00000000 l    df *ABS*	00000000 fixed-bit.c
00000000 l    df *ABS*	00000000 fixed-bit.c
00000000 l    df *ABS*	00000000 fixed-bit.c
00000000 l    df *ABS*	00000000 _arm_fixsfsi.o
00000000 l    df *ABS*	00000000 fixed-bit.c
00000000 l    df *ABS*	00000000 fixed-bit.c
00000000 l    df *ABS*	00000000 fixed-bit.c
00000000 l    df *ABS*	00000000 _aeabi_ldivmod.o
00000000 l    df *ABS*	00000000 _aeabi_uldivmod.o
00000000 l    df *ABS*	00000000 bpabi.c
00000000 l    df *ABS*	00000000 _dvmd_tls.o
00000000 l    df *ABS*	00000000 libgcc2.c
00000000 l    df *ABS*	00000000 libgcc2.c
00000000 l    df *ABS*	00000000 _udivsi3.o
00005d98 l       RO_DATA	00000000 .udivsi3_skip_div0_test
00000000 l    df *ABS*	00000000 _clzsi2.o
00000000 l    df *ABS*	00000000 errno.c
00000000 l    df *ABS*	00000000 memcpy-stub.c
00000000 l    df *ABS*	00000000 sark_build.c
00000000 l    df *ABS*	00000000 impure.c
00400048 l     O RW_DATA	00000428 impure_data
00000000 l    df *ABS*	00000000 s_lib_ver.c
00000000 l    df *ABS*	00000000 
00000040 l       *ABS*	00000000 RO_FROM
00000010 l       *ABS*	00000000 APLX_ENTRY
000062a8 l       *ABS*	00000000 RW_FROM
00400000 l       *ABS*	00000000 DTCM_BASE
00400000 l       *ABS*	00000000 RW_BASE
00000474 l       *ABS*	00000000 RW_LENGTH
00000040 l       *ABS*	00000000 APLX_SIZE
00400474 l       *ABS*	00000000 ZI_BASE
00000000 l       *ABS*	00000000 RO_BASE
00000000 l       *ABS*	00000000 ITCM_BASE
000007e4 l       *ABS*	00000000 ZI_LENGTH
00005ff8 l     F RO_DATA	00000008 __spin1_callback_off_from_arm
004009cc g     O ZI_DATA	00000004 old_vector
00002c40 g     F RO_DATA	000000f0 spin1_start
000001e8 g     F RO_DATA	00000000 sark_lock_get
00005414 g     F RO_DATA	00000040 .hidden __gnu_uldivmod_helper
00002ea8 g     F RO_DATA	0000002c sark_pre_main
0000501c g     F RO_DATA	00000008 .hidden __gnu_fractusasa
000019d8 g     F RO_DATA	00000034 sark_shmsg_get
00001580 g     F RO_DATA	00000004 spike_source_dma_callback
00004a48 g     F RO_DATA	0000000c .hidden __gnu_subda3
00002e28 g     F RO_DATA	0000000c spin1_get_core_id
00005458 g     F RO_DATA	000004d0 .hidden __divdi3
000001b8 g     F RO_DATA	00000000 spin1_int_enable
00000800 g       *ABS*	00000000 STACK_SIZE
00003df4 g     F RO_DATA	00000060 .hidden __floatdidf
00000362 g     F RO_DATA	00000000 sark_bx
00002a60 g     F RO_DATA	00000058 spin1_callback_on
00004c58 g     F RO_DATA	00000044 .hidden __gnu_mulhelperusq
00004fdc g     F RO_DATA	0000000c .hidden __gnu_fractdasa2
0000236c g     F RO_DATA	00000044 rtr_free_id
00000258 g     F RO_DATA	00000000 sark_msg_cpy
000047d4 g     F RO_DATA	00000160 .hidden __divsf3
000006cc g     F RO_DATA	00000038 equal_vector
00001f1c g     F RO_DATA	0000003c event_alloc
00000f84 g     F RO_DATA	00000208 incoming_update_callback
000005c0 g     F RO_DATA	00000038 system_data_filled
00002b0c g     F RO_DATA	0000006c clean_up
00001968 g     F RO_DATA	0000001e sark_block_init
000050c4 g     F RO_DATA	0000005c .hidden __fixsfsi
00003120 g     F RO_DATA	00000058 timer1_isr
00000e84 g     F RO_DATA	00000088 load_dtcm
00000b98 g     F RO_DATA	00000048 validate_mars_kiss64_seed
0000212c g     F RO_DATA	00000028 sark_fiq_han
000019b8 g     F RO_DATA	00000020 sark_msg_free
00005ef4 g     F RO_DATA	00000010 __errno
00004a88 g     F RO_DATA	00000020 .hidden __gnu_muluda3
000031b8 g     F RO_DATA	00000068 soft_int_isr
00002d38 g     F RO_DATA	000000f0 spin1_send_mc_packet
00003270 g     F RO_DATA	0000016c logf
000022d0 g     F RO_DATA	0000009c rtr_free
004008f4 g     O ZI_DATA	00000004 out_spikes
00004f98 g     F RO_DATA	00000024 .hidden __gnu_fractsada2
0000285c g     F RO_DATA	00000028 configure_dma_controller
00001820 g     F RO_DATA	00000110 expk
0000439c g     F RO_DATA	000001bc .hidden __aeabi_fadd
00004398 g     F RO_DATA	000001c0 .hidden __subsf3
00000f0c g     F RO_DATA	00000078 c_main
00001d08 g     F RO_DATA	00000174 sark_int
000008ec g     F RO_DATA	0000009c WELL1024a_simp
000033dc g     F RO_DATA	00000124 sqrtf
000028b4 g     F RO_DATA	00000130 configure_vic
00000300 g     F RO_DATA	00000000 sark_int_han
00001e7c g     F RO_DATA	0000005c event_wait
000003e0 g     F RO_DATA	00000004 print_bit_field
00005f04 g     F RO_DATA	000000f0 memcpy
00001cf4 g     F RO_DATA	00000012 sark_wait
00000988 g     F RO_DATA	0000000c validate_WELL1024a_seed
000001d8 g     F RO_DATA	00000000 spin1_mode_restore
00000e20 g     F RO_DATA	00000064 timer_callback
00000504 g     F RO_DATA	00000058 nonempty_out_spikes
00004a30 g     F RO_DATA	00000018 .hidden __aeabi_fcmpgt
000001a8 g     F RO_DATA	00000000 spin1_irq_disable
00003d78 g     F RO_DATA	00000028 .hidden __floatsidf
00001ce4 g     F RO_DATA	00000010 sark_cmd_fill
000022c4 g     F RO_DATA	0000000c rtr_alloc
000020ec g     F RO_DATA	00000040 rtr_mc_load
00005394 g     F RO_DATA	00000000 .hidden __aeabi_uldivmod
00003500 g     F RO_DATA	000003c0 __ieee754_logf
00001f58 g     F RO_DATA	00000050 sark_vic_init
000030a8 g     F RO_DATA	00000078 dma_done_fiqsr
00005d98 g     F RO_DATA	000000f4 .hidden __udivsi3
0000016c g     F RO_DATA	00000000 cpu_shutdown
0040003c g     O RW_DATA	00000004 pkt_prio
00004560 g     F RO_DATA	00000020 .hidden __aeabi_i2f
000001d8 g     F RO_DATA	00000000 cpu_int_restore
00005120 g     F RO_DATA	00000054 .hidden __gnu_divhelpersa
004009d0 g     O ZI_DATA	0000002c diagnostics
0000493c g     F RO_DATA	0000006c .hidden __lesf2
00410000 g       *ABS*	00000000 STACK_TOP
00400c58 g       ZI_DATA	00000000 HEAP_BASE
00002154 g     F RO_DATA	000000c8 sark_xalloc
000039e0 g     F RO_DATA	00000058 __fpclassifyf
004009fc g     O ZI_DATA	00000004 old_enable
00003d54 g     F RO_DATA	00000024 .hidden __aeabi_ui2d
00000c48 g     F RO_DATA	0000011c gaussian_dist_variate
00003a38 g     F RO_DATA	00000000 .hidden __aeabi_drsub
00002884 g     F RO_DATA	00000030 configure_timer1
00004e24 g     F RO_DATA	00000028 .hidden __gnu_cmpda2
000007ec g     F RO_DATA	00000040 recording_finalise
00000364 g     F RO_DATA	00000000 __gnu_thumb1_case_uqi
00003da0 g     F RO_DATA	00000040 .hidden __extendsfdf2
000040e4 g     F RO_DATA	0000020c .hidden __aeabi_ddiv
00003a44 g     F RO_DATA	00000310 .hidden __adddf3
00004944 g     F RO_DATA	00000064 .hidden __nesf2
00003e54 g     F RO_DATA	00000290 .hidden __aeabi_dmul
00400044 g     O RW_DATA	00000001 __fdlib_version
00400a00 g     O ZI_DATA	00000004 user_arg1
00001a0c g     F RO_DATA	00000024 sark_shmsg_free
00000864 g     F RO_DATA	0000004c system_lead_app_configured
00000614 g     F RO_DATA	0000001c check_deadbeef
00000334 g     F RO_DATA	00000000 schedule
00005928 g     F RO_DATA	00000470 .hidden __udivdi3
000008e4 g     F RO_DATA	00000008 system_data_extracted
00002f90 g     F RO_DATA	0000008c cc_tx_empty_isr
00003d54 g     F RO_DATA	00000024 .hidden __floatunsidf
000004b0 g     F RO_DATA	00000054 empty_out_spikes
0000012c g       RO_DATA	00000000 rt_error
00000a2c g     F RO_DATA	00000074 mars_kiss32
0000201c g     F RO_DATA	0000005c rtr_mc_clear
00005074 g     F RO_DATA	00000020 .hidden __gnu_fractunssasi
000042f0 g     F RO_DATA	000000a0 .hidden __aeabi_d2f
00002f58 g     F RO_DATA	00000038 cc_rx_ready_fiqsr
00004398 g     F RO_DATA	000001c0 .hidden __aeabi_fsub
00005094 g     F RO_DATA	00000008 .hidden __gnu_fractunssisa
00005024 g     F RO_DATA	0000000c .hidden __gnu_fractudausa2
00005038 g     F RO_DATA	00000024 .hidden __gnu_fractsida
00004a18 g     F RO_DATA	00000018 .hidden __aeabi_fcmpge
000006a4 g     F RO_DATA	00000028 byte_vector_copied
00001944 g     F RO_DATA	00000010 sark_cpu_state
00004590 g     F RO_DATA	000000ac .hidden __floatdisf
004005c8 g     O ZI_DATA	00000001 user_pending
00004f2c g     F RO_DATA	00000030 .hidden __gnu_saturate2uda
00000994 g     F RO_DATA	00000098 WELL1024a_seed
00004934 g     F RO_DATA	00000074 .hidden __gtsf2
00000630 g     F RO_DATA	0000001c check_magic_number
000005f8 g     F RO_DATA	0000001c system_data_test_bit
00003a44 g     F RO_DATA	00000310 .hidden __aeabi_dadd
00004a00 g     F RO_DATA	00000018 .hidden __aeabi_fcmple
00003de0 g     F RO_DATA	00000074 .hidden __aeabi_ul2d
00002ed4 g     F RO_DATA	0000000a sark_post_main
00004c9c g     F RO_DATA	00000164 .hidden __gnu_mulhelperuda
000001a8 g     F RO_DATA	00000000 cpu_irq_disable
00001584 g     F RO_DATA	00000270 spike_source_generate
00000000 g       RO_DATA	00000000 cpu_reset
000002d0 g     F RO_DATA	00000000 sark_div10
00000108 g       RO_DATA	00000000 vic_error
00005eac g     F RO_DATA	00000048 .hidden __clzsi2
000003cc g     F RO_DATA	00000010 get_bit_field_size
00004e4c g     F RO_DATA	00000024 .hidden __gnu_cmpusq2
00003a40 g     F RO_DATA	00000314 .hidden __aeabi_dsub
00003de0 g     F RO_DATA	00000074 .hidden __floatundidf
00002d30 g     F RO_DATA	00000008 spin1_delay_us
00001ff0 g     F RO_DATA	0000002c v2p_mask
00000474 g     F RO_DATA	0000003c record_out_spikes
00006114 g     O RO_DATA	00000010 build_name
00004560 g     F RO_DATA	00000020 .hidden __floatsisf
00000360  w    F RO_DATA	00000000 sark_config
00000aa0 g     F RO_DATA	0000006c mars_kiss64_simp
00004fc4 g     F RO_DATA	00000018 .hidden __gnu_fractsasf
00000b30 g     F RO_DATA	00000068 mars_kiss64_seed
000050c4 g     F RO_DATA	0000005c .hidden __aeabi_f2iz
0000118c g     F RO_DATA	000000c0 fill_gauss_lut
00004944 g     F RO_DATA	00000064 .hidden __eqsf2
00004e94 g     F RO_DATA	00000098 .hidden __gnu_saturate2da
00001ed8 g     F RO_DATA	0000002c event_pause
00006110 g     O RO_DATA	00000004 build_date
0000020c g     F RO_DATA	00000000 sark_lock_free
0000221c g     F RO_DATA	00000018 sark_alloc
00000728 g     F RO_DATA	00000068 recording_data_filled
000047d4 g     F RO_DATA	00000160 .hidden __aeabi_fdiv
00003d78 g     F RO_DATA	00000028 .hidden __aeabi_i2d
00003220 g     F RO_DATA	00000050 soft_int_fiqsr
000029e4 g     F RO_DATA	0000007c dispatch
00000190 g     F RO_DATA	00000000 cpu_init_mode
00004580 g     F RO_DATA	000000bc .hidden __floatundisf
00000268 g     F RO_DATA	00000000 sark_word_cpy
0000017c g     F RO_DATA	00000000 cpu_sleep
00005454  w    F RO_DATA	00000004 .hidden __aeabi_ldiv0
0000509c g     F RO_DATA	00000014 .hidden __gnu_fractunssida
000040e4 g     F RO_DATA	0000020c .hidden __divdf3
00400040 g     O RW_DATA	00000004 fiq_event
00400a04 g     O ZI_DATA	00000001 leadAp
004008f8 g     O ZI_DATA	0000003c sark
00004558 g     F RO_DATA	00000028 .hidden __aeabi_ui2f
00002b00 g     F RO_DATA	0000000c spin1_set_timer_tick
00003e54 g     F RO_DATA	00000290 .hidden __muldf3
00001b2c g     F RO_DATA	000000a8 sark_msg_send
0000082c g     F RO_DATA	00000038 system_load_sram
00005174 g     F RO_DATA	000001a0 .hidden __gnu_divhelperda
000001e0 g     F RO_DATA	00000000 spin1_wfi
00005030 g     F RO_DATA	00000008 .hidden __gnu_fractsisa
00001bd4 g     F RO_DATA	00000040 sark_cmd_ver
004004b4 g     O ZI_DATA	00000004 simulation_rtr_entry
0000058c g     F RO_DATA	00000034 system_header_filled
00004944 g     F RO_DATA	00000064 .hidden __cmpsf2
000001e0 g     F RO_DATA	00000000 cpu_wfi
000038c0 g     F RO_DATA	00000108 __ieee754_sqrtf
00001f04 g     F RO_DATA	00000018 event_stop
000001c8 g     F RO_DATA	00000000 cpu_int_disable
00004590 g     F RO_DATA	000000ac .hidden __aeabi_l2f
00001fa8 g     F RO_DATA	00000048 sark_vic_set
0000493c g     F RO_DATA	0000006c .hidden __ltsf2
0040047c g     O ZI_DATA	00000004 system_word
00400a08 g     O ZI_DATA	00000004 thrown
00002234 g     F RO_DATA	00000018 sark_heap_init
00005d98 g     F RO_DATA	00000000 .hidden __aeabi_uidiv
00002adc g     F RO_DATA	00000024 spin1_exit
00000718 g     F RO_DATA	00000010 configuration_reader_offset
00400934 g     O ZI_DATA	00000098 event
000039c8 g     F RO_DATA	00000008 matherr
000042f0 g     F RO_DATA	000000a0 .hidden __truncdfsf2
00003df4 g     F RO_DATA	00000060 .hidden __aeabi_l2d
00001c7a g     F RO_DATA	0000006a sark_cmd_write
00002ee0 g     F RO_DATA	00000078 cc_rx_ready_isr
00002e34 g     F RO_DATA	0000000a spin1_malloc
00400550 g     O ZI_DATA	00000004 key
00004580 g     F RO_DATA	000000bc .hidden __aeabi_ul2f
000049b8 g     F RO_DATA	00000018 .hidden __aeabi_cfcmple
00001a30  w    F RO_DATA	000000fc sark_init
0000463c g     F RO_DATA	00000198 .hidden __mulsf3
00001930  w    F RO_DATA	0000000c rte_handler
00000374 g     F RO_DATA	00000000 sark_aplx
00002b78 g     F RO_DATA	0000006c report_debug
00000588 g     F RO_DATA	00000004 print_out_spikes
000025a8 g     F RO_DATA	000002b4 io_printf
00400a0c g     O ZI_DATA	00000148 dma_queue
00000234 g     F RO_DATA	00000000 sark_word_set
00000b0c g     F RO_DATA	00000024 init_WELL1024a_simp
00400b54 g     O ZI_DATA	00000004 old_select
00002be4 g     F RO_DATA	0000005c report_warns
00004934 g     F RO_DATA	00000074 .hidden __gesf2
00000be0 g     F RO_DATA	00000068 exponential_dist_variate
00000678 g     F RO_DATA	0000002c half_word_vector_copied
00004390 g     F RO_DATA	000001c8 .hidden __aeabi_frsub
00400470 g     O RW_DATA	00000004 _impure_ptr
000049d0 g     F RO_DATA	00000018 .hidden __aeabi_fcmpeq
0000301c g     F RO_DATA	0000008c dma_done_isr
00000dcc g     F RO_DATA	00000054 poisson_dist_variate_exp_minus_lambda
00400b58 g     O ZI_DATA	00000004 ticks
0000463c g     F RO_DATA	00000198 .hidden __aeabi_fmul
000049a8 g     F RO_DATA	00000028 .hidden __aeabi_cfrcmple
00000330 g     F RO_DATA	00000000 null_int_han
00002e40 g     F RO_DATA	00000068 schedule_sysmode
0000224c g     F RO_DATA	00000078 rtr_alloc_id
00004fe8 g     F RO_DATA	0000002c .hidden __gnu_fractdasi
0000505c g     F RO_DATA	00000018 .hidden __gnu_fractsfsa
0000055c g     F RO_DATA	0000002c out_spike_test
00002ab8 g     F RO_DATA	00000024 spin1_callback_off
00003178 g     F RO_DATA	00000040 timer1_fiqsr
000039d0 g     F RO_DATA	00000010 nan
00004a54 g     F RO_DATA	00000020 .hidden __gnu_mulda3
000003dc g     F RO_DATA	00000004 print_bit_field_bits
000049e8 g     F RO_DATA	00000018 .hidden __aeabi_fcmplt
00000220 g     F RO_DATA	00000000 sark_str_cpy
00005e8c g     F RO_DATA	00000020 .hidden __aeabi_uidivmod
00002078 g     F RO_DATA	00000074 rtr_mc_set
000001b8 g     F RO_DATA	00000000 cpu_int_enable
00400b5c g     O ZI_DATA	00000004 user_arg0
00001954 g     F RO_DATA	00000014 sark_app_lead
00004fbc g     F RO_DATA	00000008 .hidden __gnu_fractsausq
0000064c g     F RO_DATA	0000002c vector_copied
00004558 g     F RO_DATA	00000028 .hidden __floatunsisf
00000790 g     F RO_DATA	0000005c recording_record
000049b8 g     F RO_DATA	00000018 .hidden __aeabi_cfcmpeq
00004f70 g     F RO_DATA	00000020 .hidden __gnu_divda3
00004a74 g     F RO_DATA	00000014 .hidden __gnu_mulusq3
000017f4 g     F RO_DATA	0000002c exp_series
00004e70 g     F RO_DATA	00000024 .hidden __gnu_saturate1usq
00005454  w    F RO_DATA	00000004 .hidden __aeabi_idiv0
00000420 g     F RO_DATA	00000054 initialize_out_spikes
00400b60 g     O ZI_DATA	00000030 callback
00004e00 g     F RO_DATA	00000024 .hidden __gnu_cmpsa2
00000d64 g     F RO_DATA	00000068 poisson_dist_variate
000023f0 g     F RO_DATA	000000f4 io_put_char
000053d0 g     F RO_DATA	00000044 .hidden __gnu_ldivmod_helper
00001514 g     F RO_DATA	0000006c spike_source_data_filled
000003e8 g     F RO_DATA	00000038 reset_out_spikes
00004f90 g     F RO_DATA	00000008 .hidden __gnu_ashrsa3
000003e4 g     F RO_DATA	00000004 random_bit_field
00005314 g     F RO_DATA	0000003c .hidden __gnu_saturate1sa
00003da0 g     F RO_DATA	00000040 .hidden __aeabi_f2d
00400478 g     O ZI_DATA	00000004 timer_period
00004aa8 g     F RO_DATA	000001b0 .hidden __gnu_mulhelperda
000008b0 g     F RO_DATA	00000034 system_runs_to_completion
00000704 g     F RO_DATA	00000014 region_start
00005014 g     F RO_DATA	00000008 .hidden __gnu_fractusqsa
00003a40 g     F RO_DATA	00000314 .hidden __subdf3
00005350 g     F RO_DATA	00000000 .hidden __aeabi_ldivmod
0040054c g     O ZI_DATA	00000004 num_spike_sources
000001c8 g     F RO_DATA	00000000 spin1_int_disable
0000439c g     F RO_DATA	000001bc .hidden __addsf3
00001c14 g     F RO_DATA	00000066 sark_cmd_read
00006278 g       *ABS*	00000000 RO_LENGTH
00004f5c g     F RO_DATA	00000014 .hidden __gnu_divsa3
0000124c g     F RO_DATA	000002c8 spike_source_poisson_parameters_filled
0000193c g     F RO_DATA	00000006 sark_app_id
00001988 g     F RO_DATA	00000030 sark_msg_get
004004b0 g     O ZI_DATA	00000004 simulation_ticks
000050b0 g     F RO_DATA	00000014 .hidden __gnu_fractunssiuda
000002bc g     F RO_DATA	00000000 sark_delay_us
00400b90 g     O ZI_DATA	000000c8 tx_packet_queue



Disassembly of section RO_DATA:

00000000 <cpu_reset>:
       0:	e59ff018 	ldr	pc, [pc, #24]	; 20 <reset_vec>

00000004 <undef>:
       4:	e59ff018 	ldr	pc, [pc, #24]	; 24 <undef_vec>
       8:	e59ff018 	ldr	pc, [pc, #24]	; 28 <svc_vec>
       c:	e59ff018 	ldr	pc, [pc, #24]	; 2c <pabt_vec>
      10:	e59ff018 	ldr	pc, [pc, #24]	; 30 <dabt_vec>
      14:	ebfffffa 	bl	4 <undef>
      18:	e51ffff0 	ldr	pc, [pc, #-4080]	; fffff030 <ROM_TOP+0x9ff7030>
      1c:	e59ff018 	ldr	pc, [pc, #24]	; 3c <fiq_vec>

00000020 <reset_vec>:
      20:	00000078 	.word	0x00000078

00000024 <undef_vec>:
      24:	000000d8 	.word	0x000000d8

00000028 <svc_vec>:
      28:	000000e0 	.word	0x000000e0

0000002c <pabt_vec>:
      2c:	000000e8 	.word	0x000000e8

00000030 <dabt_vec>:
      30:	000000f0 	.word	0x000000f0

00000034 <aplx_proc>:
      34:	00000375 	.word	0x00000375

00000038 <irq_vec>:
      38:	000000f8 	.word	0x000000f8

0000003c <fiq_vec>:
      3c:	00000100 	.word	0x00000100

00000040 <svc_stack>:
      40:	0060      	.short	0x0060

00000042 <irq_stack>:
      42:	0040      	.short	0x0040

00000044 <fiq_stack>:
      44:	0040      	.short	0x0040

00000046 <stack_size>:
      46:	0800      	.short	0x0800

00000048 <code_top>:
      48:	00006278 	.word	0x00006278

0000004c <heap_base>:
      4c:	00400c58 	.word	0x00400c58

00000050 <stack_top>:
      50:	00410000 	.word	0x00410000

00000054 <stack_fill>:
      54:	deaddead 	.word	0xdeaddead

00000058 <num_msgs>:
      58:	04          	.byte	0x04

00000059 <sark_slot>:
      59:	0f          	.byte	0x0f

0000005a <num_events>:
      5a:	10          	.byte	0x10

0000005b <api>:
	...

0000005c <app_id>:
	...

0000005d <app_flags>:
	...

0000005e <__PAD>:
	...

00000060 <event_vec>:
	...

00000078 <reset_entry>:
      78:	e24f1060 	sub	r1, pc, #96	; 0x60
      7c:	e1c103bc 	strh	r0, [r1, #60]	; 0x3c
      80:	e28f0048 	add	r0, pc, #72	; 0x48
      84:	e5810000 	str	r0, [r1]
      88:	e59f00f4 	ldr	r0, [pc, #244]	; 184 <DMA_CRCT+0x4>
      8c:	ee010f10 	mcr	15, 0, r0, cr1, cr0, {0}
      90:	e321f0d3 	msr	CPSR_c, #211	; 0xd3
      94:	e3a0d902 	mov	sp, #32768	; 0x8000
      98:	fa0000b0 	blx	360 <sark_config>
      9c:	e51fd054 	ldr	sp, [pc, #-84]	; 50 <stack_top>
      a0:	e15f26b2 	ldrh	r2, [pc, #-98]	; 46 <stack_size>
      a4:	e51f1058 	ldr	r1, [pc, #-88]	; 54 <stack_fill>
      a8:	e04d0002 	sub	r0, sp, r2
      ac:	eb000060 	bl	234 <sark_word_set>
      b0:	e1a0000d 	mov	r0, sp
      b4:	fa00065d 	blx	1a30 <sark_init>
      b8:	e121f000 	msr	CPSR_c, r0
      bc:	fa00070c 	blx	1cf4 <sark_wait>
      c0:	fa000b78 	blx	2ea8 <sark_pre_main>
      c4:	eb000390 	bl	f0c <c_main>
      c8:	fa000b81 	blx	2ed4 <sark_post_main>
      cc:	eb00002a 	bl	17c <cpu_sleep>

000000d0 <reset_error>:
      d0:	e3a00001 	mov	r0, #1
      d4:	ea000014 	b	12c <rt_error>

000000d8 <undef_error>:
      d8:	e3a0b002 	mov	fp, #2
      dc:	ea00000c 	b	114 <exc_error>

000000e0 <svc_error>:
      e0:	e3a0b003 	mov	fp, #3
      e4:	ea00000a 	b	114 <exc_error>

000000e8 <pabt_error>:
      e8:	e3a0b004 	mov	fp, #4
      ec:	ea000008 	b	114 <exc_error>

000000f0 <dabt_error>:
      f0:	e3a0b005 	mov	fp, #5
      f4:	ea000006 	b	114 <exc_error>

000000f8 <irq_error>:
      f8:	e3a0b006 	mov	fp, #6
      fc:	ea000004 	b	114 <exc_error>

00000100 <fiq_error>:
     100:	e3a0b007 	mov	fp, #7
     104:	ea000002 	b	114 <exc_error>

00000108 <vic_error>:
     108:	e3a0b008 	mov	fp, #8
     10c:	e3a0042f 	mov	r0, #788529152	; 0x2f000000
     110:	e5900030 	ldr	r0, [r0, #48]	; 0x30

00000114 <exc_error>:
     114:	e1a0a00e 	mov	sl, lr
     118:	e14f8000 	mrs	r8, SPSR
     11c:	e38890c0 	orr	r9, r8, #192	; 0xc0
     120:	e3c99020 	bic	r9, r9, #32
     124:	e12ff009 	msr	CPSR_fsxc, r9
     128:	ea000002 	b	138 <cc_error>

0000012c <rt_error>:
     12c:	e1a0b000 	mov	fp, r0
     130:	e10f8000 	mrs	r8, CPSR
     134:	e1a0a00e 	mov	sl, lr

00000138 <cc_error>:
     138:	e59fc048 	ldr	ip, [pc, #72]	; 188 <DMA_CRCT+0x8>
     13c:	e59cc000 	ldr	ip, [ip]
     140:	e3a09080 	mov	r9, #128	; 0x80
     144:	e59fe040 	ldr	lr, [pc, #64]	; 18c <DMA_CRCT+0xc>
     148:	e02ee99c 	mla	lr, ip, r9, lr
     14c:	e1a0900d 	mov	r9, sp
     150:	e88e07ff 	stm	lr, {r0, r1, r2, r3, r4, r5, r6, r7, r8, r9, sl}
     154:	e5ceb02c 	strb	fp, [lr, #44]	; 0x2c
     158:	e3a08002 	mov	r8, #2
     15c:	e5ce802e 	strb	r8, [lr, #46]	; 0x2e
     160:	e1a0000b 	mov	r0, fp
     164:	e321f0d3 	msr	CPSR_c, #211	; 0xd3
     168:	fa0005f0 	blx	1930 <rte_handler>

0000016c <cpu_shutdown>:
     16c:	e321f0d3 	msr	CPSR_c, #211	; 0xd3
     170:	e3a0042f 	mov	r0, #788529152	; 0x2f000000
     174:	e3e01000 	mvn	r1, #0
     178:	e5801014 	str	r1, [r0, #20]

0000017c <cpu_sleep>:
     17c:	ee070f90 	mcr	15, 0, r0, cr7, cr0, {4}
     180:	eafffffd 	b	17c <cpu_sleep>
     184:	00001f7e 	.word	0x00001f7e
     188:	004008f8 	.word	0x004008f8
     18c:	e5007000 	.word	0xe5007000

00000190 <cpu_init_mode>:
     190:	e10f3000 	mrs	r3, CPSR
     194:	e121f001 	msr	CPSR_c, r1
     198:	e1a0d000 	mov	sp, r0
     19c:	e12ff003 	msr	CPSR_fsxc, r3
     1a0:	e0400102 	sub	r0, r0, r2, lsl #2
     1a4:	e12fff1e 	bx	lr

000001a8 <cpu_irq_disable>:
     1a8:	e10f0000 	mrs	r0, CPSR
     1ac:	e3801080 	orr	r1, r0, #128	; 0x80
     1b0:	e121f001 	msr	CPSR_c, r1
     1b4:	e12fff1e 	bx	lr

000001b8 <cpu_int_enable>:
     1b8:	e10f0000 	mrs	r0, CPSR
     1bc:	e3c010c0 	bic	r1, r0, #192	; 0xc0
     1c0:	e121f001 	msr	CPSR_c, r1
     1c4:	e12fff1e 	bx	lr

000001c8 <cpu_int_disable>:
     1c8:	e10f0000 	mrs	r0, CPSR
     1cc:	e38010c0 	orr	r1, r0, #192	; 0xc0
     1d0:	e121f001 	msr	CPSR_c, r1
     1d4:	e12fff1e 	bx	lr

000001d8 <cpu_int_restore>:
     1d8:	e12ff000 	msr	CPSR_fsxc, r0
     1dc:	e12fff1e 	bx	lr

000001e0 <cpu_wfi>:
     1e0:	ee070f90 	mcr	15, 0, r0, cr7, cr0, {4}
     1e4:	e12fff1e 	bx	lr

000001e8 <sark_lock_get>:
     1e8:	e3a0c4e2 	mov	ip, #-503316480	; 0xe2000000
     1ec:	e08cc100 	add	ip, ip, r0, lsl #2
     1f0:	e10f0000 	mrs	r0, CPSR
     1f4:	e38010c0 	orr	r1, r0, #192	; 0xc0
     1f8:	e121f001 	msr	CPSR_c, r1

000001fc <lg1>:
     1fc:	e59c1100 	ldr	r1, [ip, #256]	; 0x100
     200:	e3110102 	tst	r1, #-2147483648	; 0x80000000
     204:	1afffffc 	bne	1fc <lg1>
     208:	e12fff1e 	bx	lr

0000020c <sark_lock_free>:
     20c:	e3a0c4e2 	mov	ip, #-503316480	; 0xe2000000
     210:	e08c1101 	add	r1, ip, r1, lsl #2
     214:	e5911180 	ldr	r1, [r1, #384]	; 0x180
     218:	e121f000 	msr	CPSR_c, r0
     21c:	e12fff1e 	bx	lr

00000220 <sark_str_cpy>:
     220:	e4d12001 	ldrb	r2, [r1], #1
     224:	e3520000 	cmp	r2, #0
     228:	e4c02001 	strb	r2, [r0], #1
     22c:	1afffffb 	bne	220 <sark_str_cpy>
     230:	e12fff1e 	bx	lr

00000234 <sark_word_set>:
     234:	e1a03001 	mov	r3, r1

00000238 <ws1>:
     238:	e2522010 	subs	r2, r2, #16
     23c:	28a0000a 	stmiacs	r0!, {r1, r3}
     240:	28a0000a 	stmiacs	r0!, {r1, r3}
     244:	2afffffb 	bcs	238 <ws1>
     248:	e1b02e82 	lsls	r2, r2, #29
     24c:	28a0000a 	stmiacs	r0!, {r1, r3}
     250:	48a00002 	stmiami	r0!, {r1}
     254:	e12fff1e 	bx	lr

00000258 <sark_msg_cpy>:
     258:	e2800004 	add	r0, r0, #4
     25c:	e2811004 	add	r1, r1, #4
     260:	e1d120b0 	ldrh	r2, [r1]
     264:	e2822004 	add	r2, r2, #4

00000268 <sark_word_cpy>:
     268:	e3120003 	tst	r2, #3
     26c:	13c22003 	bicne	r2, r2, #3
     270:	12822004 	addne	r2, r2, #4
     274:	e92d4010 	push	{r4, lr}
     278:	e2522020 	subs	r2, r2, #32
     27c:	3a000005 	bcc	298 <wc2>

00000280 <wc1>:
     280:	e8b15018 	ldm	r1!, {r3, r4, ip, lr}
     284:	e8a05018 	stmia	r0!, {r3, r4, ip, lr}
     288:	e8b15018 	ldm	r1!, {r3, r4, ip, lr}
     28c:	e8a05018 	stmia	r0!, {r3, r4, ip, lr}
     290:	e2522020 	subs	r2, r2, #32
     294:	2afffff9 	bcs	280 <wc1>

00000298 <wc2>:
     298:	e1b0ce02 	lsls	ip, r2, #28
     29c:	28b15018 	ldmcs	r1!, {r3, r4, ip, lr}
     2a0:	28a05018 	stmiacs	r0!, {r3, r4, ip, lr}
     2a4:	48b10018 	ldmmi	r1!, {r3, r4}
     2a8:	48a00018 	stmiami	r0!, {r3, r4}
     2ac:	e1b0cf02 	lsls	ip, r2, #30
     2b0:	24913004 	ldrcs	r3, [r1], #4
     2b4:	24803004 	strcs	r3, [r0], #4
     2b8:	e8bd8010 	pop	{r4, pc}

000002bc <sark_delay_us>:
     2bc:	4903      	ldr	r1, [pc, #12]	; (2cc <delay1+0x8>)
     2be:	8809      	ldrh	r1, [r1, #0]
     2c0:	4341      	muls	r1, r0
     2c2:	0888      	lsrs	r0, r1, #2

000002c4 <delay1>:
     2c4:	3801      	subs	r0, #1
     2c6:	d2fd      	bcs.n	2c4 <delay1>
     2c8:	4770      	bx	lr
     2ca:	0000      	.short	0x0000
     2cc:	00400928 	.word	0x00400928

000002d0 <sark_div10>:
     2d0:	e241200a 	sub	r2, r1, #10
     2d4:	e0411121 	sub	r1, r1, r1, lsr #2
     2d8:	e0811221 	add	r1, r1, r1, lsr #4
     2dc:	e0811421 	add	r1, r1, r1, lsr #8
     2e0:	e0811821 	add	r1, r1, r1, lsr #16
     2e4:	e1a011a1 	lsr	r1, r1, #3
     2e8:	e0813101 	add	r3, r1, r1, lsl #2
     2ec:	e0522083 	subs	r2, r2, r3, lsl #1
     2f0:	52811001 	addpl	r1, r1, #1
     2f4:	4282200a 	addmi	r2, r2, #10
     2f8:	e8800006 	stm	r0, {r1, r2}
     2fc:	e12fff1e 	bx	lr

00000300 <sark_int_han>:
     300:	e92d500f 	push	{r0, r1, r2, r3, ip, lr}
     304:	e24e0004 	sub	r0, lr, #4
     308:	e14fc000 	mrs	ip, SPSR
     30c:	e321f01f 	msr	CPSR_c, #31
     310:	e92d5000 	push	{ip, lr}
     314:	fa00067b 	blx	1d08 <sark_int>
     318:	e8bd5000 	pop	{ip, lr}
     31c:	e321f092 	msr	CPSR_c, #146	; 0x92
     320:	e16ff00c 	msr	SPSR_fsxc, ip
     324:	e3a0042f 	mov	r0, #788529152	; 0x2f000000
     328:	e5800030 	str	r0, [r0, #48]	; 0x30
     32c:	e8bd500f 	pop	{r0, r1, r2, r3, ip, lr}

00000330 <null_int_han>:
     330:	e25ef004 	subs	pc, lr, #4

00000334 <schedule>:
     334:	e92d5000 	push	{ip, lr}
     338:	e10fc000 	mrs	ip, CPSR
     33c:	e3cce01f 	bic	lr, ip, #31
     340:	e38ee01f 	orr	lr, lr, #31
     344:	e121f00e 	msr	CPSR_c, lr
     348:	e92d5000 	push	{ip, lr}
     34c:	fa000abb 	blx	2e40 <schedule_sysmode>
     350:	e8bd5000 	pop	{ip, lr}
     354:	e121f00c 	msr	CPSR_c, ip
     358:	e8bd5000 	pop	{ip, lr}
     35c:	e12fff1e 	bx	lr

00000360 <sark_config>:
     360:	4770      	bx	lr

00000362 <sark_bx>:
     362:	4700      	bx	r0

00000364 <__gnu_thumb1_case_uqi>:
     364:	468c      	mov	ip, r1
     366:	4671      	mov	r1, lr
     368:	3901      	subs	r1, #1
     36a:	5c09      	ldrb	r1, [r1, r0]
     36c:	0049      	lsls	r1, r1, #1
     36e:	448e      	add	lr, r1
     370:	4661      	mov	r1, ip
     372:	4770      	bx	lr

00000374 <sark_aplx>:
     374:	b5f2      	push	{r1, r4, r5, r6, r7, lr}
     376:	4905      	ldr	r1, [pc, #20]	; (38c <aplx_buffer>)
     378:	a605      	add	r6, pc, #20	; (adr r6, 390 <aplx_loader>)
     37a:	2740      	movs	r7, #64	; 0x40

0000037c <aplx_l0>:
     37c:	ce3c      	ldmia	r6!, {r2, r3, r4, r5}
     37e:	c13c      	stmia	r1!, {r2, r3, r4, r5}
     380:	3f10      	subs	r7, #16
     382:	d1fb      	bne.n	37c <aplx_l0>
     384:	1c04      	adds	r4, r0, #0
     386:	393f      	subs	r1, #63	; 0x3f
     388:	4708      	bx	r1
	...

0000038c <aplx_buffer>:
     38c:	00007fc0 	.word	0x00007fc0

00000390 <aplx_loader>:
     390:	cc0f      	ldmia	r4!, {r0, r1, r2, r3}
     392:	2801      	cmp	r0, #1
     394:	d008      	beq.n	3a8 <aplx_copy>
     396:	2802      	cmp	r0, #2
     398:	d004      	beq.n	3a4 <aplx_rcopy>
     39a:	2803      	cmp	r0, #3
     39c:	d00b      	beq.n	3b6 <aplx_fill>
     39e:	2804      	cmp	r0, #4
     3a0:	d011      	beq.n	3c6 <aplx_exec>
     3a2:	bdf2      	pop	{r1, r4, r5, r6, r7, pc}

000003a4 <aplx_rcopy>:
     3a4:	1912      	adds	r2, r2, r4
     3a6:	3a10      	subs	r2, #16

000003a8 <aplx_copy>:
     3a8:	cae1      	ldmia	r2!, {r0, r5, r6, r7}
     3aa:	c1e1      	stmia	r1!, {r0, r5, r6, r7}
     3ac:	cae1      	ldmia	r2!, {r0, r5, r6, r7}
     3ae:	c1e1      	stmia	r1!, {r0, r5, r6, r7}
     3b0:	3b20      	subs	r3, #32
     3b2:	d8f9      	bhi.n	3a8 <aplx_copy>
     3b4:	e7ec      	b.n	390 <aplx_loader>

000003b6 <aplx_fill>:
     3b6:	1c1d      	adds	r5, r3, #0
     3b8:	1c1e      	adds	r6, r3, #0
     3ba:	1c1f      	adds	r7, r3, #0

000003bc <aplx_l1>:
     3bc:	c1e8      	stmia	r1!, {r3, r5, r6, r7}
     3be:	c1e8      	stmia	r1!, {r3, r5, r6, r7}
     3c0:	3a20      	subs	r2, #32
     3c2:	d8fb      	bhi.n	3bc <aplx_l1>
     3c4:	e7e4      	b.n	390 <aplx_loader>

000003c6 <aplx_exec>:
     3c6:	9800      	ldr	r0, [sp, #0]
     3c8:	4788      	blx	r1
     3ca:	e7e1      	b.n	390 <aplx_loader>

000003cc <get_bit_field_size>:
     3cc:	e310001f 	tst	r0, #31
     3d0:	e1a002a0 	lsr	r0, r0, #5
     3d4:	12800001 	addne	r0, r0, #1
     3d8:	e12fff1e 	bx	lr

000003dc <print_bit_field_bits>:
     3dc:	e12fff1e 	bx	lr

000003e0 <print_bit_field>:
     3e0:	e12fff1e 	bx	lr

000003e4 <random_bit_field>:
     3e4:	e12fff1e 	bx	lr

000003e8 <reset_out_spikes>:
     3e8:	e59f3028 	ldr	r3, [pc, #40]	; 418 <MC_TABLE_SIZE+0x18>
     3ec:	e59f2028 	ldr	r2, [pc, #40]	; 41c <MC_TABLE_SIZE+0x1c>
     3f0:	e5933000 	ldr	r3, [r3]
     3f4:	e5922000 	ldr	r2, [r2]
     3f8:	e3530000 	cmp	r3, #0
     3fc:	012fff1e 	bxeq	lr
     400:	e0822103 	add	r2, r2, r3, lsl #2
     404:	e3a01000 	mov	r1, #0
     408:	e2533001 	subs	r3, r3, #1
     40c:	e5221004 	str	r1, [r2, #-4]!
     410:	1afffffc 	bne	408 <MC_TABLE_SIZE+0x8>
     414:	e12fff1e 	bx	lr
     418:	00400474 	.word	0x00400474
     41c:	004008f4 	.word	0x004008f4

00000420 <initialize_out_spikes>:
     420:	e92d4010 	push	{r4, lr}
     424:	ebffffe8 	bl	3cc <get_bit_field_size>
     428:	e59f403c 	ldr	r4, [pc, #60]	; 46c <initialize_out_spikes+0x4c>
     42c:	e3a01001 	mov	r1, #1
     430:	e1a03000 	mov	r3, r0
     434:	e1a00100 	lsl	r0, r0, #2
     438:	e5843000 	str	r3, [r4]
     43c:	fa000776 	blx	221c <sark_alloc>
     440:	e5943000 	ldr	r3, [r4]
     444:	e59f2024 	ldr	r2, [pc, #36]	; 470 <initialize_out_spikes+0x50>
     448:	e3530000 	cmp	r3, #0
     44c:	e5820000 	str	r0, [r2]
     450:	08bd8010 	popeq	{r4, pc}
     454:	e0800103 	add	r0, r0, r3, lsl #2
     458:	e3a02000 	mov	r2, #0
     45c:	e2533001 	subs	r3, r3, #1
     460:	e5202004 	str	r2, [r0, #-4]!
     464:	1afffffc 	bne	45c <initialize_out_spikes+0x3c>
     468:	e8bd8010 	pop	{r4, pc}
     46c:	00400474 	.word	0x00400474
     470:	004008f4 	.word	0x004008f4

00000474 <record_out_spikes>:
     474:	e92d4008 	push	{r3, lr}
     478:	e3a00001 	mov	r0, #1
     47c:	eb00005d 	bl	5f8 <system_data_test_bit>
     480:	e3500000 	cmp	r0, #0
     484:	08bd8008 	popeq	{r3, pc}
     488:	e59f2018 	ldr	r2, [pc, #24]	; 4a8 <RW_LENGTH+0x34>
     48c:	e59f3018 	ldr	r3, [pc, #24]	; 4ac <RW_LENGTH+0x38>
     490:	e5922000 	ldr	r2, [r2]
     494:	e5931000 	ldr	r1, [r3]
     498:	e1a02102 	lsl	r2, r2, #2
     49c:	e3a00000 	mov	r0, #0
     4a0:	e8bd4008 	pop	{r3, lr}
     4a4:	ea0000b9 	b	790 <recording_record>
     4a8:	00400474 	.word	0x00400474
     4ac:	004008f4 	.word	0x004008f4

000004b0 <empty_out_spikes>:
     4b0:	e59f3044 	ldr	r3, [pc, #68]	; 4fc <empty_out_spikes+0x4c>
     4b4:	e59f2044 	ldr	r2, [pc, #68]	; 500 <empty_out_spikes+0x50>
     4b8:	e5933000 	ldr	r3, [r3]
     4bc:	e5922000 	ldr	r2, [r2]
     4c0:	e3530000 	cmp	r3, #0
     4c4:	0a00000a 	beq	4f4 <empty_out_spikes+0x44>
     4c8:	e0822103 	add	r2, r2, r3, lsl #2
     4cc:	e3a00001 	mov	r0, #1
     4d0:	e3500000 	cmp	r0, #0
     4d4:	0a000002 	beq	4e4 <empty_out_spikes+0x34>
     4d8:	e5120004 	ldr	r0, [r2, #-4]
     4dc:	e2700001 	rsbs	r0, r0, #1
     4e0:	33a00000 	movcc	r0, #0
     4e4:	e2533001 	subs	r3, r3, #1
     4e8:	e2422004 	sub	r2, r2, #4
     4ec:	1afffff7 	bne	4d0 <empty_out_spikes+0x20>
     4f0:	e12fff1e 	bx	lr
     4f4:	e3a00001 	mov	r0, #1
     4f8:	e12fff1e 	bx	lr
     4fc:	00400474 	.word	0x00400474
     500:	004008f4 	.word	0x004008f4

00000504 <nonempty_out_spikes>:
     504:	e59f3048 	ldr	r3, [pc, #72]	; 554 <nonempty_out_spikes+0x50>
     508:	e59f2048 	ldr	r2, [pc, #72]	; 558 <nonempty_out_spikes+0x54>
     50c:	e5933000 	ldr	r3, [r3]
     510:	e5922000 	ldr	r2, [r2]
     514:	e3530000 	cmp	r3, #0
     518:	0a00000b 	beq	54c <nonempty_out_spikes+0x48>
     51c:	e0822103 	add	r2, r2, r3, lsl #2
     520:	e3a00001 	mov	r0, #1
     524:	e3500000 	cmp	r0, #0
     528:	0a000002 	beq	538 <nonempty_out_spikes+0x34>
     52c:	e5120004 	ldr	r0, [r2, #-4]
     530:	e2700001 	rsbs	r0, r0, #1
     534:	33a00000 	movcc	r0, #0
     538:	e2533001 	subs	r3, r3, #1
     53c:	e2422004 	sub	r2, r2, #4
     540:	1afffff7 	bne	524 <nonempty_out_spikes+0x20>
     544:	e2200001 	eor	r0, r0, #1
     548:	e12fff1e 	bx	lr
     54c:	e1a00003 	mov	r0, r3
     550:	e12fff1e 	bx	lr
     554:	00400474 	.word	0x00400474
     558:	004008f4 	.word	0x004008f4

0000055c <out_spike_test>:
     55c:	e59f3020 	ldr	r3, [pc, #32]	; 584 <out_spike_test+0x28>
     560:	e1a022a0 	lsr	r2, r0, #5
     564:	e5933000 	ldr	r3, [r3]
     568:	e200001f 	and	r0, r0, #31
     56c:	e7933102 	ldr	r3, [r3, r2, lsl #2]
     570:	e3a02001 	mov	r2, #1
     574:	e0133012 	ands	r3, r3, r2, lsl r0
     578:	03a00000 	moveq	r0, #0
     57c:	13a00001 	movne	r0, #1
     580:	e12fff1e 	bx	lr
     584:	004008f4 	.word	0x004008f4

00000588 <print_out_spikes>:
     588:	e12fff1e 	bx	lr

0000058c <system_header_filled>:
     58c:	e5902000 	ldr	r2, [r0]
     590:	e59f3020 	ldr	r3, [pc, #32]	; 5b8 <SPARE_SIZE+0x18>
     594:	e1520003 	cmp	r2, r3
     598:	05902004 	ldreq	r2, [r0, #4]
     59c:	059f3018 	ldreq	r3, [pc, #24]	; 5bc <SPARE_SIZE+0x1c>
     5a0:	05812000 	streq	r2, [r1]
     5a4:	05902008 	ldreq	r2, [r0, #8]
     5a8:	05832000 	streq	r2, [r3]
     5ac:	03a00001 	moveq	r0, #1
     5b0:	13a00000 	movne	r0, #0
     5b4:	e12fff1e 	bx	lr
     5b8:	ad130ad6 	.word	0xad130ad6
     5bc:	00400478 	.word	0x00400478

000005c0 <system_data_filled>:
     5c0:	e52d4004 	push	{r4}		; (str r4, [sp, #-4]!)
     5c4:	e59f1028 	ldr	r1, [pc, #40]	; 5f4 <system_data_filled+0x34>
     5c8:	e8901010 	ldm	r0, {r4, ip}
     5cc:	e5814004 	str	r4, [r1, #4]
     5d0:	e582c000 	str	ip, [r2]
     5d4:	e59d1004 	ldr	r1, [sp, #4]
     5d8:	e5902008 	ldr	r2, [r0, #8]
     5dc:	e5832000 	str	r2, [r3]
     5e0:	e590300c 	ldr	r3, [r0, #12]
     5e4:	e5813000 	str	r3, [r1]
     5e8:	e3a00001 	mov	r0, #1
     5ec:	e49d4004 	pop	{r4}		; (ldr r4, [sp], #4)
     5f0:	e12fff1e 	bx	lr
     5f4:	00400478 	.word	0x00400478

000005f8 <system_data_test_bit>:
     5f8:	e59f3010 	ldr	r3, [pc, #16]	; 610 <ETH_TX_SIZE+0x10>
     5fc:	e5933004 	ldr	r3, [r3, #4]
     600:	e1100003 	tst	r0, r3
     604:	03a00000 	moveq	r0, #0
     608:	13a00001 	movne	r0, #1
     60c:	e12fff1e 	bx	lr
     610:	00400478 	.word	0x00400478

00000614 <check_deadbeef>:
     614:	e5900000 	ldr	r0, [r0]
     618:	e59f300c 	ldr	r3, [pc, #12]	; 62c <check_deadbeef+0x18>
     61c:	e0503003 	subs	r3, r0, r3
     620:	e2730000 	rsbs	r0, r3, #0
     624:	e0b00003 	adcs	r0, r0, r3
     628:	e12fff1e 	bx	lr
     62c:	deadbeef 	.word	0xdeadbeef

00000630 <check_magic_number>:
     630:	e5900000 	ldr	r0, [r0]
     634:	e59f300c 	ldr	r3, [pc, #12]	; 648 <check_magic_number+0x18>
     638:	e0502003 	subs	r2, r0, r3
     63c:	e2720000 	rsbs	r0, r2, #0
     640:	e0b00002 	adcs	r0, r0, r2
     644:	e12fff1e 	bx	lr
     648:	ad130ad6 	.word	0xad130ad6

0000064c <vector_copied>:
     64c:	e3510000 	cmp	r1, #0
     650:	0a000006 	beq	670 <vector_copied+0x24>
     654:	e1a0c101 	lsl	ip, r1, #2
     658:	e3a03000 	mov	r3, #0
     65c:	e7921003 	ldr	r1, [r2, r3]
     660:	e7801003 	str	r1, [r0, r3]
     664:	e2833004 	add	r3, r3, #4
     668:	e153000c 	cmp	r3, ip
     66c:	1afffffa 	bne	65c <vector_copied+0x10>
     670:	e3a00001 	mov	r0, #1
     674:	e12fff1e 	bx	lr

00000678 <half_word_vector_copied>:
     678:	e1b010a1 	lsrs	r1, r1, #1
     67c:	0a000006 	beq	69c <half_word_vector_copied+0x24>
     680:	e1a0c101 	lsl	ip, r1, #2
     684:	e3a03000 	mov	r3, #0
     688:	e7921003 	ldr	r1, [r2, r3]
     68c:	e7801003 	str	r1, [r0, r3]
     690:	e2833004 	add	r3, r3, #4
     694:	e153000c 	cmp	r3, ip
     698:	1afffffa 	bne	688 <half_word_vector_copied+0x10>
     69c:	e3a00001 	mov	r0, #1
     6a0:	e12fff1e 	bx	lr

000006a4 <byte_vector_copied>:
     6a4:	e3510000 	cmp	r1, #0
     6a8:	0a000005 	beq	6c4 <byte_vector_copied+0x20>
     6ac:	e0801001 	add	r1, r0, r1
     6b0:	e2422004 	sub	r2, r2, #4
     6b4:	e5b23004 	ldr	r3, [r2, #4]!
     6b8:	e4c03001 	strb	r3, [r0], #1
     6bc:	e1500001 	cmp	r0, r1
     6c0:	1afffffb 	bne	6b4 <byte_vector_copied+0x10>
     6c4:	e3a00001 	mov	r0, #1
     6c8:	e12fff1e 	bx	lr

000006cc <equal_vector>:
     6cc:	e3500001 	cmp	r0, #1
     6d0:	e5912000 	ldr	r2, [r1]
     6d4:	9a000008 	bls	6fc <equal_vector+0x30>
     6d8:	e241c004 	sub	ip, r1, #4
     6dc:	e08cc100 	add	ip, ip, r0, lsl #2
     6e0:	e3a00001 	mov	r0, #1
     6e4:	e5b13004 	ldr	r3, [r1, #4]!
     6e8:	e1530002 	cmp	r3, r2
     6ec:	13a00000 	movne	r0, #0
     6f0:	e151000c 	cmp	r1, ip
     6f4:	1afffffa 	bne	6e4 <equal_vector+0x18>
     6f8:	e12fff1e 	bx	lr
     6fc:	e3a00001 	mov	r0, #1
     700:	e12fff1e 	bx	lr

00000704 <region_start>:
     704:	e2800004 	add	r0, r0, #4
     708:	e7910100 	ldr	r0, [r1, r0, lsl #2]
     70c:	e3c00003 	bic	r0, r0, #3
     710:	e0810000 	add	r0, r1, r0
     714:	e12fff1e 	bx	lr

00000718 <configuration_reader_offset>:
     718:	e7903101 	ldr	r3, [r0, r1, lsl #2]
     71c:	e3c33003 	bic	r3, r3, #3
     720:	e0800003 	add	r0, r0, r3
     724:	e12fff1e 	bx	lr

00000728 <recording_data_filled>:
     728:	e59fc05c 	ldr	ip, [pc, #92]	; 78c <recording_data_filled+0x64>
     72c:	e92d0030 	push	{r4, r5}
     730:	e1a04202 	lsl	r4, r2, #4
     734:	e08c1004 	add	r1, ip, r4
     738:	e5915004 	ldr	r5, [r1, #4]
     73c:	e3550000 	cmp	r5, #0
     740:	0a000005 	beq	75c <recording_data_filled+0x34>
     744:	e591100c 	ldr	r1, [r1, #12]
     748:	e3510000 	cmp	r1, #0
     74c:	13a00000 	movne	r0, #0
     750:	0a000001 	beq	75c <recording_data_filled+0x34>
     754:	e8bd0030 	pop	{r4, r5}
     758:	e12fff1e 	bx	lr
     75c:	e1a01000 	mov	r1, r0
     760:	e3a05000 	mov	r5, #0
     764:	e78c0202 	str	r0, [ip, r2, lsl #4]
     768:	e4815004 	str	r5, [r1], #4
     76c:	e08cc004 	add	ip, ip, r4
     770:	e0813003 	add	r3, r1, r3
     774:	e3a00001 	mov	r0, #1
     778:	e58c300c 	str	r3, [ip, #12]
     77c:	e58c1008 	str	r1, [ip, #8]
     780:	e58c1004 	str	r1, [ip, #4]
     784:	e8bd0030 	pop	{r4, r5}
     788:	e12fff1e 	bx	lr
     78c:	00400480 	.word	0x00400480

00000790 <recording_record>:
     790:	e92d4038 	push	{r3, r4, r5, lr}
     794:	e59f404c 	ldr	r4, [pc, #76]	; 7e8 <ZI_LENGTH+0x4>
     798:	e1a05002 	mov	r5, r2
     79c:	e0844200 	add	r4, r4, r0, lsl #4
     7a0:	e5940004 	ldr	r0, [r4, #4]
     7a4:	e3500000 	cmp	r0, #0
     7a8:	08bd8038 	popeq	{r3, r4, r5, pc}
     7ac:	e594300c 	ldr	r3, [r4, #12]
     7b0:	e3530000 	cmp	r3, #0
     7b4:	0a000003 	beq	7c8 <recording_record+0x38>
     7b8:	e5940008 	ldr	r0, [r4, #8]
     7bc:	e0623003 	rsb	r3, r2, r3
     7c0:	e1500003 	cmp	r0, r3
     7c4:	3a000001 	bcc	7d0 <recording_record+0x40>
     7c8:	e3a00000 	mov	r0, #0
     7cc:	e8bd8038 	pop	{r3, r4, r5, pc}
     7d0:	eb0015cb 	bl	5f04 <memcpy>
     7d4:	e5943008 	ldr	r3, [r4, #8]
     7d8:	e3a00001 	mov	r0, #1
     7dc:	e0835005 	add	r5, r3, r5
     7e0:	e5845008 	str	r5, [r4, #8]
     7e4:	e8bd8038 	pop	{r3, r4, r5, pc}
     7e8:	00400480 	.word	0x00400480

000007ec <recording_finalise>:
     7ec:	e59f3034 	ldr	r3, [pc, #52]	; 828 <STACK_SIZE+0x28>
     7f0:	e283c030 	add	ip, r3, #48	; 0x30
     7f4:	e5132008 	ldr	r2, [r3, #-8]
     7f8:	e3520000 	cmp	r2, #0
     7fc:	0a000005 	beq	818 <STACK_SIZE+0x18>
     800:	e5931000 	ldr	r1, [r3]
     804:	e3510000 	cmp	r1, #0
     808:	15130004 	ldrne	r0, [r3, #-4]
     80c:	1513100c 	ldrne	r1, [r3, #-12]
     810:	10622000 	rsbne	r2, r2, r0
     814:	15812000 	strne	r2, [r1]
     818:	e2833010 	add	r3, r3, #16
     81c:	e153000c 	cmp	r3, ip
     820:	1afffff3 	bne	7f4 <recording_finalise+0x8>
     824:	e12fff1e 	bx	lr
     828:	0040048c 	.word	0x0040048c

0000082c <system_load_sram>:
     82c:	e92d4038 	push	{r3, r4, r5, lr}
     830:	fa00097c 	blx	2e28 <spin1_get_core_id>
     834:	e59f4020 	ldr	r4, [pc, #32]	; 85c <system_load_sram+0x30>
     838:	e0840380 	add	r0, r4, r0, lsl #7
     83c:	e5905070 	ldr	r5, [r0, #112]	; 0x70
     840:	fa000978 	blx	2e28 <spin1_get_core_id>
     844:	e59f3014 	ldr	r3, [pc, #20]	; 860 <system_load_sram+0x34>
     848:	e0840380 	add	r0, r4, r0, lsl #7
     84c:	e5902074 	ldr	r2, [r0, #116]	; 0x74
     850:	e5832000 	str	r2, [r3]
     854:	e1a00005 	mov	r0, r5
     858:	e8bd8038 	pop	{r3, r4, r5, pc}
     85c:	e5007000 	.word	0xe5007000
     860:	004004b0 	.word	0x004004b0

00000864 <system_lead_app_configured>:
     864:	e92d4010 	push	{r4, lr}
     868:	e59f4038 	ldr	r4, [pc, #56]	; 8a8 <system_lead_app_configured+0x44>
     86c:	e3a01000 	mov	r1, #0
     870:	e1d400b2 	ldrh	r0, [r4, #2]
     874:	fa000674 	blx	224c <rtr_alloc_id>
     878:	e59f302c 	ldr	r3, [pc, #44]	; 8ac <system_lead_app_configured+0x48>
     87c:	e3500000 	cmp	r0, #0
     880:	e1a02000 	mov	r2, r0
     884:	e5830004 	str	r0, [r3, #4]
     888:	1a000000 	bne	890 <system_lead_app_configured+0x2c>
     88c:	e8bd8010 	pop	{r4, pc}
     890:	e1a00004 	mov	r0, r4
     894:	e3a01000 	mov	r1, #0
     898:	fa000613 	blx	20ec <rtr_mc_load>
     89c:	e2900000 	adds	r0, r0, #0
     8a0:	13a00001 	movne	r0, #1
     8a4:	e8bd8010 	pop	{r4, pc}
     8a8:	77780000 	.word	0x77780000
     8ac:	004004b0 	.word	0x004004b0

000008b0 <system_runs_to_completion>:
     8b0:	e92d4008 	push	{r3, lr}
     8b4:	e3a00001 	mov	r0, #1
     8b8:	fa0008e0 	blx	2c40 <spin1_start>
     8bc:	e59f301c 	ldr	r3, [pc, #28]	; 8e0 <system_runs_to_completion+0x30>
     8c0:	e5d33000 	ldrb	r3, [r3]
     8c4:	e3530000 	cmp	r3, #0
     8c8:	0a000002 	beq	8d8 <system_runs_to_completion+0x28>
     8cc:	fa00041a 	blx	193c <sark_app_id>
     8d0:	e3a01001 	mov	r1, #1
     8d4:	fa0006a4 	blx	236c <rtr_free_id>
     8d8:	e3a00001 	mov	r0, #1
     8dc:	e8bd8008 	pop	{r3, pc}
     8e0:	00400a04 	.word	0x00400a04

000008e4 <system_data_extracted>:
     8e4:	e3a00001 	mov	r0, #1
     8e8:	e12fff1e 	bx	lr

000008ec <WELL1024a_simp>:
     8ec:	e59f3090 	ldr	r3, [pc, #144]	; 984 <WELL1024a_simp+0x98>
     8f0:	e92d01f0 	push	{r4, r5, r6, r7, r8}
     8f4:	e5932000 	ldr	r2, [r3]
     8f8:	e282c003 	add	ip, r2, #3
     8fc:	e2821018 	add	r1, r2, #24
     900:	e282400a 	add	r4, r2, #10
     904:	e282001f 	add	r0, r2, #31
     908:	e20cc01f 	and	ip, ip, #31
     90c:	e201101f 	and	r1, r1, #31
     910:	e204401f 	and	r4, r4, #31
     914:	e200001f 	and	r0, r0, #31
     918:	e083c10c 	add	ip, r3, ip, lsl #2
     91c:	e0832102 	add	r2, r3, r2, lsl #2
     920:	e0834104 	add	r4, r3, r4, lsl #2
     924:	e0831101 	add	r1, r3, r1, lsl #2
     928:	e59c7004 	ldr	r7, [ip, #4]
     92c:	e5945004 	ldr	r5, [r4, #4]
     930:	e5911004 	ldr	r1, [r1, #4]
     934:	e0834100 	add	r4, r3, r0, lsl #2
     938:	e592c004 	ldr	ip, [r2, #4]
     93c:	e5946004 	ldr	r6, [r4, #4]
     940:	e027c00c 	eor	ip, r7, ip
     944:	e0258001 	eor	r8, r5, r1
     948:	e02cc427 	eor	ip, ip, r7, lsr #8
     94c:	e0281981 	eor	r1, r8, r1, lsl #19
     950:	e0266586 	eor	r6, r6, r6, lsl #11
     954:	e0211705 	eor	r1, r1, r5, lsl #14
     958:	e026600c 	eor	r6, r6, ip
     95c:	e0266001 	eor	r6, r6, r1
     960:	e026638c 	eor	r6, r6, ip, lsl #7
     964:	e021c00c 	eor	ip, r1, ip
     968:	e0261681 	eor	r1, r6, r1, lsl #13
     96c:	e5830000 	str	r0, [r3]
     970:	e582c004 	str	ip, [r2, #4]
     974:	e1a00001 	mov	r0, r1
     978:	e5841004 	str	r1, [r4, #4]
     97c:	e8bd01f0 	pop	{r4, r5, r6, r7, r8}
     980:	e12fff1e 	bx	lr
     984:	004004b8 	.word	0x004004b8

00000988 <validate_WELL1024a_seed>:
     988:	e3a03000 	mov	r3, #0
     98c:	e5803084 	str	r3, [r0, #132]	; 0x84
     990:	e12fff1e 	bx	lr

00000994 <WELL1024a_seed>:
     994:	e5903084 	ldr	r3, [r0, #132]	; 0x84
     998:	e92d0070 	push	{r4, r5, r6}
     99c:	e283c018 	add	ip, r3, #24
     9a0:	e283100a 	add	r1, r3, #10
     9a4:	e2832003 	add	r2, r3, #3
     9a8:	e201101f 	and	r1, r1, #31
     9ac:	e20cc01f 	and	ip, ip, #31
     9b0:	e7904101 	ldr	r4, [r0, r1, lsl #2]
     9b4:	e790c10c 	ldr	ip, [r0, ip, lsl #2]
     9b8:	e202201f 	and	r2, r2, #31
     9bc:	e7905102 	ldr	r5, [r0, r2, lsl #2]
     9c0:	e7901103 	ldr	r1, [r0, r3, lsl #2]
     9c4:	e283601f 	add	r6, r3, #31
     9c8:	e024200c 	eor	r2, r4, ip
     9cc:	e206601f 	and	r6, r6, #31
     9d0:	e0251001 	eor	r1, r5, r1
     9d4:	e022298c 	eor	r2, r2, ip, lsl #19
     9d8:	e790c106 	ldr	ip, [r0, r6, lsl #2]
     9dc:	e0211425 	eor	r1, r1, r5, lsr #8
     9e0:	e0222704 	eor	r2, r2, r4, lsl #14
     9e4:	e0224001 	eor	r4, r2, r1
     9e8:	e02cc58c 	eor	ip, ip, ip, lsl #11
     9ec:	e7804103 	str	r4, [r0, r3, lsl #2]
     9f0:	e02cc001 	eor	ip, ip, r1
     9f4:	e5903084 	ldr	r3, [r0, #132]	; 0x84
     9f8:	e02cc002 	eor	ip, ip, r2
     9fc:	e02c1381 	eor	r1, ip, r1, lsl #7
     a00:	e283301f 	add	r3, r3, #31
     a04:	e203301f 	and	r3, r3, #31
     a08:	e0212682 	eor	r2, r1, r2, lsl #13
     a0c:	e7802103 	str	r2, [r0, r3, lsl #2]
     a10:	e5903084 	ldr	r3, [r0, #132]	; 0x84
     a14:	e8bd0070 	pop	{r4, r5, r6}
     a18:	e283301f 	add	r3, r3, #31
     a1c:	e203301f 	and	r3, r3, #31
     a20:	e5803084 	str	r3, [r0, #132]	; 0x84
     a24:	e7900103 	ldr	r0, [r0, r3, lsl #2]
     a28:	e12fff1e 	bx	lr

00000a2c <mars_kiss32>:
     a2c:	e59f3060 	ldr	r3, [pc, #96]	; a94 <mars_kiss32+0x68>
     a30:	e92d0070 	push	{r4, r5, r6}
     a34:	e59f405c 	ldr	r4, [pc, #92]	; a98 <mars_kiss32+0x6c>
     a38:	e5935004 	ldr	r5, [r3, #4]
     a3c:	e5930008 	ldr	r0, [r3, #8]
     a40:	e594c084 	ldr	ip, [r4, #132]	; 0x84
     a44:	e5931000 	ldr	r1, [r3]
     a48:	e593600c 	ldr	r6, [r3, #12]
     a4c:	e0850000 	add	r0, r5, r0
     a50:	e59f2044 	ldr	r2, [pc, #68]	; a9c <mars_kiss32+0x70>
     a54:	e080000c 	add	r0, r0, ip
     a58:	e0211281 	eor	r1, r1, r1, lsl #5
     a5c:	e0862002 	add	r2, r6, r2
     a60:	e3c0c102 	bic	ip, r0, #-2147483648	; 0x80000000
     a64:	e02113a1 	eor	r1, r1, r1, lsr #7
     a68:	e1a06fa0 	lsr	r6, r0, #31
     a6c:	e0211b01 	eor	r1, r1, r1, lsl #22
     a70:	e08c0002 	add	r0, ip, r2
     a74:	e5835008 	str	r5, [r3, #8]
     a78:	e5846084 	str	r6, [r4, #132]	; 0x84
     a7c:	e0800001 	add	r0, r0, r1
     a80:	e583c004 	str	ip, [r3, #4]
     a84:	e583200c 	str	r2, [r3, #12]
     a88:	e5831000 	str	r1, [r3]
     a8c:	e8bd0070 	pop	{r4, r5, r6}
     a90:	e12fff1e 	bx	lr
     a94:	00400000 	.word	0x00400000
     a98:	004004b8 	.word	0x004004b8
     a9c:	542023ab 	.word	0x542023ab

00000aa0 <mars_kiss64_simp>:
     aa0:	e59f1054 	ldr	r1, [pc, #84]	; afc <mars_kiss64_simp+0x5c>
     aa4:	e92d0070 	push	{r4, r5, r6}
     aa8:	e59fc050 	ldr	ip, [pc, #80]	; b00 <mars_kiss64_simp+0x60>
     aac:	e5916018 	ldr	r6, [r1, #24]
     ab0:	e591201c 	ldr	r2, [r1, #28]
     ab4:	e5914010 	ldr	r4, [r1, #16]
     ab8:	e59f5044 	ldr	r5, [pc, #68]	; b04 <mars_kiss64_simp+0x64>
     abc:	e59f0044 	ldr	r0, [pc, #68]	; b08 <mars_kiss64_simp+0x68>
     ac0:	e3a03000 	mov	r3, #0
     ac4:	e0a3269c 	umlal	r2, r3, ip, r6
     ac8:	e591c014 	ldr	ip, [r1, #20]
     acc:	e0240495 	mla	r4, r5, r4, r0
     ad0:	e02cc28c 	eor	ip, ip, ip, lsl #5
     ad4:	e02cc3ac 	eor	ip, ip, ip, lsr #7
     ad8:	e0840002 	add	r0, r4, r2
     adc:	e02ccb0c 	eor	ip, ip, ip, lsl #22
     ae0:	e5814010 	str	r4, [r1, #16]
     ae4:	e080000c 	add	r0, r0, ip
     ae8:	e581301c 	str	r3, [r1, #28]
     aec:	e5812018 	str	r2, [r1, #24]
     af0:	e581c014 	str	ip, [r1, #20]
     af4:	e8bd0070 	pop	{r4, r5, r6}
     af8:	e12fff1e 	bx	lr
     afc:	00400000 	.word	0x00400000
     b00:	fffa2849 	.word	0xfffa2849
     b04:	12bf507d 	.word	0x12bf507d
     b08:	0012d687 	.word	0x0012d687

00000b0c <init_WELL1024a_simp>:
     b0c:	e92d4038 	push	{r3, r4, r5, lr}
     b10:	e59f4014 	ldr	r4, [pc, #20]	; b2c <init_WELL1024a_simp+0x20>
     b14:	e2845080 	add	r5, r4, #128	; 0x80
     b18:	ebffffe0 	bl	aa0 <mars_kiss64_simp>
     b1c:	e5a40004 	str	r0, [r4, #4]!
     b20:	e1540005 	cmp	r4, r5
     b24:	1afffffb 	bne	b18 <init_WELL1024a_simp+0xc>
     b28:	e8bd8038 	pop	{r3, r4, r5, pc}
     b2c:	004004b8 	.word	0x004004b8

00000b30 <mars_kiss64_seed>:
     b30:	e92d0070 	push	{r4, r5, r6}
     b34:	e590200c 	ldr	r2, [r0, #12]
     b38:	e5906008 	ldr	r6, [r0, #8]
     b3c:	e59fc048 	ldr	ip, [pc, #72]	; b8c <mars_kiss64_seed+0x5c>
     b40:	e1a01000 	mov	r1, r0
     b44:	e5904000 	ldr	r4, [r0]
     b48:	e59f5040 	ldr	r5, [pc, #64]	; b90 <mars_kiss64_seed+0x60>
     b4c:	e59f0040 	ldr	r0, [pc, #64]	; b94 <mars_kiss64_seed+0x64>
     b50:	e3a03000 	mov	r3, #0
     b54:	e0a3269c 	umlal	r2, r3, ip, r6
     b58:	e591c004 	ldr	ip, [r1, #4]
     b5c:	e0240495 	mla	r4, r5, r4, r0
     b60:	e02cc28c 	eor	ip, ip, ip, lsl #5
     b64:	e02cc3ac 	eor	ip, ip, ip, lsr #7
     b68:	e0840002 	add	r0, r4, r2
     b6c:	e02ccb0c 	eor	ip, ip, ip, lsl #22
     b70:	e5814000 	str	r4, [r1]
     b74:	e080000c 	add	r0, r0, ip
     b78:	e581300c 	str	r3, [r1, #12]
     b7c:	e5812008 	str	r2, [r1, #8]
     b80:	e581c004 	str	ip, [r1, #4]
     b84:	e8bd0070 	pop	{r4, r5, r6}
     b88:	e12fff1e 	bx	lr
     b8c:	fffa2849 	.word	0xfffa2849
     b90:	12bf507d 	.word	0x12bf507d
     b94:	0012d687 	.word	0x0012d687

00000b98 <validate_mars_kiss64_seed>:
     b98:	e5903004 	ldr	r3, [r0, #4]
     b9c:	e59f2030 	ldr	r2, [pc, #48]	; bd4 <validate_mars_kiss64_seed+0x3c>
     ba0:	e3530000 	cmp	r3, #0
     ba4:	059f302c 	ldreq	r3, [pc, #44]	; bd8 <validate_mars_kiss64_seed+0x40>
     ba8:	05803004 	streq	r3, [r0, #4]
     bac:	e590300c 	ldr	r3, [r0, #12]
     bb0:	e1a01123 	lsr	r1, r3, #2
     bb4:	e082c291 	umull	ip, r2, r1, r2
     bb8:	e59f101c 	ldr	r1, [pc, #28]	; bdc <validate_mars_kiss64_seed+0x44>
     bbc:	e1a02d22 	lsr	r2, r2, #26
     bc0:	e0020291 	mul	r2, r1, r2
     bc4:	e0623003 	rsb	r3, r2, r3
     bc8:	e2833001 	add	r3, r3, #1
     bcc:	e580300c 	str	r3, [r0, #12]
     bd0:	e12fff1e 	bx	lr
     bd4:	6257f735 	.word	0x6257f735
     bd8:	00c6d785 	.word	0x00c6d785
     bdc:	29a65eac 	.word	0x29a65eac

00000be0 <exponential_dist_variate>:
     be0:	e92d43f8 	push	{r3, r4, r5, r6, r7, r8, r9, lr}
     be4:	e1a07000 	mov	r7, r0
     be8:	e1a06001 	mov	r6, r1
     bec:	e3a09000 	mov	r9, #0
     bf0:	e1a00006 	mov	r0, r6
     bf4:	e12fff37 	blx	r7
     bf8:	e1a08000 	mov	r8, r0
     bfc:	e1a04000 	mov	r4, r0
     c00:	ea000003 	b	c14 <ETH_RX_SIZE+0x14>
     c04:	e12fff37 	blx	r7
     c08:	e1550000 	cmp	r5, r0
     c0c:	e1a04000 	mov	r4, r0
     c10:	9a000009 	bls	c3c <ETH_RX_SIZE+0x3c>
     c14:	e1a00006 	mov	r0, r6
     c18:	e12fff37 	blx	r7
     c1c:	e1a05000 	mov	r5, r0
     c20:	e1540005 	cmp	r4, r5
     c24:	e1a00006 	mov	r0, r6
     c28:	2afffff5 	bcs	c04 <ETH_RX_SIZE+0x4>
     c2c:	e1a00008 	mov	r0, r8
     c30:	eb0010f7 	bl	5014 <__gnu_fractusqsa>
     c34:	e0800009 	add	r0, r0, r9
     c38:	e8bd83f8 	pop	{r3, r4, r5, r6, r7, r8, r9, pc}
     c3c:	e3a03902 	mov	r3, #32768	; 0x8000
     c40:	e0899003 	add	r9, r9, r3
     c44:	eaffffe9 	b	bf0 <exponential_dist_variate+0x10>

00000c48 <gaussian_dist_variate>:
     c48:	e92d43f8 	push	{r3, r4, r5, r6, r7, r8, r9, lr}
     c4c:	e59f910c 	ldr	r9, [pc, #268]	; d60 <gaussian_dist_variate+0x118>
     c50:	e1a07000 	mov	r7, r0
     c54:	e5d93088 	ldrb	r3, [r9, #136]	; 0x88
     c58:	e1a06001 	mov	r6, r1
     c5c:	e3530000 	cmp	r3, #0
     c60:	0a000009 	beq	c8c <gaussian_dist_variate+0x44>
     c64:	e3a03000 	mov	r3, #0
     c68:	e599008c 	ldr	r0, [r9, #140]	; 0x8c
     c6c:	e5c93088 	strb	r3, [r9, #136]	; 0x88
     c70:	eb0010f9 	bl	505c <__gnu_fractsfsa>
     c74:	e8bd83f8 	pop	{r3, r4, r5, r6, r7, r8, r9, pc}
     c78:	e1a00008 	mov	r0, r8
     c7c:	e3a01000 	mov	r1, #0
     c80:	eb000f52 	bl	49d0 <__aeabi_fcmpeq>
     c84:	e3500000 	cmp	r0, #0
     c88:	0a00001f 	beq	d0c <gaussian_dist_variate+0xc4>
     c8c:	e1a00006 	mov	r0, r6
     c90:	e12fff37 	blx	r7
     c94:	eb000e2f 	bl	4558 <__aeabi_ui2f>
     c98:	e3a01203 	mov	r1, #805306368	; 0x30000000
     c9c:	eb000e66 	bl	463c <__aeabi_fmul>
     ca0:	e3a015fe 	mov	r1, #1065353216	; 0x3f800000
     ca4:	eb000dbb 	bl	4398 <__aeabi_fsub>
     ca8:	e1a05000 	mov	r5, r0
     cac:	e1a00006 	mov	r0, r6
     cb0:	e12fff37 	blx	r7
     cb4:	eb000e27 	bl	4558 <__aeabi_ui2f>
     cb8:	e3a01203 	mov	r1, #805306368	; 0x30000000
     cbc:	eb000e5e 	bl	463c <__aeabi_fmul>
     cc0:	e3a015fe 	mov	r1, #1065353216	; 0x3f800000
     cc4:	eb000db3 	bl	4398 <__aeabi_fsub>
     cc8:	e1a01005 	mov	r1, r5
     ccc:	e1a04000 	mov	r4, r0
     cd0:	e1a00005 	mov	r0, r5
     cd4:	eb000e58 	bl	463c <__aeabi_fmul>
     cd8:	e1a01004 	mov	r1, r4
     cdc:	e1a08000 	mov	r8, r0
     ce0:	e1a00004 	mov	r0, r4
     ce4:	eb000e54 	bl	463c <__aeabi_fmul>
     ce8:	e1a01000 	mov	r1, r0
     cec:	e1a00008 	mov	r0, r8
     cf0:	eb000da9 	bl	439c <__addsf3>
     cf4:	e3a015fe 	mov	r1, #1065353216	; 0x3f800000
     cf8:	e1a08000 	mov	r8, r0
     cfc:	eb000f45 	bl	4a18 <__aeabi_fcmpge>
     d00:	e3500000 	cmp	r0, #0
     d04:	1affffe0 	bne	c8c <gaussian_dist_variate+0x44>
     d08:	eaffffda 	b	c78 <gaussian_dist_variate+0x30>
     d0c:	e1a00008 	mov	r0, r8
     d10:	eb000956 	bl	3270 <logf>
     d14:	e3a01103 	mov	r1, #-1073741824	; 0xc0000000
     d18:	eb000e47 	bl	463c <__aeabi_fmul>
     d1c:	e1a01008 	mov	r1, r8
     d20:	eb000eab 	bl	47d4 <__aeabi_fdiv>
     d24:	eb0009ac 	bl	33dc <sqrtf>
     d28:	e1a06000 	mov	r6, r0
     d2c:	e1a01006 	mov	r1, r6
     d30:	e1a00005 	mov	r0, r5
     d34:	eb000e40 	bl	463c <__aeabi_fmul>
     d38:	e3a03001 	mov	r3, #1
     d3c:	e5c93088 	strb	r3, [r9, #136]	; 0x88
     d40:	e589008c 	str	r0, [r9, #140]	; 0x8c
     d44:	e1a00004 	mov	r0, r4
     d48:	eb0010c3 	bl	505c <__gnu_fractsfsa>
     d4c:	eb00109c 	bl	4fc4 <__gnu_fractsasf>
     d50:	e1a01006 	mov	r1, r6
     d54:	eb000e38 	bl	463c <__aeabi_fmul>
     d58:	eb0010bf 	bl	505c <__gnu_fractsfsa>
     d5c:	e8bd83f8 	pop	{r3, r4, r5, r6, r7, r8, r9, pc}
     d60:	004004b8 	.word	0x004004b8

00000d64 <poisson_dist_variate>:
     d64:	e3a03000 	mov	r3, #0
     d68:	e92d41f0 	push	{r4, r5, r6, r7, r8, lr}
     d6c:	e1a08000 	mov	r8, r0
     d70:	e0430002 	sub	r0, r3, r2
     d74:	e1a07001 	mov	r7, r1
     d78:	eb0002a8 	bl	1820 <expk>
     d7c:	eb00108e 	bl	4fbc <__gnu_fractsausq>
     d80:	e3e04000 	mvn	r4, #0
     d84:	e3a05000 	mov	r5, #0
     d88:	e1a06000 	mov	r6, r0
     d8c:	ea000000 	b	d94 <poisson_dist_variate+0x30>
     d90:	e1a05003 	mov	r5, r3
     d94:	e1a00007 	mov	r0, r7
     d98:	e12fff38 	blx	r8
     d9c:	e1a01000 	mov	r1, r0
     da0:	e1a00004 	mov	r0, r4
     da4:	eb000f32 	bl	4a74 <__gnu_mulusq3>
     da8:	e1a04000 	mov	r4, r0
     dac:	e1a01004 	mov	r1, r4
     db0:	e1a00006 	mov	r0, r6
     db4:	eb001024 	bl	4e4c <__gnu_cmpusq2>
     db8:	e2853001 	add	r3, r5, #1
     dbc:	e3500001 	cmp	r0, #1
     dc0:	3afffff2 	bcc	d90 <poisson_dist_variate+0x2c>
     dc4:	e1a00005 	mov	r0, r5
     dc8:	e8bd81f0 	pop	{r4, r5, r6, r7, r8, pc}

00000dcc <poisson_dist_variate_exp_minus_lambda>:
     dcc:	e92d41f0 	push	{r4, r5, r6, r7, r8, lr}
     dd0:	e1a08000 	mov	r8, r0
     dd4:	e1a07001 	mov	r7, r1
     dd8:	e1a06002 	mov	r6, r2
     ddc:	e3e04000 	mvn	r4, #0
     de0:	e3a05000 	mov	r5, #0
     de4:	ea000000 	b	dec <poisson_dist_variate_exp_minus_lambda+0x20>
     de8:	e1a05003 	mov	r5, r3
     dec:	e1a00007 	mov	r0, r7
     df0:	e12fff38 	blx	r8
     df4:	e1a01000 	mov	r1, r0
     df8:	e1a00004 	mov	r0, r4
     dfc:	eb000f1c 	bl	4a74 <__gnu_mulusq3>
     e00:	e1a01006 	mov	r1, r6
     e04:	e1a04000 	mov	r4, r0
     e08:	eb00100f 	bl	4e4c <__gnu_cmpusq2>
     e0c:	e2853001 	add	r3, r5, #1
     e10:	e3500001 	cmp	r0, #1
     e14:	8afffff3 	bhi	de8 <poisson_dist_variate_exp_minus_lambda+0x1c>
     e18:	e1a00005 	mov	r0, r5
     e1c:	e8bd81f0 	pop	{r4, r5, r6, r7, r8, pc}

00000e20 <timer_callback>:
     e20:	e92d4010 	push	{r4, lr}
     e24:	e59f3050 	ldr	r3, [pc, #80]	; e7c <timer_callback+0x5c>
     e28:	e59f4050 	ldr	r4, [pc, #80]	; e80 <timer_callback+0x60>
     e2c:	e5933000 	ldr	r3, [r3]
     e30:	e5940000 	ldr	r0, [r4]
     e34:	e3730001 	cmn	r3, #1
     e38:	e2800001 	add	r0, r0, #1
     e3c:	e5840000 	str	r0, [r4]
     e40:	0a000001 	beq	e4c <timer_callback+0x2c>
     e44:	e1500003 	cmp	r0, r3
     e48:	2a000006 	bcs	e68 <timer_callback+0x48>
     e4c:	eb0001cc 	bl	1584 <spike_source_generate>
     e50:	ebfffd87 	bl	474 <record_out_spikes>
     e54:	ebfffdaa 	bl	504 <nonempty_out_spikes>
     e58:	e3500000 	cmp	r0, #0
     e5c:	08bd8010 	popeq	{r4, pc}
     e60:	e8bd4010 	pop	{r4, lr}
     e64:	eafffd5f 	b	3e8 <reset_out_spikes>
     e68:	ebfffe5f 	bl	7ec <recording_finalise>
     e6c:	e3a00000 	mov	r0, #0
     e70:	fa000719 	blx	2adc <spin1_exit>
     e74:	e5940000 	ldr	r0, [r4]
     e78:	eafffff3 	b	e4c <timer_callback+0x2c>
     e7c:	004004b0 	.word	0x004004b0
     e80:	00400548 	.word	0x00400548

00000e84 <load_dtcm>:
     e84:	e92d4030 	push	{r4, r5, lr}
     e88:	e24dd01c 	sub	sp, sp, #28
     e8c:	ebfffe66 	bl	82c <system_load_sram>
     e90:	e28d1008 	add	r1, sp, #8
     e94:	e3a02000 	mov	r2, #0
     e98:	e1a05000 	mov	r5, r0
     e9c:	ebfffdba 	bl	58c <system_header_filled>
     ea0:	e3500000 	cmp	r0, #0
     ea4:	1a000003 	bne	eb8 <load_dtcm+0x34>
     ea8:	e3a04000 	mov	r4, #0
     eac:	e1a00004 	mov	r0, r4
     eb0:	e28dd01c 	add	sp, sp, #28
     eb4:	e8bd8030 	pop	{r4, r5, pc}
     eb8:	e1a01005 	mov	r1, r5
     ebc:	e3a00001 	mov	r0, #1
     ec0:	ebfffe0f 	bl	704 <region_start>
     ec4:	e28d3014 	add	r3, sp, #20
     ec8:	e58d3000 	str	r3, [sp]
     ecc:	e3a01000 	mov	r1, #0
     ed0:	e28d200c 	add	r2, sp, #12
     ed4:	e28d3010 	add	r3, sp, #16
     ed8:	ebfffdb8 	bl	5c0 <system_data_filled>
     edc:	e2504000 	subs	r4, r0, #0
     ee0:	0afffff0 	beq	ea8 <load_dtcm+0x24>
     ee4:	e59d1014 	ldr	r1, [sp, #20]
     ee8:	e58d1000 	str	r1, [sp]
     eec:	e59d200c 	ldr	r2, [sp, #12]
     ef0:	e59d3010 	ldr	r3, [sp, #16]
     ef4:	e1a00005 	mov	r0, r5
     ef8:	e3a01000 	mov	r1, #0
     efc:	eb000184 	bl	1514 <spike_source_data_filled>
     f00:	e1a00004 	mov	r0, r4
     f04:	e28dd01c 	add	sp, sp, #28
     f08:	e8bd8030 	pop	{r4, r5, pc}

00000f0c <c_main>:
     f0c:	e92d4008 	push	{r3, lr}
     f10:	ebffffdb 	bl	e84 <load_dtcm>
     f14:	e59f3054 	ldr	r3, [pc, #84]	; f70 <c_main+0x64>
     f18:	e5d33000 	ldrb	r3, [r3]
     f1c:	e3530000 	cmp	r3, #0
     f20:	0a000000 	beq	f28 <c_main+0x1c>
     f24:	ebfffe4e 	bl	864 <system_lead_app_configured>
     f28:	e59f3044 	ldr	r3, [pc, #68]	; f74 <c_main+0x68>
     f2c:	e3e02000 	mvn	r2, #0
     f30:	e5930004 	ldr	r0, [r3, #4]
     f34:	e5832000 	str	r2, [r3]
     f38:	ebfffd38 	bl	420 <initialize_out_spikes>
     f3c:	e59f3034 	ldr	r3, [pc, #52]	; f78 <c_main+0x6c>
     f40:	e5930000 	ldr	r0, [r3]
     f44:	fa0006ed 	blx	2b00 <spin1_set_timer_tick>
     f48:	e3a00002 	mov	r0, #2
     f4c:	e1a02000 	mov	r2, r0
     f50:	e59f1024 	ldr	r1, [pc, #36]	; f7c <c_main+0x70>
     f54:	fa0006c1 	blx	2a60 <spin1_callback_on>
     f58:	e3a00001 	mov	r0, #1
     f5c:	e59f101c 	ldr	r1, [pc, #28]	; f80 <c_main+0x74>
     f60:	e3a02000 	mov	r2, #0
     f64:	fa0006bd 	blx	2a60 <spin1_callback_on>
     f68:	e8bd4008 	pop	{r3, lr}
     f6c:	eafffe4f 	b	8b0 <system_runs_to_completion>
     f70:	00400a04 	.word	0x00400a04
     f74:	00400548 	.word	0x00400548
     f78:	00400478 	.word	0x00400478
     f7c:	00000e20 	.word	0x00000e20
     f80:	00001580 	.word	0x00001580

00000f84 <incoming_update_callback>:
     f84:	e92d4ff0 	push	{r4, r5, r6, r7, r8, r9, sl, fp, lr}
     f88:	e59f61ec 	ldr	r6, [pc, #492]	; 117c <SV_SIZE+0x17c>
     f8c:	e24dd00c 	sub	sp, sp, #12
     f90:	e5963004 	ldr	r3, [r6, #4]
     f94:	e5962008 	ldr	r2, [r6, #8]
     f98:	e5960000 	ldr	r0, [r6]
     f9c:	e0622003 	rsb	r2, r2, r3
     fa0:	e3520009 	cmp	r2, #9
     fa4:	9a00006e 	bls	1164 <SV_SIZE+0x164>
     fa8:	e596200c 	ldr	r2, [r6, #12]
     fac:	e3520000 	cmp	r2, #0
     fb0:	0a000067 	beq	1154 <SV_SIZE+0x154>
     fb4:	e3a07000 	mov	r7, #0
     fb8:	e1a0a031 	lsr	sl, r1, r0
     fbc:	e1a09007 	mov	r9, r7
     fc0:	ea00002e 	b	1080 <SV_SIZE+0x80>
     fc4:	eb000ff3 	bl	4f98 <__gnu_fractsada2>
     fc8:	e1cd00f0 	strd	r0, [sp]
     fcc:	e1a00005 	mov	r0, r5
     fd0:	eb001031 	bl	509c <__gnu_fractunssida>
     fd4:	e1cd20d0 	ldrd	r2, [sp]
     fd8:	eb000e9a 	bl	4a48 <__gnu_subda3>
     fdc:	e1a02000 	mov	r2, r0
     fe0:	e1a03001 	mov	r3, r1
     fe4:	e3a00102 	mov	r0, #-2147483648	; 0x80000000
     fe8:	e3a01000 	mov	r1, #0
     fec:	eb000e95 	bl	4a48 <__gnu_subda3>
     ff0:	eb000ff9 	bl	4fdc <__gnu_fractdasa2>
     ff4:	e5965020 	ldr	r5, [r6, #32]
     ff8:	e085b00b 	add	fp, r5, fp
     ffc:	e59b1004 	ldr	r1, [fp, #4]
    1000:	e0c32190 	smull	r2, r3, r0, r1
    1004:	e1a00004 	mov	r0, r4
    1008:	e1a0b883 	lsl	fp, r3, #17
    100c:	e18bb7a2 	orr	fp, fp, r2, lsr #15
    1010:	eb001021 	bl	509c <__gnu_fractunssida>
    1014:	e1a02000 	mov	r2, r0
    1018:	e1a03001 	mov	r3, r1
    101c:	e1cd00d0 	ldrd	r0, [sp]
    1020:	eb000e88 	bl	4a48 <__gnu_subda3>
    1024:	e1a03001 	mov	r3, r1
    1028:	e1a02000 	mov	r2, r0
    102c:	e3a01000 	mov	r1, #0
    1030:	e3a00102 	mov	r0, #-2147483648	; 0x80000000
    1034:	eb000e83 	bl	4a48 <__gnu_subda3>
    1038:	eb000fe7 	bl	4fdc <__gnu_fractdasa2>
    103c:	e7953104 	ldr	r3, [r5, r4, lsl #2]
    1040:	e0c54390 	smull	r4, r5, r0, r3
    1044:	e1a03885 	lsl	r3, r5, #17
    1048:	e18307a4 	orr	r0, r3, r4, lsr #15
    104c:	e08bb000 	add	fp, fp, r0
    1050:	e598000c 	ldr	r0, [r8, #12]
    1054:	e1a0100b 	mov	r1, fp
    1058:	eb000f68 	bl	4e00 <__gnu_cmpsa2>
    105c:	e2899001 	add	r9, r9, #1
    1060:	e2877014 	add	r7, r7, #20
    1064:	e3500001 	cmp	r0, #1
    1068:	ca00002f 	bgt	112c <SV_SIZE+0x12c>
    106c:	e596300c 	ldr	r3, [r6, #12]
    1070:	e588b00c 	str	fp, [r8, #12]
    1074:	e1530009 	cmp	r3, r9
    1078:	e59f20fc 	ldr	r2, [pc, #252]	; 117c <SV_SIZE+0x17c>
    107c:	9a000033 	bls	1150 <SV_SIZE+0x150>
    1080:	e5968010 	ldr	r8, [r6, #16]
    1084:	e7980007 	ldr	r0, [r8, r7]
    1088:	eb000fea 	bl	5038 <__gnu_fractsida>
    108c:	e0888007 	add	r8, r8, r7
    1090:	e1a04000 	mov	r4, r0
    1094:	e5960014 	ldr	r0, [r6, #20]
    1098:	e1a05001 	mov	r5, r1
    109c:	eb000fbd 	bl	4f98 <__gnu_fractsada2>
    10a0:	e1a02000 	mov	r2, r0
    10a4:	e1a03001 	mov	r3, r1
    10a8:	e1a00004 	mov	r0, r4
    10ac:	e1a01005 	mov	r1, r5
    10b0:	eb000e67 	bl	4a54 <__gnu_mulda3>
    10b4:	eb000fcb 	bl	4fe8 <__gnu_fractdasi>
    10b8:	e59f20c0 	ldr	r2, [pc, #192]	; 1180 <SV_SIZE+0x180>
    10bc:	e5923000 	ldr	r3, [r2]
    10c0:	e063300a 	rsb	r3, r3, sl
    10c4:	e0630000 	rsb	r0, r3, r0
    10c8:	eb000ff1 	bl	5094 <__gnu_fractunssisa>
    10cc:	e5963018 	ldr	r3, [r6, #24]
    10d0:	e0c54390 	smull	r4, r5, r0, r3
    10d4:	e1a01005 	mov	r1, r5
    10d8:	e1a03881 	lsl	r3, r1, #17
    10dc:	e1a057a4 	lsr	r5, r4, #15
    10e0:	e1850003 	orr	r0, r5, r3
    10e4:	e1a05000 	mov	r5, r0
    10e8:	eb000faa 	bl	4f98 <__gnu_fractsada2>
    10ec:	e3a02000 	mov	r2, #0
    10f0:	e3a03000 	mov	r3, #0
    10f4:	eb000f4a 	bl	4e24 <__gnu_cmpda2>
    10f8:	e3a03000 	mov	r3, #0
    10fc:	e3500001 	cmp	r0, #1
    1100:	b0435005 	sublt	r5, r3, r5
    1104:	e1a00005 	mov	r0, r5
    1108:	eb000fd9 	bl	5074 <__gnu_fractunssasi>
    110c:	e1a04000 	mov	r4, r0
    1110:	e1a00005 	mov	r0, r5
    1114:	e2845001 	add	r5, r4, #1
    1118:	e35500ff 	cmp	r5, #255	; 0xff
    111c:	e1a0b104 	lsl	fp, r4, #2
    1120:	9affffa7 	bls	fc4 <incoming_update_callback+0x40>
    1124:	e596b01c 	ldr	fp, [r6, #28]
    1128:	eaffffc8 	b	1050 <SV_SIZE+0x50>
    112c:	e59f0050 	ldr	r0, [pc, #80]	; 1184 <SV_SIZE+0x184>
    1130:	e59f1050 	ldr	r1, [pc, #80]	; 1188 <SV_SIZE+0x188>
    1134:	ebfffea9 	bl	be0 <exponential_dist_variate>
    1138:	e0c32b90 	smull	r2, r3, r0, fp
    113c:	e1a00002 	mov	r0, r2
    1140:	e1a03883 	lsl	r3, r3, #17
    1144:	e18327a0 	orr	r2, r3, r0, lsr #15
    1148:	e5882010 	str	r2, [r8, #16]
    114c:	eaffffc6 	b	106c <SV_SIZE+0x6c>
    1150:	e5923004 	ldr	r3, [r2, #4]
    1154:	e5962034 	ldr	r2, [r6, #52]	; 0x34
    1158:	e5863008 	str	r3, [r6, #8]
    115c:	e1520003 	cmp	r2, r3
    1160:	3a000001 	bcc	116c <SV_SIZE+0x16c>
    1164:	e28dd00c 	add	sp, sp, #12
    1168:	e8bd8ff0 	pop	{r4, r5, r6, r7, r8, r9, sl, fp, pc}
    116c:	e3a00005 	mov	r0, #5
    1170:	e28dd00c 	add	sp, sp, #12
    1174:	e8bd4ff0 	pop	{r4, r5, r6, r7, r8, r9, sl, fp, lr}
    1178:	ea00139e 	b	5ff8 <__spin1_callback_off_from_arm>
    117c:	00400554 	.word	0x00400554
    1180:	00400020 	.word	0x00400020
    1184:	00000b30 	.word	0x00000b30
    1188:	00400578 	.word	0x00400578

0000118c <fill_gauss_lut>:
    118c:	e92d41f0 	push	{r4, r5, r6, r7, r8, lr}
    1190:	e59f50a8 	ldr	r5, [pc, #168]	; 1240 <fill_gauss_lut+0xb4>
    1194:	e3a04000 	mov	r4, #0
    1198:	e5956020 	ldr	r6, [r5, #32]
    119c:	e1a07005 	mov	r7, r5
    11a0:	e1a00004 	mov	r0, r4
    11a4:	eb000fc1 	bl	50b0 <__gnu_fractunssiuda>
    11a8:	e3a027e2 	mov	r2, #59244544	; 0x3880000
    11ac:	e3a03000 	mov	r3, #0
    11b0:	eb000e34 	bl	4a88 <__gnu_muluda3>
    11b4:	eb000f9a 	bl	5024 <__gnu_fractudausa2>
    11b8:	e0832090 	umull	r2, r3, r0, r0
    11bc:	e1a00002 	mov	r0, r2
    11c0:	e1a03803 	lsl	r3, r3, #16
    11c4:	e1830820 	orr	r0, r3, r0, lsr #16
    11c8:	eb000f93 	bl	501c <__gnu_fractusasa>
    11cc:	e3a01901 	mov	r1, #16384	; 0x4000
    11d0:	e0c32190 	smull	r2, r3, r0, r1
    11d4:	e1a00883 	lsl	r0, r3, #17
    11d8:	e18007a2 	orr	r0, r0, r2, lsr #15
    11dc:	eb00018f 	bl	1820 <expk>
    11e0:	e5951038 	ldr	r1, [r5, #56]	; 0x38
    11e4:	e5958020 	ldr	r8, [r5, #32]
    11e8:	e0c32190 	smull	r2, r3, r0, r1
    11ec:	e1a03883 	lsl	r3, r3, #17
    11f0:	e18327a2 	orr	r2, r3, r2, lsr #15
    11f4:	e7862104 	str	r2, [r6, r4, lsl #2]
    11f8:	e7980104 	ldr	r0, [r8, r4, lsl #2]
    11fc:	e595101c 	ldr	r1, [r5, #28]
    1200:	eb000efe 	bl	4e00 <__gnu_cmpsa2>
    1204:	e1a06008 	mov	r6, r8
    1208:	e3500001 	cmp	r0, #1
    120c:	c597301c 	ldrgt	r3, [r7, #28]
    1210:	c7883104 	strgt	r3, [r8, r4, lsl #2]
    1214:	e2844001 	add	r4, r4, #1
    1218:	e3540c01 	cmp	r4, #256	; 0x100
    121c:	1affffdf 	bne	11a0 <fill_gauss_lut+0x14>
    1220:	e59f301c 	ldr	r3, [pc, #28]	; 1244 <fill_gauss_lut+0xb8>
    1224:	e59f201c 	ldr	r2, [pc, #28]	; 1248 <fill_gauss_lut+0xbc>
    1228:	e5931008 	ldr	r1, [r3, #8]
    122c:	e1a00002 	mov	r0, r2
    1230:	e5832004 	str	r2, [r3, #4]
    1234:	eb000f48 	bl	4f5c <__gnu_divsa3>
    1238:	e5850018 	str	r0, [r5, #24]
    123c:	e8bd81f0 	pop	{r4, r5, r6, r7, r8, pc}
    1240:	00400554 	.word	0x00400554
    1244:	00400020 	.word	0x00400020
    1248:	002aaaaa 	.word	0x002aaaaa

0000124c <spike_source_poisson_parameters_filled>:
    124c:	e92d4ff0 	push	{r4, r5, r6, r7, r8, r9, sl, fp, lr}
    1250:	e9900068 	ldmib	r0, {r3, r5, r6}
    1254:	e59f4298 	ldr	r4, [pc, #664]	; 14f4 <spike_source_poisson_parameters_filled+0x2a8>
    1258:	e1a08000 	mov	r8, r0
    125c:	e59fc294 	ldr	ip, [pc, #660]	; 14f8 <spike_source_poisson_parameters_filled+0x2ac>
    1260:	e584303c 	str	r3, [r4, #60]	; 0x3c
    1264:	e59f3290 	ldr	r3, [pc, #656]	; 14fc <spike_source_poisson_parameters_filled+0x2b0>
    1268:	e590e000 	ldr	lr, [r0]
    126c:	e24dd00c 	sub	sp, sp, #12
    1270:	e2881010 	add	r1, r8, #16
    1274:	e3a02004 	mov	r2, #4
    1278:	e2840038 	add	r0, r4, #56	; 0x38
    127c:	e58ce000 	str	lr, [ip]
    1280:	e5835000 	str	r5, [r3]
    1284:	e583600c 	str	r6, [r3, #12]
    1288:	eb00131d 	bl	5f04 <memcpy>
    128c:	e2881014 	add	r1, r8, #20
    1290:	e3a02004 	mov	r2, #4
    1294:	e284001c 	add	r0, r4, #28
    1298:	eb001319 	bl	5f04 <memcpy>
    129c:	e5980018 	ldr	r0, [r8, #24]
    12a0:	eb000f62 	bl	5030 <__gnu_fractsisa>
    12a4:	e1a02006 	mov	r2, r6
    12a8:	e59f624c 	ldr	r6, [pc, #588]	; 14fc <spike_source_poisson_parameters_filled+0x2b0>
    12ac:	e598101c 	ldr	r1, [r8, #28]
    12b0:	e1a03005 	mov	r3, r5
    12b4:	e5861010 	str	r1, [r6, #16]
    12b8:	e596e000 	ldr	lr, [r6]
    12bc:	e596c00c 	ldr	ip, [r6, #12]
    12c0:	e5945000 	ldr	r5, [r4]
    12c4:	e59f7234 	ldr	r7, [pc, #564]	; 1500 <spike_source_poisson_parameters_filled+0x2b4>
    12c8:	e59f9234 	ldr	r9, [pc, #564]	; 1504 <spike_source_poisson_parameters_filled+0x2b8>
    12cc:	e58d8004 	str	r8, [sp, #4]
    12d0:	e1a0b000 	mov	fp, r0
    12d4:	ea000006 	b	12f4 <spike_source_poisson_parameters_filled+0xa8>
    12d8:	eb000f2c 	bl	4f90 <__gnu_ashrsa3>
    12dc:	e2855001 	add	r5, r5, #1
    12e0:	e1a03006 	mov	r3, r6
    12e4:	e1a0200a 	mov	r2, sl
    12e8:	e1a0e006 	mov	lr, r6
    12ec:	e1a0c00a 	mov	ip, sl
    12f0:	e1a0b000 	mov	fp, r0
    12f4:	e3a01001 	mov	r1, #1
    12f8:	e1530007 	cmp	r3, r7
    12fc:	e1a0000b 	mov	r0, fp
    1300:	e1a06153 	asr	r6, r3, r1
    1304:	e1a0a152 	asr	sl, r2, r1
    1308:	bafffff2 	blt	12d8 <spike_source_poisson_parameters_filled+0x8c>
    130c:	e1520009 	cmp	r2, r9
    1310:	cafffff0 	bgt	12d8 <spike_source_poisson_parameters_filled+0x8c>
    1314:	e59d8004 	ldr	r8, [sp, #4]
    1318:	e59f91dc 	ldr	r9, [pc, #476]	; 14fc <spike_source_poisson_parameters_filled+0x2b0>
    131c:	e0633002 	rsb	r3, r3, r2
    1320:	e2881020 	add	r1, r8, #32
    1324:	e3a02010 	mov	r2, #16
    1328:	e59f01d8 	ldr	r0, [pc, #472]	; 1508 <spike_source_poisson_parameters_filled+0x2bc>
    132c:	e589e000 	str	lr, [r9]
    1330:	e5893014 	str	r3, [r9, #20]
    1334:	e589c00c 	str	ip, [r9, #12]
    1338:	e5845000 	str	r5, [r4]
    133c:	e589b008 	str	fp, [r9, #8]
    1340:	eb0012ef 	bl	5f04 <memcpy>
    1344:	e59f01bc 	ldr	r0, [pc, #444]	; 1508 <spike_source_poisson_parameters_filled+0x2bc>
    1348:	ebfffe12 	bl	b98 <validate_mars_kiss64_seed>
    134c:	e5983030 	ldr	r3, [r8, #48]	; 0x30
    1350:	e5982034 	ldr	r2, [r8, #52]	; 0x34
    1354:	e0830103 	add	r0, r3, r3, lsl #2
    1358:	e59f11ac 	ldr	r1, [pc, #428]	; 150c <spike_source_poisson_parameters_filled+0x2c0>
    135c:	e082c003 	add	ip, r2, r3
    1360:	e1a00100 	lsl	r0, r0, #2
    1364:	e584300c 	str	r3, [r4, #12]
    1368:	e581c000 	str	ip, [r1]
    136c:	e5842040 	str	r2, [r4, #64]	; 0x40
    1370:	fa0006af 	blx	2e34 <spin1_malloc>
    1374:	e594a00c 	ldr	sl, [r4, #12]
    1378:	e2881038 	add	r1, r8, #56	; 0x38
    137c:	e1a0510a 	lsl	r5, sl, #2
    1380:	e085200a 	add	r2, r5, sl
    1384:	e1a02102 	lsl	r2, r2, #2
    1388:	e5840010 	str	r0, [r4, #16]
    138c:	eb0012dc 	bl	5f04 <memcpy>
    1390:	e35a0000 	cmp	sl, #0
    1394:	e1a03000 	mov	r3, r0
    1398:	0a000019 	beq	1404 <spike_source_poisson_parameters_filled+0x1b8>
    139c:	e3a05000 	mov	r5, #0
    13a0:	e59f714c 	ldr	r7, [pc, #332]	; 14f4 <spike_source_poisson_parameters_filled+0x2a8>
    13a4:	e1a06005 	mov	r6, r5
    13a8:	e58d8004 	str	r8, [sp, #4]
    13ac:	e083a005 	add	sl, r3, r5
    13b0:	e59f1150 	ldr	r1, [pc, #336]	; 1508 <spike_source_poisson_parameters_filled+0x2bc>
    13b4:	e59f0154 	ldr	r0, [pc, #340]	; 1510 <spike_source_poisson_parameters_filled+0x2c4>
    13b8:	e59ab00c 	ldr	fp, [sl, #12]
    13bc:	ebfffe07 	bl	be0 <exponential_dist_variate>
    13c0:	e5943010 	ldr	r3, [r4, #16]
    13c4:	e5941034 	ldr	r1, [r4, #52]	; 0x34
    13c8:	e0832005 	add	r2, r3, r5
    13cc:	e5922008 	ldr	r2, [r2, #8]
    13d0:	e2866001 	add	r6, r6, #1
    13d4:	e1520001 	cmp	r2, r1
    13d8:	85872034 	strhi	r2, [r7, #52]	; 0x34
    13dc:	e2855014 	add	r5, r5, #20
    13e0:	e0c98b90 	smull	r8, r9, r0, fp
    13e4:	e1a01889 	lsl	r1, r9, #17
    13e8:	e18107a8 	orr	r0, r1, r8, lsr #15
    13ec:	e58a0010 	str	r0, [sl, #16]
    13f0:	e594a00c 	ldr	sl, [r4, #12]
    13f4:	e15a0006 	cmp	sl, r6
    13f8:	8affffeb 	bhi	13ac <spike_source_poisson_parameters_filled+0x160>
    13fc:	e59d8004 	ldr	r8, [sp, #4]
    1400:	e1a0510a 	lsl	r5, sl, #2
    1404:	e5943034 	ldr	r3, [r4, #52]	; 0x34
    1408:	e5940040 	ldr	r0, [r4, #64]	; 0x40
    140c:	e3530031 	cmp	r3, #49	; 0x31
    1410:	82433032 	subhi	r3, r3, #50	; 0x32
    1414:	93a03000 	movls	r3, #0
    1418:	e1a00200 	lsl	r0, r0, #4
    141c:	e5843034 	str	r3, [r4, #52]	; 0x34
    1420:	fa000683 	blx	2e34 <spin1_malloc>
    1424:	e085100a 	add	r1, r5, sl
    1428:	e5942040 	ldr	r2, [r4, #64]	; 0x40
    142c:	e281100d 	add	r1, r1, #13
    1430:	e1a02202 	lsl	r2, r2, #4
    1434:	e0881101 	add	r1, r8, r1, lsl #2
    1438:	e59f90bc 	ldr	r9, [pc, #188]	; 14fc <spike_source_poisson_parameters_filled+0x2b0>
    143c:	e5840044 	str	r0, [r4, #68]	; 0x44
    1440:	eb0012af 	bl	5f04 <memcpy>
    1444:	e3a00b01 	mov	r0, #1024	; 0x400
    1448:	fa000679 	blx	2e34 <spin1_malloc>
    144c:	e5998010 	ldr	r8, [r9, #16]
    1450:	e5995014 	ldr	r5, [r9, #20]
    1454:	e2488001 	sub	r8, r8, #1
    1458:	e5840020 	str	r0, [r4, #32]
    145c:	e1a00008 	mov	r0, r8
    1460:	eb000f0b 	bl	5094 <__gnu_fractunssisa>
    1464:	eb000ecb 	bl	4f98 <__gnu_fractsada2>
    1468:	e1a06000 	mov	r6, r0
    146c:	e1a00005 	mov	r0, r5
    1470:	e1a07001 	mov	r7, r1
    1474:	eb000eef 	bl	5038 <__gnu_fractsida>
    1478:	e1a02000 	mov	r2, r0
    147c:	e1a03001 	mov	r3, r1
    1480:	e1a00006 	mov	r0, r6
    1484:	e1a01007 	mov	r1, r7
    1488:	eb000eb8 	bl	4f70 <__gnu_divda3>
    148c:	eb000ed2 	bl	4fdc <__gnu_fractdasa2>
    1490:	e5840048 	str	r0, [r4, #72]	; 0x48
    1494:	e1a00005 	mov	r0, r5
    1498:	eb000ee4 	bl	5030 <__gnu_fractsisa>
    149c:	e1a05000 	mov	r5, r0
    14a0:	e1a01000 	mov	r1, r0
    14a4:	e594001c 	ldr	r0, [r4, #28]
    14a8:	eb000eab 	bl	4f5c <__gnu_divsa3>
    14ac:	e584004c 	str	r0, [r4, #76]	; 0x4c
    14b0:	e1a00005 	mov	r0, r5
    14b4:	eb000eb7 	bl	4f98 <__gnu_fractsada2>
    14b8:	e1a06000 	mov	r6, r0
    14bc:	e1a00008 	mov	r0, r8
    14c0:	e1a07001 	mov	r7, r1
    14c4:	eb000ef4 	bl	509c <__gnu_fractunssida>
    14c8:	e1a02000 	mov	r2, r0
    14cc:	e1a03001 	mov	r3, r1
    14d0:	e1a00006 	mov	r0, r6
    14d4:	e1a01007 	mov	r1, r7
    14d8:	eb000ea4 	bl	4f70 <__gnu_divda3>
    14dc:	eb000ebe 	bl	4fdc <__gnu_fractdasa2>
    14e0:	e5840014 	str	r0, [r4, #20]
    14e4:	ebffff28 	bl	118c <fill_gauss_lut>
    14e8:	e3a00001 	mov	r0, #1
    14ec:	e28dd00c 	add	sp, sp, #12
    14f0:	e8bd8ff0 	pop	{r4, r5, r6, r7, r8, r9, sl, fp, pc}
    14f4:	00400554 	.word	0x00400554
    14f8:	00400550 	.word	0x00400550
    14fc:	00400020 	.word	0x00400020
    1500:	ffff8002 	.word	0xffff8002
    1504:	00007ffe 	.word	0x00007ffe
    1508:	00400578 	.word	0x00400578
    150c:	0040054c 	.word	0x0040054c
    1510:	00000b30 	.word	0x00000b30

00001514 <spike_source_data_filled>:
    1514:	e92d4070 	push	{r4, r5, r6, lr}
    1518:	e1a05000 	mov	r5, r0
    151c:	e1a04001 	mov	r4, r1
    1520:	e3a00002 	mov	r0, #2
    1524:	e1a01005 	mov	r1, r5
    1528:	e1a06002 	mov	r6, r2
    152c:	ebfffc74 	bl	704 <region_start>
    1530:	e1a01004 	mov	r1, r4
    1534:	ebffff44 	bl	124c <spike_source_poisson_parameters_filled>
    1538:	e3500000 	cmp	r0, #0
    153c:	1a000002 	bne	154c <spike_source_data_filled+0x38>
    1540:	e3a04000 	mov	r4, #0
    1544:	e1a00004 	mov	r0, r4
    1548:	e8bd8070 	pop	{r4, r5, r6, pc}
    154c:	e1a01005 	mov	r1, r5
    1550:	e3a00003 	mov	r0, #3
    1554:	ebfffc6a 	bl	704 <region_start>
    1558:	e1a01004 	mov	r1, r4
    155c:	e1a03006 	mov	r3, r6
    1560:	e3a02000 	mov	r2, #0
    1564:	ebfffc6f 	bl	728 <recording_data_filled>
    1568:	e2504000 	subs	r4, r0, #0
    156c:	0afffff3 	beq	1540 <spike_source_data_filled+0x2c>
    1570:	e3a00005 	mov	r0, #5
    1574:	fa00054f 	blx	2ab8 <spin1_callback_off>
    1578:	e1a00004 	mov	r0, r4
    157c:	e8bd8070 	pop	{r4, r5, r6, pc}

00001580 <spike_source_dma_callback>:
    1580:	e12fff1e 	bx	lr

00001584 <spike_source_generate>:
    1584:	e92d4ff0 	push	{r4, r5, r6, r7, r8, r9, sl, fp, lr}
    1588:	e59f524c 	ldr	r5, [pc, #588]	; 17dc <spike_source_generate+0x258>
    158c:	e24dd00c 	sub	sp, sp, #12
    1590:	e5954010 	ldr	r4, [r5, #16]
    1594:	e1a07000 	mov	r7, r0
    1598:	e5943004 	ldr	r3, [r4, #4]
    159c:	e2833001 	add	r3, r3, #1
    15a0:	e1530000 	cmp	r3, r0
    15a4:	0a000077 	beq	1788 <spike_source_generate+0x204>
    15a8:	e5943008 	ldr	r3, [r4, #8]
    15ac:	e2433001 	sub	r3, r3, #1
    15b0:	e1570003 	cmp	r7, r3
    15b4:	8a000070 	bhi	177c <spike_source_generate+0x1f8>
    15b8:	e595300c 	ldr	r3, [r5, #12]
    15bc:	e5857004 	str	r7, [r5, #4]
    15c0:	e3530000 	cmp	r3, #0
    15c4:	0a000019 	beq	1630 <spike_source_generate+0xac>
    15c8:	e3a06000 	mov	r6, #0
    15cc:	e59f920c 	ldr	r9, [pc, #524]	; 17e0 <spike_source_generate+0x25c>
    15d0:	e59f820c 	ldr	r8, [pc, #524]	; 17e4 <spike_source_generate+0x260>
    15d4:	e1a0a006 	mov	sl, r6
    15d8:	e5954010 	ldr	r4, [r5, #16]
    15dc:	e28aa001 	add	sl, sl, #1
    15e0:	e0844006 	add	r4, r4, r6
    15e4:	e5943004 	ldr	r3, [r4, #4]
    15e8:	e2866014 	add	r6, r6, #20
    15ec:	e1570003 	cmp	r7, r3
    15f0:	3a00000b 	bcc	1624 <spike_source_generate+0xa0>
    15f4:	e5943008 	ldr	r3, [r4, #8]
    15f8:	e3a01000 	mov	r1, #0
    15fc:	e1570003 	cmp	r7, r3
    1600:	2a000007 	bcs	1624 <spike_source_generate+0xa0>
    1604:	e5940010 	ldr	r0, [r4, #16]
    1608:	eb000dfc 	bl	4e00 <__gnu_cmpsa2>
    160c:	e5943010 	ldr	r3, [r4, #16]
    1610:	e3500001 	cmp	r0, #1
    1614:	da00003d 	ble	1710 <spike_source_generate+0x18c>
    1618:	e3a02902 	mov	r2, #32768	; 0x8000
    161c:	e0433002 	sub	r3, r3, r2
    1620:	e5843010 	str	r3, [r4, #16]
    1624:	e595300c 	ldr	r3, [r5, #12]
    1628:	e153000a 	cmp	r3, sl
    162c:	8affffe9 	bhi	15d8 <spike_source_generate+0x54>
    1630:	e5953040 	ldr	r3, [r5, #64]	; 0x40
    1634:	e3530000 	cmp	r3, #0
    1638:	0a000032 	beq	1708 <spike_source_generate+0x184>
    163c:	e59fb19c 	ldr	fp, [pc, #412]	; 17e0 <spike_source_generate+0x25c>
    1640:	e59fa19c 	ldr	sl, [pc, #412]	; 17e4 <spike_source_generate+0x260>
    1644:	e3a06000 	mov	r6, #0
    1648:	ea000003 	b	165c <spike_source_generate+0xd8>
    164c:	e5953040 	ldr	r3, [r5, #64]	; 0x40
    1650:	e2866001 	add	r6, r6, #1
    1654:	e1530006 	cmp	r3, r6
    1658:	9a00002a 	bls	1708 <spike_source_generate+0x184>
    165c:	e5958044 	ldr	r8, [r5, #68]	; 0x44
    1660:	e1a04206 	lsl	r4, r6, #4
    1664:	e0883004 	add	r3, r8, r4
    1668:	e5932004 	ldr	r2, [r3, #4]
    166c:	e1570002 	cmp	r7, r2
    1670:	3afffff5 	bcc	164c <spike_source_generate+0xc8>
    1674:	e5932008 	ldr	r2, [r3, #8]
    1678:	e1570002 	cmp	r7, r2
    167c:	2afffff2 	bcs	164c <spike_source_generate+0xc8>
    1680:	e593200c 	ldr	r2, [r3, #12]
    1684:	e59f015c 	ldr	r0, [pc, #348]	; 17e8 <spike_source_generate+0x264>
    1688:	e59f115c 	ldr	r1, [pc, #348]	; 17ec <spike_source_generate+0x268>
    168c:	ebfffdce 	bl	dcc <poisson_dist_variate_exp_minus_lambda>
    1690:	e2509000 	subs	r9, r0, #0
    1694:	0affffec 	beq	164c <spike_source_generate+0xc8>
    1698:	e7981004 	ldr	r1, [r8, r4]
    169c:	e59b3000 	ldr	r3, [fp]
    16a0:	e1a022a1 	lsr	r2, r1, #5
    16a4:	e7930102 	ldr	r0, [r3, r2, lsl #2]
    16a8:	e201101f 	and	r1, r1, #31
    16ac:	e3a0c001 	mov	ip, #1
    16b0:	e180111c 	orr	r1, r0, ip, lsl r1
    16b4:	e7831102 	str	r1, [r3, r2, lsl #2]
    16b8:	e7983004 	ldr	r3, [r8, r4]
    16bc:	e59a4000 	ldr	r4, [sl]
    16c0:	e3a08000 	mov	r8, #0
    16c4:	e1844003 	orr	r4, r4, r3
    16c8:	ea000000 	b	16d0 <spike_source_generate+0x14c>
    16cc:	fa000597 	blx	2d30 <spin1_delay_us>
    16d0:	e3a01000 	mov	r1, #0
    16d4:	e1a02001 	mov	r2, r1
    16d8:	e1a00004 	mov	r0, r4
    16dc:	fa000595 	blx	2d38 <spin1_send_mc_packet>
    16e0:	e3500000 	cmp	r0, #0
    16e4:	e3a00001 	mov	r0, #1
    16e8:	0afffff7 	beq	16cc <spike_source_generate+0x148>
    16ec:	e0888000 	add	r8, r8, r0
    16f0:	e1580009 	cmp	r8, r9
    16f4:	1afffff5 	bne	16d0 <spike_source_generate+0x14c>
    16f8:	e5953040 	ldr	r3, [r5, #64]	; 0x40
    16fc:	e2866001 	add	r6, r6, #1
    1700:	e1530006 	cmp	r3, r6
    1704:	8affffd4 	bhi	165c <spike_source_generate+0xd8>
    1708:	e28dd00c 	add	sp, sp, #12
    170c:	e8bd8ff0 	pop	{r4, r5, r6, r7, r8, r9, sl, fp, pc}
    1710:	e5941000 	ldr	r1, [r4]
    1714:	e5993000 	ldr	r3, [r9]
    1718:	e1a022a1 	lsr	r2, r1, #5
    171c:	e7930102 	ldr	r0, [r3, r2, lsl #2]
    1720:	e3a0c001 	mov	ip, #1
    1724:	e201101f 	and	r1, r1, #31
    1728:	e180111c 	orr	r1, r0, ip, lsl r1
    172c:	e7831102 	str	r1, [r3, r2, lsl #2]
    1730:	e5943000 	ldr	r3, [r4]
    1734:	e5980000 	ldr	r0, [r8]
    1738:	e3a01000 	mov	r1, #0
    173c:	e1a02001 	mov	r2, r1
    1740:	e1800003 	orr	r0, r0, r3
    1744:	fa00057b 	blx	2d38 <spin1_send_mc_packet>
    1748:	e594c00c 	ldr	ip, [r4, #12]
    174c:	e59f0094 	ldr	r0, [pc, #148]	; 17e8 <spike_source_generate+0x264>
    1750:	e59f1094 	ldr	r1, [pc, #148]	; 17ec <spike_source_generate+0x268>
    1754:	e594b010 	ldr	fp, [r4, #16]
    1758:	e58dc004 	str	ip, [sp, #4]
    175c:	ebfffd1f 	bl	be0 <exponential_dist_variate>
    1760:	e59dc004 	ldr	ip, [sp, #4]
    1764:	e0c32c90 	smull	r2, r3, r0, ip
    1768:	e1a00002 	mov	r0, r2
    176c:	e1a03883 	lsl	r3, r3, #17
    1770:	e18337a0 	orr	r3, r3, r0, lsr #15
    1774:	e083300b 	add	r3, r3, fp
    1778:	eaffffa6 	b	1618 <spike_source_generate+0x94>
    177c:	e3a00005 	mov	r0, #5
    1780:	fa0004cc 	blx	2ab8 <spin1_callback_off>
    1784:	eaffff8b 	b	15b8 <spike_source_generate+0x34>
    1788:	e3a00001 	mov	r0, #1
    178c:	fa0002cc 	blx	22c4 <rtr_alloc>
    1790:	e2506000 	subs	r6, r0, #0
    1794:	0a00000d 	beq	17d0 <spike_source_generate+0x24c>
    1798:	e595803c 	ldr	r8, [r5, #60]	; 0x3c
    179c:	fa0005a1 	blx	2e28 <spin1_get_core_id>
    17a0:	e3a03001 	mov	r3, #1
    17a4:	e1a01008 	mov	r1, r8
    17a8:	e3e02000 	mvn	r2, #0
    17ac:	e2800006 	add	r0, r0, #6
    17b0:	e1a03013 	lsl	r3, r3, r0
    17b4:	e1a00006 	mov	r0, r6
    17b8:	fa00022e 	blx	2078 <rtr_mc_set>
    17bc:	e3a00005 	mov	r0, #5
    17c0:	e59f1028 	ldr	r1, [pc, #40]	; 17f0 <spike_source_generate+0x26c>
    17c4:	e3a02003 	mov	r2, #3
    17c8:	fa0004a4 	blx	2a60 <spin1_callback_on>
    17cc:	eaffff75 	b	15a8 <spike_source_generate+0x24>
    17d0:	e3a00009 	mov	r0, #9
    17d4:	ebfffa54 	bl	12c <rt_error>
    17d8:	eaffffee 	b	1798 <spike_source_generate+0x214>
    17dc:	00400554 	.word	0x00400554
    17e0:	004008f4 	.word	0x004008f4
    17e4:	00400550 	.word	0x00400550
    17e8:	00000b30 	.word	0x00000b30
    17ec:	00400578 	.word	0x00400578
    17f0:	00000f84 	.word	0x00000f84

000017f4 <exp_series>:
    17f4:	e59f1020 	ldr	r1, [pc, #32]	; 181c <exp_series+0x28>
    17f8:	e0832190 	umull	r2, r3, r0, r1
    17fc:	e26314ff 	rsb	r1, r3, #-16777216	; 0xff000000
    1800:	e281173a 	add	r1, r1, #15204352	; 0xe80000
    1804:	e2811c9d 	add	r1, r1, #40192	; 0x9d00
    1808:	e2811060 	add	r1, r1, #96	; 0x60
    180c:	e0832091 	umull	r2, r3, r1, r0
    1810:	e2830d52 	add	r0, r3, #5248	; 0x1480
    1814:	e280002e 	add	r0, r0, #46	; 0x2e
    1818:	e12fff1e 	bx	lr
    181c:	7c130fe0 	.word	0x7c130fe0

00001820 <expk>:
    1820:	e59f30f8 	ldr	r3, [pc, #248]	; 1920 <expk+0x100>
    1824:	e92d01f0 	push	{r4, r5, r6, r7, r8}
    1828:	e1500003 	cmp	r0, r3
    182c:	c3e00102 	mvngt	r0, #-2147483648	; 0x80000000
    1830:	ca000031 	bgt	18fc <expk+0xdc>
    1834:	e59f30e8 	ldr	r3, [pc, #232]	; 1924 <expk+0x104>
    1838:	e1500003 	cmp	r0, r3
    183c:	b3a00000 	movlt	r0, #0
    1840:	ba00002d 	blt	18fc <expk+0xdc>
    1844:	e1a037c0 	asr	r3, r0, #15
    1848:	e0400783 	sub	r0, r0, r3, lsl #15
    184c:	e3500000 	cmp	r0, #0
    1850:	da00002e 	ble	1910 <expk+0xf0>
    1854:	e59f20cc 	ldr	r2, [pc, #204]	; 1928 <expk+0x108>
    1858:	e2600902 	rsb	r0, r0, #32768	; 0x8000
    185c:	e1a015c0 	asr	r1, r0, #11
    1860:	e0821101 	add	r1, r2, r1, lsl #2
    1864:	e0823183 	add	r3, r2, r3, lsl #3
    1868:	e591c0d0 	ldr	ip, [r1, #208]	; 0xd0
    186c:	e1c327d0 	ldrd	r2, [r3, #112]	; 0x70
    1870:	e3a05000 	mov	r5, #0
    1874:	e087629c 	umull	r6, r7, ip, r2
    1878:	e376010a 	cmn	r6, #-2147483646	; 0x80000002
    187c:	e1a04007 	mov	r4, r7
    1880:	9a000001 	bls	188c <expk+0x6c>
    1884:	e2974001 	adds	r4, r7, #1
    1888:	e2a55000 	adc	r5, r5, #0
    188c:	e1a00a80 	lsl	r0, r0, #21
    1890:	e59f6094 	ldr	r6, [pc, #148]	; 192c <expk+0x10c>
    1894:	e1a08220 	lsr	r8, r0, #4
    1898:	e0810698 	umull	r0, r1, r8, r6
    189c:	e087639c 	umull	r6, r7, ip, r3
    18a0:	e261c4ff 	rsb	ip, r1, #-16777216	; 0xff000000
    18a4:	e28cc73a 	add	ip, ip, #15204352	; 0xe80000
    18a8:	e28ccc9d 	add	ip, ip, #40192	; 0x9d00
    18ac:	e28cc060 	add	ip, ip, #96	; 0x60
    18b0:	e081089c 	umull	r0, r1, ip, r8
    18b4:	e0522006 	subs	r2, r2, r6
    18b8:	e0c33007 	sbc	r3, r3, r7
    18bc:	e281cd52 	add	ip, r1, #5248	; 0x1480
    18c0:	e0522004 	subs	r2, r2, r4
    18c4:	e0c33005 	sbc	r3, r3, r5
    18c8:	e28cc02e 	add	ip, ip, #46	; 0x2e
    18cc:	e0854c92 	umull	r4, r5, r2, ip
    18d0:	e3a01000 	mov	r1, #0
    18d4:	e374010a 	cmn	r4, #-2147483646	; 0x80000002
    18d8:	e1a00005 	mov	r0, r5
    18dc:	8a000008 	bhi	1904 <expk+0xe4>
    18e0:	e0854c93 	umull	r4, r5, r3, ip
    18e4:	e0522004 	subs	r2, r2, r4
    18e8:	e0c33005 	sbc	r3, r3, r5
    18ec:	e0522000 	subs	r2, r2, r0
    18f0:	e0c33001 	sbc	r3, r3, r1
    18f4:	e1a008a2 	lsr	r0, r2, #17
    18f8:	e1800783 	orr	r0, r0, r3, lsl #15
    18fc:	e8bd01f0 	pop	{r4, r5, r6, r7, r8}
    1900:	e12fff1e 	bx	lr
    1904:	e2950001 	adds	r0, r5, #1
    1908:	e2a11000 	adc	r1, r1, #0
    190c:	eafffff3 	b	18e0 <expk+0xc0>
    1910:	e59f2010 	ldr	r2, [pc, #16]	; 1928 <expk+0x108>
    1914:	e0823183 	add	r3, r2, r3, lsl #3
    1918:	e1c326d8 	ldrd	r2, [r3, #104]	; 0x68
    191c:	eafffff4 	b	18f4 <expk+0xd4>
    1920:	00058b90 	.word	0x00058b90
    1924:	fffacd29 	.word	0xfffacd29
    1928:	00006000 	.word	0x00006000
    192c:	7c130fe0 	.word	0x7c130fe0

00001930 <rte_handler>:
    1930:	4b01      	ldr	r3, [pc, #4]	; (1938 <rte_handler+0x8>)
    1932:	2208      	movs	r2, #8
    1934:	701a      	strb	r2, [r3, #0]
    1936:	4770      	bx	lr
    1938:	e5007f2b 	.word	0xe5007f2b

0000193c <sark_app_id>:
    193c:	235c      	movs	r3, #92	; 0x5c
    193e:	7818      	ldrb	r0, [r3, #0]
    1940:	4770      	bx	lr
	...

00001944 <sark_cpu_state>:
    1944:	4b02      	ldr	r3, [pc, #8]	; (1950 <sark_cpu_state+0xc>)
    1946:	69db      	ldr	r3, [r3, #28]
    1948:	332e      	adds	r3, #46	; 0x2e
    194a:	7018      	strb	r0, [r3, #0]
    194c:	4770      	bx	lr
    194e:	46c0      	nop			; (mov r8, r8)
    1950:	004008f8 	.word	0x004008f8

00001954 <sark_app_lead>:
    1954:	235c      	movs	r3, #92	; 0x5c
    1956:	4a03      	ldr	r2, [pc, #12]	; (1964 <sark_app_lead+0x10>)
    1958:	781b      	ldrb	r3, [r3, #0]
    195a:	6812      	ldr	r2, [r2, #0]
    195c:	00db      	lsls	r3, r3, #3
    195e:	18d3      	adds	r3, r2, r3
    1960:	78d8      	ldrb	r0, [r3, #3]
    1962:	4770      	bx	lr
    1964:	e5007fe4 	.word	0xe5007fe4

00001968 <sark_block_init>:
    1968:	b530      	push	{r4, r5, lr}
    196a:	1c0b      	adds	r3, r1, #0
    196c:	1c04      	adds	r4, r0, #0
    196e:	e002      	b.n	1976 <sark_block_init+0xe>
    1970:	18a5      	adds	r5, r4, r2
    1972:	6025      	str	r5, [r4, #0]
    1974:	1c2c      	adds	r4, r5, #0
    1976:	3b01      	subs	r3, #1
    1978:	2b00      	cmp	r3, #0
    197a:	d1f9      	bne.n	1970 <sark_block_init+0x8>
    197c:	3901      	subs	r1, #1
    197e:	434a      	muls	r2, r1
    1980:	1880      	adds	r0, r0, r2
    1982:	6003      	str	r3, [r0, #0]
    1984:	bd30      	pop	{r4, r5, pc}
	...

00001988 <sark_msg_get>:
    1988:	b510      	push	{r4, lr}
    198a:	f7fe ec1e 	blx	1c8 <cpu_int_disable>
    198e:	4b09      	ldr	r3, [pc, #36]	; (19b4 <sark_msg_get+0x2c>)
    1990:	6a1c      	ldr	r4, [r3, #32]
    1992:	2c00      	cmp	r4, #0
    1994:	d00a      	beq.n	19ac <sark_msg_get+0x24>
    1996:	6822      	ldr	r2, [r4, #0]
    1998:	621a      	str	r2, [r3, #32]
    199a:	8c9a      	ldrh	r2, [r3, #36]	; 0x24
    199c:	8cd9      	ldrh	r1, [r3, #38]	; 0x26
    199e:	3201      	adds	r2, #1
    19a0:	0412      	lsls	r2, r2, #16
    19a2:	0c12      	lsrs	r2, r2, #16
    19a4:	849a      	strh	r2, [r3, #36]	; 0x24
    19a6:	4291      	cmp	r1, r2
    19a8:	d200      	bcs.n	19ac <sark_msg_get+0x24>
    19aa:	84da      	strh	r2, [r3, #38]	; 0x26
    19ac:	f7fe ec14 	blx	1d8 <cpu_int_restore>
    19b0:	1c20      	adds	r0, r4, #0
    19b2:	bd10      	pop	{r4, pc}
    19b4:	004008f8 	.word	0x004008f8

000019b8 <sark_msg_free>:
    19b8:	b510      	push	{r4, lr}
    19ba:	1c04      	adds	r4, r0, #0
    19bc:	f7fe ec04 	blx	1c8 <cpu_int_disable>
    19c0:	4b04      	ldr	r3, [pc, #16]	; (19d4 <sark_msg_free+0x1c>)
    19c2:	6a1a      	ldr	r2, [r3, #32]
    19c4:	6022      	str	r2, [r4, #0]
    19c6:	8c9a      	ldrh	r2, [r3, #36]	; 0x24
    19c8:	621c      	str	r4, [r3, #32]
    19ca:	3a01      	subs	r2, #1
    19cc:	849a      	strh	r2, [r3, #36]	; 0x24
    19ce:	f7fe ec04 	blx	1d8 <cpu_int_restore>
    19d2:	bd10      	pop	{r4, pc}
    19d4:	004008f8 	.word	0x004008f8

000019d8 <sark_shmsg_get>:
    19d8:	b510      	push	{r4, lr}
    19da:	2000      	movs	r0, #0
    19dc:	f7fe ec04 	blx	1e8 <sark_lock_get>
    19e0:	4b09      	ldr	r3, [pc, #36]	; (1a08 <sark_shmsg_get+0x30>)
    19e2:	681c      	ldr	r4, [r3, #0]
    19e4:	2c00      	cmp	r4, #0
    19e6:	d00a      	beq.n	19fe <sark_shmsg_get+0x26>
    19e8:	6822      	ldr	r2, [r4, #0]
    19ea:	601a      	str	r2, [r3, #0]
    19ec:	889a      	ldrh	r2, [r3, #4]
    19ee:	88d9      	ldrh	r1, [r3, #6]
    19f0:	3201      	adds	r2, #1
    19f2:	0412      	lsls	r2, r2, #16
    19f4:	0c12      	lsrs	r2, r2, #16
    19f6:	809a      	strh	r2, [r3, #4]
    19f8:	4291      	cmp	r1, r2
    19fa:	d200      	bcs.n	19fe <sark_shmsg_get+0x26>
    19fc:	80da      	strh	r2, [r3, #6]
    19fe:	2100      	movs	r1, #0
    1a00:	f7fe ec04 	blx	20c <sark_lock_free>
    1a04:	1c20      	adds	r0, r4, #0
    1a06:	bd10      	pop	{r4, pc}
    1a08:	e5007f68 	.word	0xe5007f68

00001a0c <sark_shmsg_free>:
    1a0c:	b510      	push	{r4, lr}
    1a0e:	1c04      	adds	r4, r0, #0
    1a10:	2000      	movs	r0, #0
    1a12:	f7fe ebea 	blx	1e8 <sark_lock_get>
    1a16:	4b05      	ldr	r3, [pc, #20]	; (1a2c <sark_shmsg_free+0x20>)
    1a18:	2100      	movs	r1, #0
    1a1a:	681a      	ldr	r2, [r3, #0]
    1a1c:	6022      	str	r2, [r4, #0]
    1a1e:	889a      	ldrh	r2, [r3, #4]
    1a20:	601c      	str	r4, [r3, #0]
    1a22:	3a01      	subs	r2, #1
    1a24:	809a      	strh	r2, [r3, #4]
    1a26:	f7fe ebf2 	blx	20c <sark_lock_free>
    1a2a:	bd10      	pop	{r4, pc}
    1a2c:	e5007f68 	.word	0xe5007f68

00001a30 <sark_init>:
    1a30:	b570      	push	{r4, r5, r6, lr}
    1a32:	2520      	movs	r5, #32
    1a34:	1c04      	adds	r4, r0, #0
    1a36:	8c28      	ldrh	r0, [r5, #32]
    1a38:	8c6a      	ldrh	r2, [r5, #34]	; 0x22
    1a3a:	0080      	lsls	r0, r0, #2
    1a3c:	1a20      	subs	r0, r4, r0
    1a3e:	21d2      	movs	r1, #210	; 0xd2
    1a40:	f7fe eba6 	blx	190 <cpu_init_mode>
    1a44:	8caa      	ldrh	r2, [r5, #36]	; 0x24
    1a46:	21d1      	movs	r1, #209	; 0xd1
    1a48:	f7fe eba2 	blx	190 <cpu_init_mode>
    1a4c:	2200      	movs	r2, #0
    1a4e:	21df      	movs	r1, #223	; 0xdf
    1a50:	f7fe eb9e 	blx	190 <cpu_init_mode>
    1a54:	8ce9      	ldrh	r1, [r5, #38]	; 0x26
    1a56:	2658      	movs	r6, #88	; 0x58
    1a58:	0889      	lsrs	r1, r1, #2
    1a5a:	0089      	lsls	r1, r1, #2
    1a5c:	1a61      	subs	r1, r4, r1
    1a5e:	4c2a      	ldr	r4, [pc, #168]	; (1b08 <sark_init+0xd8>)
    1a60:	6121      	str	r1, [r4, #16]
    1a62:	6ae8      	ldr	r0, [r5, #44]	; 0x2c
    1a64:	6160      	str	r0, [r4, #20]
    1a66:	f000 fbe5 	bl	2234 <sark_heap_init>
    1a6a:	4b28      	ldr	r3, [pc, #160]	; (1b0c <sark_init+0xdc>)
    1a6c:	4a28      	ldr	r2, [pc, #160]	; (1b10 <sark_init+0xe0>)
    1a6e:	681b      	ldr	r3, [r3, #0]
    1a70:	4d28      	ldr	r5, [pc, #160]	; (1b14 <sark_init+0xe4>)
    1a72:	0e1b      	lsrs	r3, r3, #24
    1a74:	6063      	str	r3, [r4, #4]
    1a76:	189b      	adds	r3, r3, r2
    1a78:	2192      	movs	r1, #146	; 0x92
    1a7a:	0049      	lsls	r1, r1, #1
    1a7c:	61a0      	str	r0, [r4, #24]
    1a7e:	791b      	ldrb	r3, [r3, #4]
    1a80:	6023      	str	r3, [r4, #0]
    1a82:	8cab      	ldrh	r3, [r5, #36]	; 0x24
    1a84:	8623      	strh	r3, [r4, #48]	; 0x30
    1a86:	4b24      	ldr	r3, [pc, #144]	; (1b18 <sark_init+0xe8>)
    1a88:	60a3      	str	r3, [r4, #8]
    1a8a:	7830      	ldrb	r0, [r6, #0]
    1a8c:	f000 fbc6 	bl	221c <sark_alloc>
    1a90:	2292      	movs	r2, #146	; 0x92
    1a92:	0052      	lsls	r2, r2, #1
    1a94:	6220      	str	r0, [r4, #32]
    1a96:	7831      	ldrb	r1, [r6, #0]
    1a98:	f7ff ff66 	bl	1968 <sark_block_init>
    1a9c:	6823      	ldr	r3, [r4, #0]
    1a9e:	2b11      	cmp	r3, #17
    1aa0:	d81d      	bhi.n	1ade <sark_init+0xae>
    1aa2:	4a1e      	ldr	r2, [pc, #120]	; (1b1c <sark_init+0xec>)
    1aa4:	01d8      	lsls	r0, r3, #7
    1aa6:	1880      	adds	r0, r0, r2
    1aa8:	6daa      	ldr	r2, [r5, #88]	; 0x58
    1aaa:	61e0      	str	r0, [r4, #28]
    1aac:	4353      	muls	r3, r2
    1aae:	6d6a      	ldr	r2, [r5, #84]	; 0x54
    1ab0:	009b      	lsls	r3, r3, #2
    1ab2:	18d3      	adds	r3, r2, r3
    1ab4:	2100      	movs	r1, #0
    1ab6:	2270      	movs	r2, #112	; 0x70
    1ab8:	6363      	str	r3, [r4, #52]	; 0x34
    1aba:	f7fe ebbc 	blx	234 <sark_word_set>
    1abe:	69e0      	ldr	r0, [r4, #28]
    1ac0:	2205      	movs	r2, #5
    1ac2:	1c03      	adds	r3, r0, #0
    1ac4:	332e      	adds	r3, #46	; 0x2e
    1ac6:	701a      	strb	r2, [r3, #0]
    1ac8:	235c      	movs	r3, #92	; 0x5c
    1aca:	781a      	ldrb	r2, [r3, #0]
    1acc:	1c03      	adds	r3, r0, #0
    1ace:	332f      	adds	r3, #47	; 0x2f
    1ad0:	701a      	strb	r2, [r3, #0]
    1ad2:	69ed      	ldr	r5, [r5, #28]
    1ad4:	6445      	str	r5, [r0, #68]	; 0x44
    1ad6:	4912      	ldr	r1, [pc, #72]	; (1b20 <sark_init+0xf0>)
    1ad8:	3048      	adds	r0, #72	; 0x48
    1ada:	f7fe eba2 	blx	220 <sark_str_cpy>
    1ade:	f000 fa3b 	bl	1f58 <sark_vic_init>
    1ae2:	2359      	movs	r3, #89	; 0x59
    1ae4:	7818      	ldrb	r0, [r3, #0]
    1ae6:	2112      	movs	r1, #18
    1ae8:	2201      	movs	r2, #1
    1aea:	4b0e      	ldr	r3, [pc, #56]	; (1b24 <sark_init+0xf4>)
    1aec:	f000 fa5c 	bl	1fa8 <sark_vic_set>
    1af0:	2106      	movs	r1, #6
    1af2:	2201      	movs	r2, #1
    1af4:	2010      	movs	r0, #16
    1af6:	4b0c      	ldr	r3, [pc, #48]	; (1b28 <sark_init+0xf8>)
    1af8:	f000 fa56 	bl	1fa8 <sark_vic_set>
    1afc:	235a      	movs	r3, #90	; 0x5a
    1afe:	7818      	ldrb	r0, [r3, #0]
    1b00:	f000 fa0c 	bl	1f1c <event_alloc>
    1b04:	201f      	movs	r0, #31
    1b06:	bd70      	pop	{r4, r5, r6, pc}
    1b08:	004008f8 	.word	0x004008f8
    1b0c:	40000014 	.word	0x40000014
    1b10:	e5007f90 	.word	0xe5007f90
    1b14:	e5007f00 	.word	0xe5007f00
    1b18:	deaddead 	.word	0xdeaddead
    1b1c:	e5007000 	.word	0xe5007000
    1b20:	00006114 	.word	0x00006114
    1b24:	00000300 	.word	0x00000300
    1b28:	0000212c 	.word	0x0000212c

00001b2c <sark_msg_send>:
    1b2c:	b5f8      	push	{r3, r4, r5, r6, r7, lr}
    1b2e:	1c05      	adds	r5, r0, #0
    1b30:	1c0f      	adds	r7, r1, #0
    1b32:	f7ff ff51 	bl	19d8 <sark_shmsg_get>
    1b36:	1c04      	adds	r4, r0, #0
    1b38:	3800      	subs	r0, #0
    1b3a:	d03d      	beq.n	1bb8 <sark_msg_send+0x8c>
    1b3c:	1c29      	adds	r1, r5, #0
    1b3e:	f7fe eb8c 	blx	258 <sark_msg_cpy>
    1b42:	4e1e      	ldr	r6, [pc, #120]	; (1bbc <sark_msg_send+0x90>)
    1b44:	2501      	movs	r5, #1
    1b46:	69f3      	ldr	r3, [r6, #28]
    1b48:	1c28      	adds	r0, r5, #0
    1b4a:	635c      	str	r4, [r3, #52]	; 0x34
    1b4c:	3339      	adds	r3, #57	; 0x39
    1b4e:	701d      	strb	r5, [r3, #0]
    1b50:	f7fe eb4a 	blx	1e8 <sark_lock_get>
    1b54:	6831      	ldr	r1, [r6, #0]
    1b56:	4a1a      	ldr	r2, [pc, #104]	; (1bc0 <sark_msg_send+0x94>)
    1b58:	1c2e      	adds	r6, r5, #0
    1b5a:	6813      	ldr	r3, [r2, #0]
    1b5c:	408e      	lsls	r6, r1
    1b5e:	1c31      	adds	r1, r6, #0
    1b60:	4319      	orrs	r1, r3
    1b62:	6011      	str	r1, [r2, #0]
    1b64:	2b00      	cmp	r3, #0
    1b66:	d106      	bne.n	1b76 <sark_msg_send+0x4a>
    1b68:	4b16      	ldr	r3, [pc, #88]	; (1bc4 <sark_msg_send+0x98>)
    1b6a:	4a17      	ldr	r2, [pc, #92]	; (1bc8 <sark_msg_send+0x9c>)
    1b6c:	781b      	ldrb	r3, [r3, #0]
    1b6e:	409d      	lsls	r5, r3
    1b70:	4b16      	ldr	r3, [pc, #88]	; (1bcc <sark_msg_send+0xa0>)
    1b72:	18ad      	adds	r5, r5, r2
    1b74:	601d      	str	r5, [r3, #0]
    1b76:	2101      	movs	r1, #1
    1b78:	f7fe eb48 	blx	20c <sark_lock_free>
    1b7c:	4b0f      	ldr	r3, [pc, #60]	; (1bbc <sark_msg_send+0x90>)
    1b7e:	4a14      	ldr	r2, [pc, #80]	; (1bd0 <sark_msg_send+0xa4>)
    1b80:	69db      	ldr	r3, [r3, #28]
    1b82:	6815      	ldr	r5, [r2, #0]
    1b84:	1c18      	adds	r0, r3, #0
    1b86:	3039      	adds	r0, #57	; 0x39
    1b88:	e008      	b.n	1b9c <sark_msg_send+0x70>
    1b8a:	6811      	ldr	r1, [r2, #0]
    1b8c:	1b49      	subs	r1, r1, r5
    1b8e:	42b9      	cmp	r1, r7
    1b90:	d904      	bls.n	1b9c <sark_msg_send+0x70>
    1b92:	3339      	adds	r3, #57	; 0x39
    1b94:	781b      	ldrb	r3, [r3, #0]
    1b96:	2b00      	cmp	r3, #0
    1b98:	d009      	beq.n	1bae <sark_msg_send+0x82>
    1b9a:	e003      	b.n	1ba4 <sark_msg_send+0x78>
    1b9c:	7801      	ldrb	r1, [r0, #0]
    1b9e:	2900      	cmp	r1, #0
    1ba0:	d1f3      	bne.n	1b8a <sark_msg_send+0x5e>
    1ba2:	e7f6      	b.n	1b92 <sark_msg_send+0x66>
    1ba4:	1c20      	adds	r0, r4, #0
    1ba6:	f7ff ff31 	bl	1a0c <sark_shmsg_free>
    1baa:	2000      	movs	r0, #0
    1bac:	e004      	b.n	1bb8 <sark_msg_send+0x8c>
    1bae:	4b03      	ldr	r3, [pc, #12]	; (1bbc <sark_msg_send+0x90>)
    1bb0:	2001      	movs	r0, #1
    1bb2:	6ada      	ldr	r2, [r3, #44]	; 0x2c
    1bb4:	3201      	adds	r2, #1
    1bb6:	62da      	str	r2, [r3, #44]	; 0x2c
    1bb8:	bdf8      	pop	{r3, r4, r5, r6, r7, pc}
    1bba:	46c0      	nop			; (mov r8, r8)
    1bbc:	004008f8 	.word	0x004008f8
    1bc0:	e5007fec 	.word	0xe5007fec
    1bc4:	e5007fa8 	.word	0xe5007fa8
    1bc8:	5ec00000 	.word	0x5ec00000
    1bcc:	e2000008 	.word	0xe2000008
    1bd0:	e5007f10 	.word	0xe5007f10

00001bd4 <sark_cmd_ver>:
    1bd4:	b508      	push	{r3, lr}
    1bd6:	4b0a      	ldr	r3, [pc, #40]	; (1c00 <sark_cmd_ver+0x2c>)
    1bd8:	6859      	ldr	r1, [r3, #4]
    1bda:	681b      	ldr	r3, [r3, #0]
    1bdc:	020a      	lsls	r2, r1, #8
    1bde:	18d3      	adds	r3, r2, r3
    1be0:	4a08      	ldr	r2, [pc, #32]	; (1c04 <sark_cmd_ver+0x30>)
    1be2:	4909      	ldr	r1, [pc, #36]	; (1c08 <sark_cmd_ver+0x34>)
    1be4:	8812      	ldrh	r2, [r2, #0]
    1be6:	0412      	lsls	r2, r2, #16
    1be8:	189b      	adds	r3, r3, r2
    1bea:	6143      	str	r3, [r0, #20]
    1bec:	4b07      	ldr	r3, [pc, #28]	; (1c0c <sark_cmd_ver+0x38>)
    1bee:	6183      	str	r3, [r0, #24]
    1bf0:	4b07      	ldr	r3, [pc, #28]	; (1c10 <sark_cmd_ver+0x3c>)
    1bf2:	681b      	ldr	r3, [r3, #0]
    1bf4:	61c3      	str	r3, [r0, #28]
    1bf6:	3020      	adds	r0, #32
    1bf8:	f7fe eb12 	blx	220 <sark_str_cpy>
    1bfc:	201b      	movs	r0, #27
    1bfe:	bd08      	pop	{r3, pc}
    1c00:	004008f8 	.word	0x004008f8
    1c04:	e5007f00 	.word	0xe5007f00
    1c08:	00006124 	.word	0x00006124
    1c0c:	00820100 	.word	0x00820100
    1c10:	00006110 	.word	0x00006110

00001c14 <sark_cmd_read>:
    1c14:	69c1      	ldr	r1, [r0, #28]
    1c16:	b530      	push	{r4, r5, lr}
    1c18:	6983      	ldr	r3, [r0, #24]
    1c1a:	2902      	cmp	r1, #2
    1c1c:	d803      	bhi.n	1c26 <sark_cmd_read+0x12>
    1c1e:	2280      	movs	r2, #128	; 0x80
    1c20:	0052      	lsls	r2, r2, #1
    1c22:	429a      	cmp	r2, r3
    1c24:	d203      	bcs.n	1c2e <sark_cmd_read+0x1a>
    1c26:	2384      	movs	r3, #132	; 0x84
    1c28:	8203      	strh	r3, [r0, #16]
    1c2a:	2300      	movs	r3, #0
    1c2c:	e023      	b.n	1c76 <sark_cmd_read+0x62>
    1c2e:	6942      	ldr	r2, [r0, #20]
    1c30:	3014      	adds	r0, #20
    1c32:	2900      	cmp	r1, #0
    1c34:	d108      	bne.n	1c48 <sark_cmd_read+0x34>
    1c36:	18d1      	adds	r1, r2, r3
    1c38:	1a80      	subs	r0, r0, r2
    1c3a:	e002      	b.n	1c42 <sark_cmd_read+0x2e>
    1c3c:	7814      	ldrb	r4, [r2, #0]
    1c3e:	5484      	strb	r4, [r0, r2]
    1c40:	3201      	adds	r2, #1
    1c42:	428a      	cmp	r2, r1
    1c44:	d1fa      	bne.n	1c3c <sark_cmd_read+0x28>
    1c46:	e016      	b.n	1c76 <sark_cmd_read+0x62>
    1c48:	2901      	cmp	r1, #1
    1c4a:	d10a      	bne.n	1c62 <sark_cmd_read+0x4e>
    1c4c:	0859      	lsrs	r1, r3, #1
    1c4e:	0049      	lsls	r1, r1, #1
    1c50:	1889      	adds	r1, r1, r2
    1c52:	1a80      	subs	r0, r0, r2
    1c54:	e002      	b.n	1c5c <sark_cmd_read+0x48>
    1c56:	8814      	ldrh	r4, [r2, #0]
    1c58:	5284      	strh	r4, [r0, r2]
    1c5a:	3202      	adds	r2, #2
    1c5c:	428a      	cmp	r2, r1
    1c5e:	d1fa      	bne.n	1c56 <sark_cmd_read+0x42>
    1c60:	e009      	b.n	1c76 <sark_cmd_read+0x62>
    1c62:	089c      	lsrs	r4, r3, #2
    1c64:	00a4      	lsls	r4, r4, #2
    1c66:	1904      	adds	r4, r0, r4
    1c68:	1c01      	adds	r1, r0, #0
    1c6a:	e002      	b.n	1c72 <sark_cmd_read+0x5e>
    1c6c:	1a0d      	subs	r5, r1, r0
    1c6e:	58ad      	ldr	r5, [r5, r2]
    1c70:	c120      	stmia	r1!, {r5}
    1c72:	42a1      	cmp	r1, r4
    1c74:	d1fa      	bne.n	1c6c <sark_cmd_read+0x58>
    1c76:	1c18      	adds	r0, r3, #0
    1c78:	bd30      	pop	{r4, r5, pc}

00001c7a <sark_cmd_write>:
    1c7a:	69c1      	ldr	r1, [r0, #28]
    1c7c:	b530      	push	{r4, r5, lr}
    1c7e:	6982      	ldr	r2, [r0, #24]
    1c80:	2902      	cmp	r1, #2
    1c82:	d803      	bhi.n	1c8c <sark_cmd_write+0x12>
    1c84:	2380      	movs	r3, #128	; 0x80
    1c86:	005b      	lsls	r3, r3, #1
    1c88:	4293      	cmp	r3, r2
    1c8a:	d202      	bcs.n	1c92 <sark_cmd_write+0x18>
    1c8c:	2384      	movs	r3, #132	; 0x84
    1c8e:	8203      	strh	r3, [r0, #16]
    1c90:	e026      	b.n	1ce0 <sark_cmd_write+0x66>
    1c92:	6943      	ldr	r3, [r0, #20]
    1c94:	2900      	cmp	r1, #0
    1c96:	d10b      	bne.n	1cb0 <sark_cmd_write+0x36>
    1c98:	1881      	adds	r1, r0, r2
    1c9a:	1c02      	adds	r2, r0, #0
    1c9c:	e005      	b.n	1caa <sark_cmd_write+0x30>
    1c9e:	1c14      	adds	r4, r2, #0
    1ca0:	3420      	adds	r4, #32
    1ca2:	7825      	ldrb	r5, [r4, #0]
    1ca4:	1a14      	subs	r4, r2, r0
    1ca6:	3201      	adds	r2, #1
    1ca8:	54e5      	strb	r5, [r4, r3]
    1caa:	428a      	cmp	r2, r1
    1cac:	d1f7      	bne.n	1c9e <sark_cmd_write+0x24>
    1cae:	e017      	b.n	1ce0 <sark_cmd_write+0x66>
    1cb0:	3020      	adds	r0, #32
    1cb2:	2901      	cmp	r1, #1
    1cb4:	d10b      	bne.n	1cce <sark_cmd_write+0x54>
    1cb6:	0851      	lsrs	r1, r2, #1
    1cb8:	0049      	lsls	r1, r1, #1
    1cba:	1841      	adds	r1, r0, r1
    1cbc:	1c02      	adds	r2, r0, #0
    1cbe:	e003      	b.n	1cc8 <sark_cmd_write+0x4e>
    1cc0:	8815      	ldrh	r5, [r2, #0]
    1cc2:	1a14      	subs	r4, r2, r0
    1cc4:	3202      	adds	r2, #2
    1cc6:	52e5      	strh	r5, [r4, r3]
    1cc8:	428a      	cmp	r2, r1
    1cca:	d1f9      	bne.n	1cc0 <sark_cmd_write+0x46>
    1ccc:	e008      	b.n	1ce0 <sark_cmd_write+0x66>
    1cce:	0892      	lsrs	r2, r2, #2
    1cd0:	0092      	lsls	r2, r2, #2
    1cd2:	18d2      	adds	r2, r2, r3
    1cd4:	1ac0      	subs	r0, r0, r3
    1cd6:	e001      	b.n	1cdc <sark_cmd_write+0x62>
    1cd8:	58c1      	ldr	r1, [r0, r3]
    1cda:	c302      	stmia	r3!, {r1}
    1cdc:	4293      	cmp	r3, r2
    1cde:	d1fb      	bne.n	1cd8 <sark_cmd_write+0x5e>
    1ce0:	2000      	movs	r0, #0
    1ce2:	bd30      	pop	{r4, r5, pc}

00001ce4 <sark_cmd_fill>:
    1ce4:	b508      	push	{r3, lr}
    1ce6:	1c03      	adds	r3, r0, #0
    1ce8:	3314      	adds	r3, #20
    1cea:	cb07      	ldmia	r3!, {r0, r1, r2}
    1cec:	f7fe eaa2 	blx	234 <sark_word_set>
    1cf0:	2000      	movs	r0, #0
    1cf2:	bd08      	pop	{r3, pc}

00001cf4 <sark_wait>:
    1cf4:	b508      	push	{r3, lr}
    1cf6:	e001      	b.n	1cfc <sark_wait+0x8>
    1cf8:	f7fe ea72 	blx	1e0 <cpu_wfi>
    1cfc:	235d      	movs	r3, #93	; 0x5d
    1cfe:	781b      	ldrb	r3, [r3, #0]
    1d00:	07da      	lsls	r2, r3, #31
    1d02:	d4f9      	bmi.n	1cf8 <sark_wait+0x4>
    1d04:	bd08      	pop	{r3, pc}
	...

00001d08 <sark_int>:
    1d08:	4b55      	ldr	r3, [pc, #340]	; (1e60 <sark_int+0x158>)
    1d0a:	2101      	movs	r1, #1
    1d0c:	685a      	ldr	r2, [r3, #4]
    1d0e:	b570      	push	{r4, r5, r6, lr}
    1d10:	4091      	lsls	r1, r2
    1d12:	4a54      	ldr	r2, [pc, #336]	; (1e64 <sark_int+0x15c>)
    1d14:	1889      	adds	r1, r1, r2
    1d16:	4a54      	ldr	r2, [pc, #336]	; (1e68 <sark_int+0x160>)
    1d18:	6011      	str	r1, [r2, #0]
    1d1a:	69da      	ldr	r2, [r3, #28]
    1d1c:	1c11      	adds	r1, r2, #0
    1d1e:	3138      	adds	r1, #56	; 0x38
    1d20:	780b      	ldrb	r3, [r1, #0]
    1d22:	2b00      	cmp	r3, #0
    1d24:	d100      	bne.n	1d28 <sark_int+0x20>
    1d26:	e099      	b.n	1e5c <sark_int+0x154>
    1d28:	6b15      	ldr	r5, [r2, #48]	; 0x30
    1d2a:	2b02      	cmp	r3, #2
    1d2c:	d100      	bne.n	1d30 <sark_int+0x28>
    1d2e:	6310      	str	r0, [r2, #48]	; 0x30
    1d30:	2200      	movs	r2, #0
    1d32:	700a      	strb	r2, [r1, #0]
    1d34:	2b03      	cmp	r3, #3
    1d36:	d124      	bne.n	1d82 <sark_int+0x7a>
    1d38:	1ee8      	subs	r0, r5, #3
    1d3a:	280a      	cmp	r0, #10
    1d3c:	d900      	bls.n	1d40 <sark_int+0x38>
    1d3e:	e08d      	b.n	1e5c <sark_int+0x154>
    1d40:	f7fe fb10 	bl	364 <__gnu_thumb1_case_uqi>
    1d44:	068c8c10 	.word	0x068c8c10
    1d48:	161b0c08 	.word	0x161b0c08
    1d4c:	1616      	.short	0x1616
    1d4e:	16          	.byte	0x16
    1d4f:	00          	.byte	0x00
    1d50:	2001      	movs	r0, #1
    1d52:	e000      	b.n	1d56 <sark_int+0x4e>
    1d54:	2000      	movs	r0, #0
    1d56:	f000 f8bf 	bl	1ed8 <event_pause>
    1d5a:	e07f      	b.n	1e5c <sark_int+0x154>
    1d5c:	20ff      	movs	r0, #255	; 0xff
    1d5e:	f000 f8d1 	bl	1f04 <event_stop>
    1d62:	e07b      	b.n	1e5c <sark_int+0x154>
    1d64:	235d      	movs	r3, #93	; 0x5d
    1d66:	781a      	ldrb	r2, [r3, #0]
    1d68:	2101      	movs	r1, #1
    1d6a:	438a      	bics	r2, r1
    1d6c:	701a      	strb	r2, [r3, #0]
    1d6e:	e075      	b.n	1e5c <sark_int+0x154>
    1d70:	4b3e      	ldr	r3, [pc, #248]	; (1e6c <sark_int+0x164>)
    1d72:	2280      	movs	r2, #128	; 0x80
    1d74:	62dd      	str	r5, [r3, #44]	; 0x2c
    1d76:	0592      	lsls	r2, r2, #22
    1d78:	e000      	b.n	1d7c <sark_int+0x74>
    1d7a:	2210      	movs	r2, #16
    1d7c:	4b3c      	ldr	r3, [pc, #240]	; (1e70 <sark_int+0x168>)
    1d7e:	601a      	str	r2, [r3, #0]
    1d80:	e06c      	b.n	1e5c <sark_int+0x154>
    1d82:	2b01      	cmp	r3, #1
    1d84:	d16a      	bne.n	1e5c <sark_int+0x154>
    1d86:	f7ff fdff 	bl	1988 <sark_msg_get>
    1d8a:	1e04      	subs	r4, r0, #0
    1d8c:	d063      	beq.n	1e56 <sark_int+0x14e>
    1d8e:	1c29      	adds	r1, r5, #0
    1d90:	1c20      	adds	r0, r4, #0
    1d92:	f7fe ea62 	blx	258 <sark_msg_cpy>
    1d96:	1c28      	adds	r0, r5, #0
    1d98:	f7ff fe38 	bl	1a0c <sark_shmsg_free>
    1d9c:	4b30      	ldr	r3, [pc, #192]	; (1e60 <sark_int+0x158>)
    1d9e:	6a9a      	ldr	r2, [r3, #40]	; 0x28
    1da0:	3201      	adds	r2, #1
    1da2:	629a      	str	r2, [r3, #40]	; 0x28
    1da4:	7aa5      	ldrb	r5, [r4, #10]
    1da6:	231f      	movs	r3, #31
    1da8:	1c28      	adds	r0, r5, #0
    1daa:	4398      	bics	r0, r3
    1dac:	d130      	bne.n	1e10 <sark_int+0x108>
    1dae:	88a3      	ldrh	r3, [r4, #4]
    1db0:	2b17      	cmp	r3, #23
    1db2:	d801      	bhi.n	1db8 <sark_int+0xb0>
    1db4:	2381      	movs	r3, #129	; 0x81
    1db6:	e01b      	b.n	1df0 <sark_int+0xe8>
    1db8:	8a23      	ldrh	r3, [r4, #16]
    1dba:	2280      	movs	r2, #128	; 0x80
    1dbc:	8222      	strh	r2, [r4, #16]
    1dbe:	2b00      	cmp	r3, #0
    1dc0:	d103      	bne.n	1dca <sark_int+0xc2>
    1dc2:	1c20      	adds	r0, r4, #0
    1dc4:	f7ff ff06 	bl	1bd4 <sark_cmd_ver>
    1dc8:	e013      	b.n	1df2 <sark_int+0xea>
    1dca:	2b02      	cmp	r3, #2
    1dcc:	d103      	bne.n	1dd6 <sark_int+0xce>
    1dce:	1c20      	adds	r0, r4, #0
    1dd0:	f7ff ff20 	bl	1c14 <sark_cmd_read>
    1dd4:	e00d      	b.n	1df2 <sark_int+0xea>
    1dd6:	2b03      	cmp	r3, #3
    1dd8:	d103      	bne.n	1de2 <sark_int+0xda>
    1dda:	1c20      	adds	r0, r4, #0
    1ddc:	f7ff ff4d 	bl	1c7a <sark_cmd_write>
    1de0:	e007      	b.n	1df2 <sark_int+0xea>
    1de2:	2b05      	cmp	r3, #5
    1de4:	d103      	bne.n	1dee <sark_int+0xe6>
    1de6:	1c20      	adds	r0, r4, #0
    1de8:	f7ff ff7c 	bl	1ce4 <sark_cmd_fill>
    1dec:	e001      	b.n	1df2 <sark_int+0xea>
    1dee:	2383      	movs	r3, #131	; 0x83
    1df0:	8223      	strh	r3, [r4, #16]
    1df2:	7aa2      	ldrb	r2, [r4, #10]
    1df4:	7ae1      	ldrb	r1, [r4, #11]
    1df6:	89a3      	ldrh	r3, [r4, #12]
    1df8:	300c      	adds	r0, #12
    1dfa:	72e2      	strb	r2, [r4, #11]
    1dfc:	89e2      	ldrh	r2, [r4, #14]
    1dfe:	80a0      	strh	r0, [r4, #4]
    1e00:	72a1      	strb	r1, [r4, #10]
    1e02:	81a2      	strh	r2, [r4, #12]
    1e04:	81e3      	strh	r3, [r4, #14]
    1e06:	1c20      	adds	r0, r4, #0
    1e08:	210a      	movs	r1, #10
    1e0a:	f7ff fe8f 	bl	1b2c <sark_msg_send>
    1e0e:	e01e      	b.n	1e4e <sark_int+0x146>
    1e10:	235b      	movs	r3, #91	; 0x5b
    1e12:	781b      	ldrb	r3, [r3, #0]
    1e14:	2b00      	cmp	r3, #0
    1e16:	d00f      	beq.n	1e38 <sark_int+0x130>
    1e18:	4b16      	ldr	r3, [pc, #88]	; (1e74 <sark_int+0x16c>)
    1e1a:	699b      	ldr	r3, [r3, #24]
    1e1c:	2b00      	cmp	r3, #0
    1e1e:	d016      	beq.n	1e4e <sark_int+0x146>
    1e20:	f7fe e9d2 	blx	1c8 <cpu_int_disable>
    1e24:	096a      	lsrs	r2, r5, #5
    1e26:	1c21      	adds	r1, r4, #0
    1e28:	1c06      	adds	r6, r0, #0
    1e2a:	2003      	movs	r0, #3
    1e2c:	f001 f808 	bl	2e40 <schedule_sysmode>
    1e30:	1c30      	adds	r0, r6, #0
    1e32:	f7fe e9d2 	blx	1d8 <cpu_int_restore>
    1e36:	e011      	b.n	1e5c <sark_int+0x154>
    1e38:	4b0f      	ldr	r3, [pc, #60]	; (1e78 <sark_int+0x170>)
    1e3a:	681a      	ldr	r2, [r3, #0]
    1e3c:	2380      	movs	r3, #128	; 0x80
    1e3e:	055b      	lsls	r3, r3, #21
    1e40:	421a      	tst	r2, r3
    1e42:	d004      	beq.n	1e4e <sark_int+0x146>
    1e44:	4a09      	ldr	r2, [pc, #36]	; (1e6c <sark_int+0x164>)
    1e46:	6294      	str	r4, [r2, #40]	; 0x28
    1e48:	4a09      	ldr	r2, [pc, #36]	; (1e70 <sark_int+0x168>)
    1e4a:	6013      	str	r3, [r2, #0]
    1e4c:	e006      	b.n	1e5c <sark_int+0x154>
    1e4e:	1c20      	adds	r0, r4, #0
    1e50:	f7ff fdb2 	bl	19b8 <sark_msg_free>
    1e54:	e002      	b.n	1e5c <sark_int+0x154>
    1e56:	1c28      	adds	r0, r5, #0
    1e58:	f7ff fdd8 	bl	1a0c <sark_shmsg_free>
    1e5c:	bd70      	pop	{r4, r5, r6, pc}
    1e5e:	46c0      	nop			; (mov r8, r8)
    1e60:	004008f8 	.word	0x004008f8
    1e64:	5ec00000 	.word	0x5ec00000
    1e68:	e200000c 	.word	0xe200000c
    1e6c:	00400934 	.word	0x00400934
    1e70:	2f000018 	.word	0x2f000018
    1e74:	00400b60 	.word	0x00400b60
    1e78:	2f000010 	.word	0x2f000010

00001e7c <event_wait>:
    1e7c:	4b13      	ldr	r3, [pc, #76]	; (1ecc <event_wait+0x50>)
    1e7e:	b570      	push	{r4, r5, r6, lr}
    1e80:	681b      	ldr	r3, [r3, #0]
    1e82:	4c13      	ldr	r4, [pc, #76]	; (1ed0 <event_wait+0x54>)
    1e84:	2501      	movs	r5, #1
    1e86:	409d      	lsls	r5, r3
    1e88:	7ea3      	ldrb	r3, [r4, #26]
    1e8a:	4e12      	ldr	r6, [pc, #72]	; (1ed4 <event_wait+0x58>)
    1e8c:	2b00      	cmp	r3, #0
    1e8e:	d012      	beq.n	1eb6 <event_wait+0x3a>
    1e90:	2009      	movs	r0, #9
    1e92:	f7ff fd57 	bl	1944 <sark_cpu_state>
    1e96:	e001      	b.n	1e9c <event_wait+0x20>
    1e98:	f7fe e9a2 	blx	1e0 <cpu_wfi>
    1e9c:	6833      	ldr	r3, [r6, #0]
    1e9e:	1c2a      	adds	r2, r5, #0
    1ea0:	439a      	bics	r2, r3
    1ea2:	1e13      	subs	r3, r2, #0
    1ea4:	d1f8      	bne.n	1e98 <event_wait+0x1c>
    1ea6:	7ea3      	ldrb	r3, [r4, #26]
    1ea8:	2201      	movs	r2, #1
    1eaa:	4053      	eors	r3, r2
    1eac:	2007      	movs	r0, #7
    1eae:	76a3      	strb	r3, [r4, #26]
    1eb0:	f7ff fd48 	bl	1944 <sark_cpu_state>
    1eb4:	e009      	b.n	1eca <event_wait+0x4e>
    1eb6:	2008      	movs	r0, #8
    1eb8:	f7ff fd44 	bl	1944 <sark_cpu_state>
    1ebc:	e001      	b.n	1ec2 <event_wait+0x46>
    1ebe:	f7fe e990 	blx	1e0 <cpu_wfi>
    1ec2:	6833      	ldr	r3, [r6, #0]
    1ec4:	422b      	tst	r3, r5
    1ec6:	d1fa      	bne.n	1ebe <event_wait+0x42>
    1ec8:	e7ed      	b.n	1ea6 <event_wait+0x2a>
    1eca:	bd70      	pop	{r4, r5, r6, pc}
    1ecc:	004008f8 	.word	0x004008f8
    1ed0:	00400934 	.word	0x00400934
    1ed4:	e2000058 	.word	0xe2000058

00001ed8 <event_pause>:
    1ed8:	b538      	push	{r3, r4, r5, lr}
    1eda:	1c05      	adds	r5, r0, #0
    1edc:	4c08      	ldr	r4, [pc, #32]	; (1f00 <event_pause+0x28>)
    1ede:	2800      	cmp	r0, #0
    1ee0:	d003      	beq.n	1eea <event_pause+0x12>
    1ee2:	2301      	movs	r3, #1
    1ee4:	7623      	strb	r3, [r4, #24]
    1ee6:	200a      	movs	r0, #10
    1ee8:	e001      	b.n	1eee <event_pause+0x16>
    1eea:	7620      	strb	r0, [r4, #24]
    1eec:	2007      	movs	r0, #7
    1eee:	f7ff fd29 	bl	1944 <sark_cpu_state>
    1ef2:	6b23      	ldr	r3, [r4, #48]	; 0x30
    1ef4:	2b00      	cmp	r3, #0
    1ef6:	d002      	beq.n	1efe <event_pause+0x26>
    1ef8:	6b61      	ldr	r1, [r4, #52]	; 0x34
    1efa:	1c28      	adds	r0, r5, #0
    1efc:	4798      	blx	r3
    1efe:	bd38      	pop	{r3, r4, r5, pc}
    1f00:	00400934 	.word	0x00400934

00001f04 <event_stop>:
    1f04:	4b03      	ldr	r3, [pc, #12]	; (1f14 <event_stop+0x10>)
    1f06:	2202      	movs	r2, #2
    1f08:	761a      	strb	r2, [r3, #24]
    1f0a:	4a03      	ldr	r2, [pc, #12]	; (1f18 <event_stop+0x14>)
    1f0c:	6cd9      	ldr	r1, [r3, #76]	; 0x4c
    1f0e:	6011      	str	r1, [r2, #0]
    1f10:	6398      	str	r0, [r3, #56]	; 0x38
    1f12:	4770      	bx	lr
    1f14:	00400934 	.word	0x00400934
    1f18:	2f000014 	.word	0x2f000014

00001f1c <event_alloc>:
    1f1c:	b570      	push	{r4, r5, r6, lr}
    1f1e:	2118      	movs	r1, #24
    1f20:	1c06      	adds	r6, r0, #0
    1f22:	f000 f97b 	bl	221c <sark_alloc>
    1f26:	4d0b      	ldr	r5, [pc, #44]	; (1f54 <event_alloc+0x38>)
    1f28:	1e04      	subs	r4, r0, #0
    1f2a:	d00d      	beq.n	1f48 <event_alloc+0x2c>
    1f2c:	1c31      	adds	r1, r6, #0
    1f2e:	2218      	movs	r2, #24
    1f30:	f7ff fd1a 	bl	1968 <sark_block_init>
    1f34:	1c06      	adds	r6, r0, #0
    1f36:	f7fe e948 	blx	1c8 <cpu_int_disable>
    1f3a:	682a      	ldr	r2, [r5, #0]
    1f3c:	6032      	str	r2, [r6, #0]
    1f3e:	602c      	str	r4, [r5, #0]
    1f40:	f7fe e94a 	blx	1d8 <cpu_int_restore>
    1f44:	2001      	movs	r0, #1
    1f46:	e003      	b.n	1f50 <event_alloc+0x34>
    1f48:	696a      	ldr	r2, [r5, #20]
    1f4a:	2308      	movs	r3, #8
    1f4c:	4313      	orrs	r3, r2
    1f4e:	616b      	str	r3, [r5, #20]
    1f50:	bd70      	pop	{r4, r5, r6, pc}
    1f52:	46c0      	nop			; (mov r8, r8)
    1f54:	00400934 	.word	0x00400934

00001f58 <sark_vic_init>:
    1f58:	4b0b      	ldr	r3, [pc, #44]	; (1f88 <sark_vic_init+0x30>)
    1f5a:	2201      	movs	r2, #1
    1f5c:	4252      	negs	r2, r2
    1f5e:	b510      	push	{r4, lr}
    1f60:	601a      	str	r2, [r3, #0]
    1f62:	4b0a      	ldr	r3, [pc, #40]	; (1f8c <sark_vic_init+0x34>)
    1f64:	2200      	movs	r2, #0
    1f66:	601a      	str	r2, [r3, #0]
    1f68:	4b09      	ldr	r3, [pc, #36]	; (1f90 <sark_vic_init+0x38>)
    1f6a:	4c0a      	ldr	r4, [pc, #40]	; (1f94 <sark_vic_init+0x3c>)
    1f6c:	601a      	str	r2, [r3, #0]
    1f6e:	490a      	ldr	r1, [pc, #40]	; (1f98 <sark_vic_init+0x40>)
    1f70:	4b0a      	ldr	r3, [pc, #40]	; (1f9c <sark_vic_init+0x44>)
    1f72:	1e58      	subs	r0, r3, #1
    1f74:	601a      	str	r2, [r3, #0]
    1f76:	38ff      	subs	r0, #255	; 0xff
    1f78:	3304      	adds	r3, #4
    1f7a:	6004      	str	r4, [r0, #0]
    1f7c:	428b      	cmp	r3, r1
    1f7e:	d1f8      	bne.n	1f72 <sark_vic_init+0x1a>
    1f80:	4b07      	ldr	r3, [pc, #28]	; (1fa0 <sark_vic_init+0x48>)
    1f82:	4a08      	ldr	r2, [pc, #32]	; (1fa4 <sark_vic_init+0x4c>)
    1f84:	601a      	str	r2, [r3, #0]
    1f86:	bd10      	pop	{r4, pc}
    1f88:	2f000014 	.word	0x2f000014
    1f8c:	2f00000c 	.word	0x2f00000c
    1f90:	2f000030 	.word	0x2f000030
    1f94:	00000108 	.word	0x00000108
    1f98:	2f000240 	.word	0x2f000240
    1f9c:	2f000200 	.word	0x2f000200
    1fa0:	2f000034 	.word	0x2f000034
    1fa4:	00000330 	.word	0x00000330

00001fa8 <sark_vic_set>:
    1fa8:	b530      	push	{r4, r5, lr}
    1faa:	2810      	cmp	r0, #16
    1fac:	d106      	bne.n	1fbc <sark_vic_set+0x14>
    1fae:	2020      	movs	r0, #32
    1fb0:	61c3      	str	r3, [r0, #28]
    1fb2:	2001      	movs	r0, #1
    1fb4:	4b0a      	ldr	r3, [pc, #40]	; (1fe0 <sark_vic_set+0x38>)
    1fb6:	4088      	lsls	r0, r1
    1fb8:	6018      	str	r0, [r3, #0]
    1fba:	e009      	b.n	1fd0 <sark_vic_set+0x28>
    1fbc:	4d09      	ldr	r5, [pc, #36]	; (1fe4 <sark_vic_set+0x3c>)
    1fbe:	0084      	lsls	r4, r0, #2
    1fc0:	1964      	adds	r4, r4, r5
    1fc2:	6023      	str	r3, [r4, #0]
    1fc4:	4b08      	ldr	r3, [pc, #32]	; (1fe8 <sark_vic_set+0x40>)
    1fc6:	0080      	lsls	r0, r0, #2
    1fc8:	18c0      	adds	r0, r0, r3
    1fca:	2320      	movs	r3, #32
    1fcc:	430b      	orrs	r3, r1
    1fce:	6003      	str	r3, [r0, #0]
    1fd0:	2a00      	cmp	r2, #0
    1fd2:	d004      	beq.n	1fde <sark_vic_set+0x36>
    1fd4:	2301      	movs	r3, #1
    1fd6:	408b      	lsls	r3, r1
    1fd8:	1c19      	adds	r1, r3, #0
    1fda:	4b04      	ldr	r3, [pc, #16]	; (1fec <sark_vic_set+0x44>)
    1fdc:	6019      	str	r1, [r3, #0]
    1fde:	bd30      	pop	{r4, r5, pc}
    1fe0:	2f00000c 	.word	0x2f00000c
    1fe4:	2f000100 	.word	0x2f000100
    1fe8:	2f000200 	.word	0x2f000200
    1fec:	2f000010 	.word	0x2f000010

00001ff0 <v2p_mask>:
    1ff0:	2300      	movs	r3, #0
    1ff2:	1c1a      	adds	r2, r3, #0
    1ff4:	2101      	movs	r1, #1
    1ff6:	b530      	push	{r4, r5, lr}
    1ff8:	1c0c      	adds	r4, r1, #0
    1ffa:	409c      	lsls	r4, r3
    1ffc:	4220      	tst	r0, r4
    1ffe:	d005      	beq.n	200c <P2P_TABLE_SIZE+0xc>
    2000:	4d05      	ldr	r5, [pc, #20]	; (2018 <P2P_TABLE_SIZE+0x18>)
    2002:	195c      	adds	r4, r3, r5
    2004:	7824      	ldrb	r4, [r4, #0]
    2006:	1c0d      	adds	r5, r1, #0
    2008:	40a5      	lsls	r5, r4
    200a:	432a      	orrs	r2, r5
    200c:	3301      	adds	r3, #1
    200e:	2b12      	cmp	r3, #18
    2010:	d1f2      	bne.n	1ff8 <v2p_mask+0x8>
    2012:	1c10      	adds	r0, r2, #0
    2014:	bd30      	pop	{r4, r5, pc}
    2016:	46c0      	nop			; (mov r8, r8)
    2018:	e5007fa8 	.word	0xe5007fa8

0000201c <rtr_mc_clear>:
    201c:	b5f7      	push	{r0, r1, r2, r4, r5, r6, r7, lr}
    201e:	2380      	movs	r3, #128	; 0x80
    2020:	1809      	adds	r1, r1, r0
    2022:	1c04      	adds	r4, r0, #0
    2024:	00db      	lsls	r3, r3, #3
    2026:	2000      	movs	r0, #0
    2028:	4299      	cmp	r1, r3
    202a:	d81b      	bhi.n	2064 <rtr_mc_clear+0x48>
    202c:	4d0e      	ldr	r5, [pc, #56]	; (2068 <rtr_mc_clear+0x4c>)
    202e:	0122      	lsls	r2, r4, #4
    2030:	682d      	ldr	r5, [r5, #0]
    2032:	2601      	movs	r6, #1
    2034:	18aa      	adds	r2, r5, r2
    2036:	25ff      	movs	r5, #255	; 0xff
    2038:	00a3      	lsls	r3, r4, #2
    203a:	062d      	lsls	r5, r5, #24
    203c:	4276      	negs	r6, r6
    203e:	e00c      	b.n	205a <rtr_mc_clear+0x3e>
    2040:	4f0a      	ldr	r7, [pc, #40]	; (206c <rtr_mc_clear+0x50>)
    2042:	3401      	adds	r4, #1
    2044:	50fd      	str	r5, [r7, r3]
    2046:	4f0a      	ldr	r7, [pc, #40]	; (2070 <rtr_mc_clear+0x54>)
    2048:	6055      	str	r5, [r2, #4]
    204a:	50f8      	str	r0, [r7, r3]
    204c:	4f09      	ldr	r7, [pc, #36]	; (2074 <rtr_mc_clear+0x58>)
    204e:	60d0      	str	r0, [r2, #12]
    2050:	19db      	adds	r3, r3, r7
    2052:	601e      	str	r6, [r3, #0]
    2054:	9b01      	ldr	r3, [sp, #4]
    2056:	6096      	str	r6, [r2, #8]
    2058:	3210      	adds	r2, #16
    205a:	1d1f      	adds	r7, r3, #4
    205c:	9701      	str	r7, [sp, #4]
    205e:	428c      	cmp	r4, r1
    2060:	d3ee      	bcc.n	2040 <rtr_mc_clear+0x24>
    2062:	2001      	movs	r0, #1
    2064:	bdfe      	pop	{r1, r2, r3, r4, r5, r6, r7, pc}
    2066:	46c0      	nop			; (mov r8, r8)
    2068:	e5007fd4 	.word	0xe5007fd4
    206c:	e1004000 	.word	0xe1004000
    2070:	e100c000 	.word	0xe100c000
    2074:	e1008000 	.word	0xe1008000

00002078 <rtr_mc_set>:
    2078:	b5f7      	push	{r0, r1, r2, r4, r5, r6, r7, lr}
    207a:	1c1f      	adds	r7, r3, #0
    207c:	4b14      	ldr	r3, [pc, #80]	; (20d0 <rtr_mc_set+0x58>)
    207e:	1c05      	adds	r5, r0, #0
    2080:	1c0e      	adds	r6, r1, #0
    2082:	9201      	str	r2, [sp, #4]
    2084:	2000      	movs	r0, #0
    2086:	429d      	cmp	r5, r3
    2088:	d821      	bhi.n	20ce <rtr_mc_set+0x56>
    208a:	4a12      	ldr	r2, [pc, #72]	; (20d4 <rtr_mc_set+0x5c>)
    208c:	012b      	lsls	r3, r5, #4
    208e:	6814      	ldr	r4, [r2, #0]
    2090:	0238      	lsls	r0, r7, #8
    2092:	18e4      	adds	r4, r4, r3
    2094:	0a03      	lsrs	r3, r0, #8
    2096:	6063      	str	r3, [r4, #4]
    2098:	235c      	movs	r3, #92	; 0x5c
    209a:	781a      	ldrb	r2, [r3, #0]
    209c:	4b0e      	ldr	r3, [pc, #56]	; (20d8 <rtr_mc_set+0x60>)
    209e:	0b80      	lsrs	r0, r0, #14
    20a0:	18d2      	adds	r2, r2, r3
    20a2:	4b0e      	ldr	r3, [pc, #56]	; (20dc <rtr_mc_set+0x64>)
    20a4:	00ad      	lsls	r5, r5, #2
    20a6:	681b      	ldr	r3, [r3, #0]
    20a8:	021b      	lsls	r3, r3, #8
    20aa:	18d3      	adds	r3, r2, r3
    20ac:	8063      	strh	r3, [r4, #2]
    20ae:	f7ff ff9f 	bl	1ff0 <v2p_mask>
    20b2:	233f      	movs	r3, #63	; 0x3f
    20b4:	401f      	ands	r7, r3
    20b6:	4b0a      	ldr	r3, [pc, #40]	; (20e0 <rtr_mc_set+0x68>)
    20b8:	9a01      	ldr	r2, [sp, #4]
    20ba:	0180      	lsls	r0, r0, #6
    20bc:	4307      	orrs	r7, r0
    20be:	50ef      	str	r7, [r5, r3]
    20c0:	4b08      	ldr	r3, [pc, #32]	; (20e4 <rtr_mc_set+0x6c>)
    20c2:	2001      	movs	r0, #1
    20c4:	50ee      	str	r6, [r5, r3]
    20c6:	4b08      	ldr	r3, [pc, #32]	; (20e8 <rtr_mc_set+0x70>)
    20c8:	60a6      	str	r6, [r4, #8]
    20ca:	50ea      	str	r2, [r5, r3]
    20cc:	60e2      	str	r2, [r4, #12]
    20ce:	bdfe      	pop	{r1, r2, r3, r4, r5, r6, r7, pc}
    20d0:	000003ff 	.word	0x000003ff
    20d4:	e5007fd4 	.word	0xe5007fd4
    20d8:	ffff8000 	.word	0xffff8000
    20dc:	004008f8 	.word	0x004008f8
    20e0:	e1004000 	.word	0xe1004000
    20e4:	e1008000 	.word	0xe1008000
    20e8:	e100c000 	.word	0xe100c000

000020ec <rtr_mc_load>:
    20ec:	b570      	push	{r4, r5, r6, lr}
    20ee:	1c04      	adds	r4, r0, #0
    20f0:	1c15      	adds	r5, r2, #0
    20f2:	2900      	cmp	r1, #0
    20f4:	d100      	bne.n	20f8 <rtr_mc_load+0xc>
    20f6:	8841      	ldrh	r1, [r0, #2]
    20f8:	2380      	movs	r3, #128	; 0x80
    20fa:	00db      	lsls	r3, r3, #3
    20fc:	4299      	cmp	r1, r3
    20fe:	d802      	bhi.n	2106 <rtr_mc_load+0x1a>
    2100:	0109      	lsls	r1, r1, #4
    2102:	1866      	adds	r6, r4, r1
    2104:	e00c      	b.n	2120 <rtr_mc_load+0x34>
    2106:	2000      	movs	r0, #0
    2108:	e00d      	b.n	2126 <rtr_mc_load+0x3a>
    210a:	8820      	ldrh	r0, [r4, #0]
    210c:	4b06      	ldr	r3, [pc, #24]	; (2128 <rtr_mc_load+0x3c>)
    210e:	1940      	adds	r0, r0, r5
    2110:	4298      	cmp	r0, r3
    2112:	d8f8      	bhi.n	2106 <rtr_mc_load+0x1a>
    2114:	68a1      	ldr	r1, [r4, #8]
    2116:	68e2      	ldr	r2, [r4, #12]
    2118:	6863      	ldr	r3, [r4, #4]
    211a:	f7ff ffad 	bl	2078 <rtr_mc_set>
    211e:	3410      	adds	r4, #16
    2120:	42b4      	cmp	r4, r6
    2122:	d1f2      	bne.n	210a <rtr_mc_load+0x1e>
    2124:	2001      	movs	r0, #1
    2126:	bd70      	pop	{r4, r5, r6, pc}
    2128:	000003ff 	.word	0x000003ff

0000212c <sark_fiq_han>:
    212c:	e92d000c 	push	{r2, r3}
    2130:	e3a03202 	mov	r3, #536870912	; 0x20000000
    2134:	e5933014 	ldr	r3, [r3, #20]
    2138:	e59f3010 	ldr	r3, [pc, #16]	; 2150 <sark_fiq_han+0x24>
    213c:	e5932038 	ldr	r2, [r3, #56]	; 0x38
    2140:	e2822001 	add	r2, r2, #1
    2144:	e5832038 	str	r2, [r3, #56]	; 0x38
    2148:	e8bd000c 	pop	{r2, r3}
    214c:	e25ef004 	subs	pc, lr, #4
    2150:	004008f8 	.word	0x004008f8

00002154 <sark_xalloc>:
    2154:	b5f7      	push	{r0, r1, r2, r4, r5, r6, r7, lr}
    2156:	1c07      	adds	r7, r0, #0
    2158:	1c15      	adds	r5, r2, #0
    215a:	2aff      	cmp	r2, #255	; 0xff
    215c:	d858      	bhi.n	2210 <sark_xalloc+0xbc>
    215e:	2900      	cmp	r1, #0
    2160:	d100      	bne.n	2164 <sark_xalloc+0x10>
    2162:	e055      	b.n	2210 <sark_xalloc+0xbc>
    2164:	0a1e      	lsrs	r6, r3, #8
    2166:	0798      	lsls	r0, r3, #30
    2168:	d401      	bmi.n	216e <sark_xalloc+0x1a>
    216a:	225c      	movs	r2, #92	; 0x5c
    216c:	7816      	ldrb	r6, [r2, #0]
    216e:	0236      	lsls	r6, r6, #8
    2170:	1976      	adds	r6, r6, r5
    2172:	2d00      	cmp	r5, #0
    2174:	d005      	beq.n	2182 <sark_xalloc+0x2e>
    2176:	4a27      	ldr	r2, [pc, #156]	; (2214 <sark_xalloc+0xc0>)
    2178:	00b0      	lsls	r0, r6, #2
    217a:	6812      	ldr	r2, [r2, #0]
    217c:	5882      	ldr	r2, [r0, r2]
    217e:	2a00      	cmp	r2, #0
    2180:	d146      	bne.n	2210 <sark_xalloc+0xbc>
    2182:	2203      	movs	r2, #3
    2184:	3103      	adds	r1, #3
    2186:	4391      	bics	r1, r2
    2188:	2201      	movs	r2, #1
    218a:	3108      	adds	r1, #8
    218c:	4013      	ands	r3, r2
    218e:	9101      	str	r1, [sp, #4]
    2190:	9300      	str	r3, [sp, #0]
    2192:	d003      	beq.n	219c <sark_xalloc+0x48>
    2194:	2006      	movs	r0, #6
    2196:	f7fe e828 	blx	1e8 <sark_lock_get>
    219a:	4684      	mov	ip, r0
    219c:	683c      	ldr	r4, [r7, #0]
    219e:	2200      	movs	r2, #0
    21a0:	e02d      	b.n	21fe <sark_xalloc+0xaa>
    21a2:	9801      	ldr	r0, [sp, #4]
    21a4:	6821      	ldr	r1, [r4, #0]
    21a6:	1823      	adds	r3, r4, r0
    21a8:	42a3      	cmp	r3, r4
    21aa:	d92a      	bls.n	2202 <sark_xalloc+0xae>
    21ac:	428b      	cmp	r3, r1
    21ae:	d902      	bls.n	21b6 <sark_xalloc+0x62>
    21b0:	1c22      	adds	r2, r4, #0
    21b2:	6864      	ldr	r4, [r4, #4]
    21b4:	e023      	b.n	21fe <sark_xalloc+0xaa>
    21b6:	1c18      	adds	r0, r3, #0
    21b8:	3008      	adds	r0, #8
    21ba:	4281      	cmp	r1, r0
    21bc:	d904      	bls.n	21c8 <sark_xalloc+0x74>
    21be:	6019      	str	r1, [r3, #0]
    21c0:	6861      	ldr	r1, [r4, #4]
    21c2:	6059      	str	r1, [r3, #4]
    21c4:	6023      	str	r3, [r4, #0]
    21c6:	6063      	str	r3, [r4, #4]
    21c8:	6863      	ldr	r3, [r4, #4]
    21ca:	2a00      	cmp	r2, #0
    21cc:	d001      	beq.n	21d2 <sark_xalloc+0x7e>
    21ce:	6053      	str	r3, [r2, #4]
    21d0:	e000      	b.n	21d4 <sark_xalloc+0x80>
    21d2:	603b      	str	r3, [r7, #0]
    21d4:	9a00      	ldr	r2, [sp, #0]
    21d6:	2a00      	cmp	r2, #0
    21d8:	d003      	beq.n	21e2 <sark_xalloc+0x8e>
    21da:	4660      	mov	r0, ip
    21dc:	2106      	movs	r1, #6
    21de:	f7fe e816 	blx	20c <sark_lock_free>
    21e2:	480d      	ldr	r0, [pc, #52]	; (2218 <sark_xalloc+0xc4>)
    21e4:	1833      	adds	r3, r6, r0
    21e6:	6063      	str	r3, [r4, #4]
    21e8:	2d00      	cmp	r5, #0
    21ea:	d005      	beq.n	21f8 <sark_xalloc+0xa4>
    21ec:	4b09      	ldr	r3, [pc, #36]	; (2214 <sark_xalloc+0xc0>)
    21ee:	1c22      	adds	r2, r4, #0
    21f0:	681b      	ldr	r3, [r3, #0]
    21f2:	00b6      	lsls	r6, r6, #2
    21f4:	3208      	adds	r2, #8
    21f6:	50f2      	str	r2, [r6, r3]
    21f8:	1c20      	adds	r0, r4, #0
    21fa:	3008      	adds	r0, #8
    21fc:	e009      	b.n	2212 <sark_xalloc+0xbe>
    21fe:	2c00      	cmp	r4, #0
    2200:	d1cf      	bne.n	21a2 <sark_xalloc+0x4e>
    2202:	9900      	ldr	r1, [sp, #0]
    2204:	2900      	cmp	r1, #0
    2206:	d003      	beq.n	2210 <sark_xalloc+0xbc>
    2208:	4660      	mov	r0, ip
    220a:	2106      	movs	r1, #6
    220c:	f7fd effe 	blx	20c <sark_lock_free>
    2210:	2000      	movs	r0, #0
    2212:	bdfe      	pop	{r1, r2, r3, r4, r5, r6, r7, pc}
    2214:	e5007fdc 	.word	0xe5007fdc
    2218:	ffff0000 	.word	0xffff0000

0000221c <sark_alloc>:
    221c:	4a04      	ldr	r2, [pc, #16]	; (2230 <sark_alloc+0x14>)
    221e:	b508      	push	{r3, lr}
    2220:	1c03      	adds	r3, r0, #0
    2222:	6990      	ldr	r0, [r2, #24]
    2224:	2200      	movs	r2, #0
    2226:	4359      	muls	r1, r3
    2228:	1c13      	adds	r3, r2, #0
    222a:	f7ff ff93 	bl	2154 <sark_xalloc>
    222e:	bd08      	pop	{r3, pc}
    2230:	004008f8 	.word	0x004008f8

00002234 <sark_heap_init>:
    2234:	1c03      	adds	r3, r0, #0
    2236:	330c      	adds	r3, #12
    2238:	3908      	subs	r1, #8
    223a:	6043      	str	r3, [r0, #4]
    223c:	6003      	str	r3, [r0, #0]
    223e:	2300      	movs	r3, #0
    2240:	6081      	str	r1, [r0, #8]
    2242:	60c1      	str	r1, [r0, #12]
    2244:	6103      	str	r3, [r0, #16]
    2246:	600b      	str	r3, [r1, #0]
    2248:	604b      	str	r3, [r1, #4]
    224a:	4770      	bx	lr

0000224c <rtr_alloc_id>:
    224c:	b5f7      	push	{r0, r1, r2, r4, r5, r6, r7, lr}
    224e:	2400      	movs	r4, #0
    2250:	1c06      	adds	r6, r0, #0
    2252:	9101      	str	r1, [sp, #4]
    2254:	42a0      	cmp	r0, r4
    2256:	d02f      	beq.n	22b8 <rtr_alloc_id+0x6c>
    2258:	4b18      	ldr	r3, [pc, #96]	; (22bc <rtr_alloc_id+0x70>)
    225a:	2007      	movs	r0, #7
    225c:	681d      	ldr	r5, [r3, #0]
    225e:	f7fd efc4 	blx	1e8 <sark_lock_get>
    2262:	4b17      	ldr	r3, [pc, #92]	; (22c0 <rtr_alloc_id+0x74>)
    2264:	2100      	movs	r1, #0
    2266:	881c      	ldrh	r4, [r3, #0]
    2268:	469c      	mov	ip, r3
    226a:	e020      	b.n	22ae <rtr_alloc_id+0x62>
    226c:	0123      	lsls	r3, r4, #4
    226e:	18eb      	adds	r3, r5, r3
    2270:	881f      	ldrh	r7, [r3, #0]
    2272:	19a2      	adds	r2, r4, r6
    2274:	42ba      	cmp	r2, r7
    2276:	d902      	bls.n	227e <rtr_alloc_id+0x32>
    2278:	1c21      	adds	r1, r4, #0
    227a:	885c      	ldrh	r4, [r3, #2]
    227c:	e017      	b.n	22ae <rtr_alloc_id+0x62>
    227e:	42ba      	cmp	r2, r7
    2280:	d206      	bcs.n	2290 <rtr_alloc_id+0x44>
    2282:	0116      	lsls	r6, r2, #4
    2284:	19ae      	adds	r6, r5, r6
    2286:	8037      	strh	r7, [r6, #0]
    2288:	885f      	ldrh	r7, [r3, #2]
    228a:	8077      	strh	r7, [r6, #2]
    228c:	801a      	strh	r2, [r3, #0]
    228e:	805a      	strh	r2, [r3, #2]
    2290:	885a      	ldrh	r2, [r3, #2]
    2292:	2900      	cmp	r1, #0
    2294:	d003      	beq.n	229e <rtr_alloc_id+0x52>
    2296:	0109      	lsls	r1, r1, #4
    2298:	186d      	adds	r5, r5, r1
    229a:	806a      	strh	r2, [r5, #2]
    229c:	e001      	b.n	22a2 <rtr_alloc_id+0x56>
    229e:	4661      	mov	r1, ip
    22a0:	800a      	strh	r2, [r1, #0]
    22a2:	2280      	movs	r2, #128	; 0x80
    22a4:	9901      	ldr	r1, [sp, #4]
    22a6:	0212      	lsls	r2, r2, #8
    22a8:	430a      	orrs	r2, r1
    22aa:	805a      	strh	r2, [r3, #2]
    22ac:	e001      	b.n	22b2 <rtr_alloc_id+0x66>
    22ae:	2c00      	cmp	r4, #0
    22b0:	d1dc      	bne.n	226c <rtr_alloc_id+0x20>
    22b2:	2107      	movs	r1, #7
    22b4:	f7fd efaa 	blx	20c <sark_lock_free>
    22b8:	1c20      	adds	r0, r4, #0
    22ba:	bdfe      	pop	{r1, r2, r3, r4, r5, r6, r7, pc}
    22bc:	e5007fd4 	.word	0xe5007fd4
    22c0:	e5007fe0 	.word	0xe5007fe0

000022c4 <rtr_alloc>:
    22c4:	b508      	push	{r3, lr}
    22c6:	235c      	movs	r3, #92	; 0x5c
    22c8:	7819      	ldrb	r1, [r3, #0]
    22ca:	f7ff ffbf 	bl	224c <rtr_alloc_id>
    22ce:	bd08      	pop	{r3, pc}

000022d0 <rtr_free>:
    22d0:	4b23      	ldr	r3, [pc, #140]	; (2360 <rtr_free+0x90>)
    22d2:	b5f7      	push	{r0, r1, r2, r4, r5, r6, r7, lr}
    22d4:	1e42      	subs	r2, r0, #1
    22d6:	1c04      	adds	r4, r0, #0
    22d8:	9101      	str	r1, [sp, #4]
    22da:	429a      	cmp	r2, r3
    22dc:	d83f      	bhi.n	235e <rtr_free+0x8e>
    22de:	4b21      	ldr	r3, [pc, #132]	; (2364 <rtr_free+0x94>)
    22e0:	2007      	movs	r0, #7
    22e2:	681e      	ldr	r6, [r3, #0]
    22e4:	f7fd ef80 	blx	1e8 <sark_lock_get>
    22e8:	4b1f      	ldr	r3, [pc, #124]	; (2368 <rtr_free+0x98>)
    22ea:	9901      	ldr	r1, [sp, #4]
    22ec:	881d      	ldrh	r5, [r3, #0]
    22ee:	1c07      	adds	r7, r0, #0
    22f0:	2900      	cmp	r1, #0
    22f2:	d005      	beq.n	2300 <rtr_free+0x30>
    22f4:	0123      	lsls	r3, r4, #4
    22f6:	5b99      	ldrh	r1, [r3, r6]
    22f8:	1c20      	adds	r0, r4, #0
    22fa:	1b09      	subs	r1, r1, r4
    22fc:	f7ff fe8e 	bl	201c <rtr_mc_clear>
    2300:	2200      	movs	r2, #0
    2302:	e005      	b.n	2310 <rtr_free+0x40>
    2304:	42ac      	cmp	r4, r5
    2306:	d305      	bcc.n	2314 <rtr_free+0x44>
    2308:	012b      	lsls	r3, r5, #4
    230a:	18f3      	adds	r3, r6, r3
    230c:	1c2a      	adds	r2, r5, #0
    230e:	885d      	ldrh	r5, [r3, #2]
    2310:	2d00      	cmp	r5, #0
    2312:	d1f7      	bne.n	2304 <rtr_free+0x34>
    2314:	0123      	lsls	r3, r4, #4
    2316:	18f3      	adds	r3, r6, r3
    2318:	805d      	strh	r5, [r3, #2]
    231a:	2a00      	cmp	r2, #0
    231c:	d003      	beq.n	2326 <rtr_free+0x56>
    231e:	0111      	lsls	r1, r2, #4
    2320:	1871      	adds	r1, r6, r1
    2322:	804c      	strh	r4, [r1, #2]
    2324:	e001      	b.n	232a <rtr_free+0x5a>
    2326:	4910      	ldr	r1, [pc, #64]	; (2368 <rtr_free+0x98>)
    2328:	800c      	strh	r4, [r1, #0]
    232a:	2d00      	cmp	r5, #0
    232c:	d008      	beq.n	2340 <rtr_free+0x70>
    232e:	8819      	ldrh	r1, [r3, #0]
    2330:	42a9      	cmp	r1, r5
    2332:	d105      	bne.n	2340 <rtr_free+0x70>
    2334:	012d      	lsls	r5, r5, #4
    2336:	1975      	adds	r5, r6, r5
    2338:	8829      	ldrh	r1, [r5, #0]
    233a:	8019      	strh	r1, [r3, #0]
    233c:	8869      	ldrh	r1, [r5, #2]
    233e:	8059      	strh	r1, [r3, #2]
    2340:	2a00      	cmp	r2, #0
    2342:	d008      	beq.n	2356 <rtr_free+0x86>
    2344:	0112      	lsls	r2, r2, #4
    2346:	18b6      	adds	r6, r6, r2
    2348:	8832      	ldrh	r2, [r6, #0]
    234a:	42a2      	cmp	r2, r4
    234c:	d103      	bne.n	2356 <rtr_free+0x86>
    234e:	881a      	ldrh	r2, [r3, #0]
    2350:	8032      	strh	r2, [r6, #0]
    2352:	885b      	ldrh	r3, [r3, #2]
    2354:	8073      	strh	r3, [r6, #2]
    2356:	1c38      	adds	r0, r7, #0
    2358:	2107      	movs	r1, #7
    235a:	f7fd ef58 	blx	20c <sark_lock_free>
    235e:	bdf7      	pop	{r0, r1, r2, r4, r5, r6, r7, pc}
    2360:	000003fe 	.word	0x000003fe
    2364:	e5007fd4 	.word	0xe5007fd4
    2368:	e5007fe0 	.word	0xe5007fe0

0000236c <rtr_free_id>:
    236c:	4b0e      	ldr	r3, [pc, #56]	; (23a8 <rtr_free_id+0x3c>)
    236e:	b5f7      	push	{r0, r1, r2, r4, r5, r6, r7, lr}
    2370:	2680      	movs	r6, #128	; 0x80
    2372:	681b      	ldr	r3, [r3, #0]
    2374:	0236      	lsls	r6, r6, #8
    2376:	4306      	orrs	r6, r0
    2378:	1c0f      	adds	r7, r1, #0
    237a:	9301      	str	r3, [sp, #4]
    237c:	2400      	movs	r4, #0
    237e:	2001      	movs	r0, #1
    2380:	e009      	b.n	2396 <rtr_free_id+0x2a>
    2382:	886a      	ldrh	r2, [r5, #2]
    2384:	4b09      	ldr	r3, [pc, #36]	; (23ac <rtr_free_id+0x40>)
    2386:	4013      	ands	r3, r2
    2388:	42b3      	cmp	r3, r6
    238a:	d103      	bne.n	2394 <rtr_free_id+0x28>
    238c:	1c39      	adds	r1, r7, #0
    238e:	f7ff ff9f 	bl	22d0 <rtr_free>
    2392:	3401      	adds	r4, #1
    2394:	8828      	ldrh	r0, [r5, #0]
    2396:	9b01      	ldr	r3, [sp, #4]
    2398:	0105      	lsls	r5, r0, #4
    239a:	195d      	adds	r5, r3, r5
    239c:	882b      	ldrh	r3, [r5, #0]
    239e:	2b00      	cmp	r3, #0
    23a0:	d1ef      	bne.n	2382 <rtr_free_id+0x16>
    23a2:	1c20      	adds	r0, r4, #0
    23a4:	bdfe      	pop	{r1, r2, r3, r4, r5, r6, r7, pc}
    23a6:	46c0      	nop			; (mov r8, r8)
    23a8:	e5007fd4 	.word	0xe5007fd4
    23ac:	ffffe0ff 	.word	0xffffe0ff

000023b0 <io_buf_init>:
    23b0:	b538      	push	{r3, r4, r5, lr}
    23b2:	4d0c      	ldr	r5, [pc, #48]	; (23e4 <io_buf_init+0x34>)
    23b4:	4b0c      	ldr	r3, [pc, #48]	; (23e8 <io_buf_init+0x38>)
    23b6:	6d29      	ldr	r1, [r5, #80]	; 0x50
    23b8:	6818      	ldr	r0, [r3, #0]
    23ba:	3110      	adds	r1, #16
    23bc:	2200      	movs	r2, #0
    23be:	2301      	movs	r3, #1
    23c0:	f7ff fec8 	bl	2154 <sark_xalloc>
    23c4:	1e04      	subs	r4, r0, #0
    23c6:	d102      	bne.n	23ce <io_buf_init+0x1e>
    23c8:	200e      	movs	r0, #14
    23ca:	f7fd feaf 	bl	12c <rt_error>
    23ce:	69eb      	ldr	r3, [r5, #28]
    23d0:	6063      	str	r3, [r4, #4]
    23d2:	4a06      	ldr	r2, [pc, #24]	; (23ec <io_buf_init+0x3c>)
    23d4:	8b2b      	ldrh	r3, [r5, #24]
    23d6:	60a3      	str	r3, [r4, #8]
    23d8:	2300      	movs	r3, #0
    23da:	1c20      	adds	r0, r4, #0
    23dc:	6023      	str	r3, [r4, #0]
    23de:	6013      	str	r3, [r2, #0]
    23e0:	60e3      	str	r3, [r4, #12]
    23e2:	bd38      	pop	{r3, r4, r5, pc}
    23e4:	e5007f00 	.word	0xe5007f00
    23e8:	e5007fd0 	.word	0xe5007fd0
    23ec:	004005ac 	.word	0x004005ac

000023f0 <io_put_char>:
    23f0:	b570      	push	{r4, r5, r6, lr}
    23f2:	1c0d      	adds	r5, r1, #0
    23f4:	2803      	cmp	r0, #3
    23f6:	d907      	bls.n	2408 <io_put_char+0x18>
    23f8:	4a34      	ldr	r2, [pc, #208]	; (24cc <io_put_char+0xdc>)
    23fa:	6813      	ldr	r3, [r2, #0]
    23fc:	54c1      	strb	r1, [r0, r3]
    23fe:	3301      	adds	r3, #1
    2400:	6013      	str	r3, [r2, #0]
    2402:	2200      	movs	r2, #0
    2404:	54c2      	strb	r2, [r0, r3]
    2406:	e060      	b.n	24ca <io_put_char+0xda>
    2408:	2800      	cmp	r0, #0
    240a:	d13a      	bne.n	2482 <io_put_char+0x92>
    240c:	4b30      	ldr	r3, [pc, #192]	; (24d0 <io_put_char+0xe0>)
    240e:	681b      	ldr	r3, [r3, #0]
    2410:	2b00      	cmp	r3, #0
    2412:	d11d      	bne.n	2450 <io_put_char+0x60>
    2414:	2001      	movs	r0, #1
    2416:	2192      	movs	r1, #146	; 0x92
    2418:	4081      	lsls	r1, r0
    241a:	f7ff feff 	bl	221c <sark_alloc>
    241e:	1e04      	subs	r4, r0, #0
    2420:	d102      	bne.n	2428 <io_put_char+0x38>
    2422:	200e      	movs	r0, #14
    2424:	f7fd fe82 	bl	12c <rt_error>
    2428:	2307      	movs	r3, #7
    242a:	7223      	strb	r3, [r4, #8]
    242c:	2300      	movs	r3, #0
    242e:	7263      	strb	r3, [r4, #9]
    2430:	23ff      	movs	r3, #255	; 0xff
    2432:	72a3      	strb	r3, [r4, #10]
    2434:	4b27      	ldr	r3, [pc, #156]	; (24d4 <io_put_char+0xe4>)
    2436:	889a      	ldrh	r2, [r3, #4]
    2438:	81a2      	strh	r2, [r4, #12]
    243a:	4a27      	ldr	r2, [pc, #156]	; (24d8 <io_put_char+0xe8>)
    243c:	6812      	ldr	r2, [r2, #0]
    243e:	72e2      	strb	r2, [r4, #11]
    2440:	881b      	ldrh	r3, [r3, #0]
    2442:	81e3      	strh	r3, [r4, #14]
    2444:	2340      	movs	r3, #64	; 0x40
    2446:	8223      	strh	r3, [r4, #16]
    2448:	230c      	movs	r3, #12
    244a:	80a3      	strh	r3, [r4, #4]
    244c:	4b20      	ldr	r3, [pc, #128]	; (24d0 <io_put_char+0xe0>)
    244e:	601c      	str	r4, [r3, #0]
    2450:	4b1f      	ldr	r3, [pc, #124]	; (24d0 <io_put_char+0xe0>)
    2452:	6818      	ldr	r0, [r3, #0]
    2454:	8883      	ldrh	r3, [r0, #4]
    2456:	18c2      	adds	r2, r0, r3
    2458:	3301      	adds	r3, #1
    245a:	041b      	lsls	r3, r3, #16
    245c:	0c1b      	lsrs	r3, r3, #16
    245e:	7215      	strb	r5, [r2, #8]
    2460:	8083      	strh	r3, [r0, #4]
    2462:	2d00      	cmp	r5, #0
    2464:	d005      	beq.n	2472 <io_put_char+0x82>
    2466:	2d0a      	cmp	r5, #10
    2468:	d003      	beq.n	2472 <io_put_char+0x82>
    246a:	2286      	movs	r2, #134	; 0x86
    246c:	0052      	lsls	r2, r2, #1
    246e:	4293      	cmp	r3, r2
    2470:	d12b      	bne.n	24ca <io_put_char+0xda>
    2472:	210a      	movs	r1, #10
    2474:	f7ff fb5a 	bl	1b2c <sark_msg_send>
    2478:	4b15      	ldr	r3, [pc, #84]	; (24d0 <io_put_char+0xe0>)
    247a:	220c      	movs	r2, #12
    247c:	681b      	ldr	r3, [r3, #0]
    247e:	809a      	strh	r2, [r3, #4]
    2480:	e023      	b.n	24ca <io_put_char+0xda>
    2482:	2802      	cmp	r0, #2
    2484:	d121      	bne.n	24ca <io_put_char+0xda>
    2486:	4e15      	ldr	r6, [pc, #84]	; (24dc <io_put_char+0xec>)
    2488:	6833      	ldr	r3, [r6, #0]
    248a:	2b00      	cmp	r3, #0
    248c:	d105      	bne.n	249a <io_put_char+0xaa>
    248e:	4b12      	ldr	r3, [pc, #72]	; (24d8 <io_put_char+0xe8>)
    2490:	69dc      	ldr	r4, [r3, #28]
    2492:	f7ff ff8d 	bl	23b0 <io_buf_init>
    2496:	65a0      	str	r0, [r4, #88]	; 0x58
    2498:	6030      	str	r0, [r6, #0]
    249a:	4a11      	ldr	r2, [pc, #68]	; (24e0 <io_put_char+0xf0>)
    249c:	6834      	ldr	r4, [r6, #0]
    249e:	6813      	ldr	r3, [r2, #0]
    24a0:	18e1      	adds	r1, r4, r3
    24a2:	3301      	adds	r3, #1
    24a4:	6013      	str	r3, [r2, #0]
    24a6:	4a0b      	ldr	r2, [pc, #44]	; (24d4 <io_put_char+0xe4>)
    24a8:	740d      	strb	r5, [r1, #16]
    24aa:	6d12      	ldr	r2, [r2, #80]	; 0x50
    24ac:	4293      	cmp	r3, r2
    24ae:	d107      	bne.n	24c0 <io_put_char+0xd0>
    24b0:	60e3      	str	r3, [r4, #12]
    24b2:	f7ff ff7d 	bl	23b0 <io_buf_init>
    24b6:	6833      	ldr	r3, [r6, #0]
    24b8:	6020      	str	r0, [r4, #0]
    24ba:	681b      	ldr	r3, [r3, #0]
    24bc:	6033      	str	r3, [r6, #0]
    24be:	e004      	b.n	24ca <io_put_char+0xda>
    24c0:	2d00      	cmp	r5, #0
    24c2:	d001      	beq.n	24c8 <io_put_char+0xd8>
    24c4:	2d0a      	cmp	r5, #10
    24c6:	d100      	bne.n	24ca <io_put_char+0xda>
    24c8:	60e3      	str	r3, [r4, #12]
    24ca:	bd70      	pop	{r4, r5, r6, pc}
    24cc:	004005b0 	.word	0x004005b0
    24d0:	004005a4 	.word	0x004005a4
    24d4:	e5007f00 	.word	0xe5007f00
    24d8:	004008f8 	.word	0x004008f8
    24dc:	004005a8 	.word	0x004005a8
    24e0:	004005ac 	.word	0x004005ac

000024e4 <io_put_fixed>:
    24e4:	b5f0      	push	{r4, r5, r6, r7, lr}
    24e6:	b08d      	sub	sp, #52	; 0x34
    24e8:	9001      	str	r0, [sp, #4]
    24ea:	1c15      	adds	r5, r2, #0
    24ec:	2b0c      	cmp	r3, #12
    24ee:	d900      	bls.n	24f2 <io_put_fixed+0xe>
    24f0:	230c      	movs	r3, #12
    24f2:	1c0a      	adds	r2, r1, #0
    24f4:	2400      	movs	r4, #0
    24f6:	e008      	b.n	250a <io_put_fixed+0x26>
    24f8:	0c17      	lsrs	r7, r2, #16
    24fa:	3730      	adds	r7, #48	; 0x30
    24fc:	46bc      	mov	ip, r7
    24fe:	a805      	add	r0, sp, #20
    2500:	3401      	adds	r4, #1
    2502:	18c7      	adds	r7, r0, r3
    2504:	4266      	negs	r6, r4
    2506:	4660      	mov	r0, ip
    2508:	55b8      	strb	r0, [r7, r6]
    250a:	0412      	lsls	r2, r2, #16
    250c:	0c12      	lsrs	r2, r2, #16
    250e:	200a      	movs	r0, #10
    2510:	4342      	muls	r2, r0
    2512:	429c      	cmp	r4, r3
    2514:	d1f0      	bne.n	24f8 <io_put_fixed+0x14>
    2516:	0c12      	lsrs	r2, r2, #16
    2518:	2004      	movs	r0, #4
    251a:	4290      	cmp	r0, r2
    251c:	4180      	sbcs	r0, r0
    251e:	2601      	movs	r6, #1
    2520:	4240      	negs	r0, r0
    2522:	2200      	movs	r2, #0
    2524:	46b4      	mov	ip, r6
    2526:	2730      	movs	r7, #48	; 0x30
    2528:	e00a      	b.n	2540 <io_put_fixed+0x5c>
    252a:	a805      	add	r0, sp, #20
    252c:	5c16      	ldrb	r6, [r2, r0]
    252e:	2e38      	cmp	r6, #56	; 0x38
    2530:	d902      	bls.n	2538 <io_put_fixed+0x54>
    2532:	5417      	strb	r7, [r2, r0]
    2534:	2001      	movs	r0, #1
    2536:	e002      	b.n	253e <io_put_fixed+0x5a>
    2538:	3601      	adds	r6, #1
    253a:	5416      	strb	r6, [r2, r0]
    253c:	2000      	movs	r0, #0
    253e:	3201      	adds	r2, #1
    2540:	429a      	cmp	r2, r3
    2542:	d202      	bcs.n	254a <io_put_fixed+0x66>
    2544:	4666      	mov	r6, ip
    2546:	4230      	tst	r0, r6
    2548:	d1ef      	bne.n	252a <io_put_fixed+0x46>
    254a:	2b00      	cmp	r3, #0
    254c:	d003      	beq.n	2556 <io_put_fixed+0x72>
    254e:	242e      	movs	r4, #46	; 0x2e
    2550:	aa05      	add	r2, sp, #20
    2552:	54d4      	strb	r4, [r2, r3]
    2554:	1c5c      	adds	r4, r3, #1
    2556:	0c09      	lsrs	r1, r1, #16
    2558:	1841      	adds	r1, r0, r1
    255a:	a803      	add	r0, sp, #12
    255c:	f7fd eeb8 	blx	2d0 <sark_div10>
    2560:	9a04      	ldr	r2, [sp, #16]
    2562:	9903      	ldr	r1, [sp, #12]
    2564:	ab05      	add	r3, sp, #20
    2566:	3230      	adds	r2, #48	; 0x30
    2568:	54e2      	strb	r2, [r4, r3]
    256a:	1c66      	adds	r6, r4, #1
    256c:	2900      	cmp	r1, #0
    256e:	d001      	beq.n	2574 <io_put_fixed+0x90>
    2570:	1c34      	adds	r4, r6, #0
    2572:	e7f2      	b.n	255a <io_put_fixed+0x76>
    2574:	9813      	ldr	r0, [sp, #76]	; 0x4c
    2576:	2800      	cmp	r0, #0
    2578:	d008      	beq.n	258c <io_put_fixed+0xa8>
    257a:	222d      	movs	r2, #45	; 0x2d
    257c:	559a      	strb	r2, [r3, r6]
    257e:	1ca6      	adds	r6, r4, #2
    2580:	e004      	b.n	258c <io_put_fixed+0xa8>
    2582:	9801      	ldr	r0, [sp, #4]
    2584:	9912      	ldr	r1, [sp, #72]	; 0x48
    2586:	f7ff ff33 	bl	23f0 <io_put_char>
    258a:	3d01      	subs	r5, #1
    258c:	1c73      	adds	r3, r6, #1
    258e:	429d      	cmp	r5, r3
    2590:	d8f7      	bhi.n	2582 <io_put_fixed+0x9e>
    2592:	3e01      	subs	r6, #1
    2594:	ab05      	add	r3, sp, #20
    2596:	5cf1      	ldrb	r1, [r6, r3]
    2598:	9801      	ldr	r0, [sp, #4]
    259a:	f7ff ff29 	bl	23f0 <io_put_char>
    259e:	2e00      	cmp	r6, #0
    25a0:	d1f7      	bne.n	2592 <io_put_fixed+0xae>
    25a2:	b00d      	add	sp, #52	; 0x34
    25a4:	bdf0      	pop	{r4, r5, r6, r7, pc}
	...

000025a8 <io_printf>:
    25a8:	b40e      	push	{r1, r2, r3}
    25aa:	b5f0      	push	{r4, r5, r6, r7, lr}
    25ac:	b08c      	sub	sp, #48	; 0x30
    25ae:	1c04      	adds	r4, r0, #0
    25b0:	9d11      	ldr	r5, [sp, #68]	; 0x44
    25b2:	2803      	cmp	r0, #3
    25b4:	d100      	bne.n	25b8 <io_printf+0x10>
    25b6:	e145      	b.n	2844 <io_printf+0x29c>
    25b8:	d903      	bls.n	25c2 <io_printf+0x1a>
    25ba:	4aa5      	ldr	r2, [pc, #660]	; (2850 <io_printf+0x2a8>)
    25bc:	2300      	movs	r3, #0
    25be:	7003      	strb	r3, [r0, #0]
    25c0:	6013      	str	r3, [r2, #0]
    25c2:	ab12      	add	r3, sp, #72	; 0x48
    25c4:	9305      	str	r3, [sp, #20]
    25c6:	7829      	ldrb	r1, [r5, #0]
    25c8:	2900      	cmp	r1, #0
    25ca:	d100      	bne.n	25ce <io_printf+0x26>
    25cc:	e13a      	b.n	2844 <io_printf+0x29c>
    25ce:	2925      	cmp	r1, #37	; 0x25
    25d0:	d001      	beq.n	25d6 <io_printf+0x2e>
    25d2:	3501      	adds	r5, #1
    25d4:	e053      	b.n	267e <io_printf+0xd6>
    25d6:	7869      	ldrb	r1, [r5, #1]
    25d8:	3502      	adds	r5, #2
    25da:	2900      	cmp	r1, #0
    25dc:	d100      	bne.n	25e0 <io_printf+0x38>
    25de:	e131      	b.n	2844 <io_printf+0x29c>
    25e0:	2930      	cmp	r1, #48	; 0x30
    25e2:	d002      	beq.n	25ea <io_printf+0x42>
    25e4:	2020      	movs	r0, #32
    25e6:	9003      	str	r0, [sp, #12]
    25e8:	e000      	b.n	25ec <io_printf+0x44>
    25ea:	9103      	str	r1, [sp, #12]
    25ec:	2600      	movs	r6, #0
    25ee:	220a      	movs	r2, #10
    25f0:	e007      	b.n	2602 <io_printf+0x5a>
    25f2:	4356      	muls	r6, r2
    25f4:	1876      	adds	r6, r6, r1
    25f6:	7829      	ldrb	r1, [r5, #0]
    25f8:	3e30      	subs	r6, #48	; 0x30
    25fa:	3501      	adds	r5, #1
    25fc:	2900      	cmp	r1, #0
    25fe:	d100      	bne.n	2602 <io_printf+0x5a>
    2600:	e120      	b.n	2844 <io_printf+0x29c>
    2602:	1c0b      	adds	r3, r1, #0
    2604:	3b30      	subs	r3, #48	; 0x30
    2606:	2b09      	cmp	r3, #9
    2608:	d9f3      	bls.n	25f2 <io_printf+0x4a>
    260a:	1c37      	adds	r7, r6, #0
    260c:	2306      	movs	r3, #6
    260e:	292e      	cmp	r1, #46	; 0x2e
    2610:	d110      	bne.n	2634 <io_printf+0x8c>
    2612:	7829      	ldrb	r1, [r5, #0]
    2614:	2300      	movs	r3, #0
    2616:	3501      	adds	r5, #1
    2618:	200a      	movs	r0, #10
    261a:	e004      	b.n	2626 <io_printf+0x7e>
    261c:	4343      	muls	r3, r0
    261e:	185b      	adds	r3, r3, r1
    2620:	3b30      	subs	r3, #48	; 0x30
    2622:	7829      	ldrb	r1, [r5, #0]
    2624:	3501      	adds	r5, #1
    2626:	1c0a      	adds	r2, r1, #0
    2628:	3a30      	subs	r2, #48	; 0x30
    262a:	2a09      	cmp	r2, #9
    262c:	d9f6      	bls.n	261c <io_printf+0x74>
    262e:	2900      	cmp	r1, #0
    2630:	d100      	bne.n	2634 <io_printf+0x8c>
    2632:	e107      	b.n	2844 <io_printf+0x29c>
    2634:	296b      	cmp	r1, #107	; 0x6b
    2636:	d100      	bne.n	263a <io_printf+0x92>
    2638:	e0b0      	b.n	279c <io_printf+0x1f4>
    263a:	d80d      	bhi.n	2658 <io_printf+0xb0>
    263c:	2963      	cmp	r1, #99	; 0x63
    263e:	d01a      	beq.n	2676 <io_printf+0xce>
    2640:	d805      	bhi.n	264e <io_printf+0xa6>
    2642:	294b      	cmp	r1, #75	; 0x4b
    2644:	d100      	bne.n	2648 <io_printf+0xa0>
    2646:	e09a      	b.n	277e <io_printf+0x1d6>
    2648:	2952      	cmp	r1, #82	; 0x52
    264a:	d118      	bne.n	267e <io_printf+0xd6>
    264c:	e09e      	b.n	278c <io_printf+0x1e4>
    264e:	2964      	cmp	r1, #100	; 0x64
    2650:	d036      	beq.n	26c0 <io_printf+0x118>
    2652:	2966      	cmp	r1, #102	; 0x66
    2654:	d113      	bne.n	267e <io_printf+0xd6>
    2656:	e092      	b.n	277e <io_printf+0x1d6>
    2658:	2975      	cmp	r1, #117	; 0x75
    265a:	d066      	beq.n	272a <io_printf+0x182>
    265c:	d805      	bhi.n	266a <io_printf+0xc2>
    265e:	2972      	cmp	r1, #114	; 0x72
    2660:	d100      	bne.n	2664 <io_printf+0xbc>
    2662:	e09b      	b.n	279c <io_printf+0x1f4>
    2664:	2973      	cmp	r1, #115	; 0x73
    2666:	d10a      	bne.n	267e <io_printf+0xd6>
    2668:	e00d      	b.n	2686 <io_printf+0xde>
    266a:	2978      	cmp	r1, #120	; 0x78
    266c:	d100      	bne.n	2670 <io_printf+0xc8>
    266e:	e0a6      	b.n	27be <io_printf+0x216>
    2670:	297a      	cmp	r1, #122	; 0x7a
    2672:	d104      	bne.n	267e <io_printf+0xd6>
    2674:	e0ce      	b.n	2814 <io_printf+0x26c>
    2676:	9b05      	ldr	r3, [sp, #20]
    2678:	6819      	ldr	r1, [r3, #0]
    267a:	1d1a      	adds	r2, r3, #4
    267c:	9205      	str	r2, [sp, #20]
    267e:	1c20      	adds	r0, r4, #0
    2680:	f7ff feb6 	bl	23f0 <io_put_char>
    2684:	e79f      	b.n	25c6 <io_printf+0x1e>
    2686:	9b05      	ldr	r3, [sp, #20]
    2688:	681e      	ldr	r6, [r3, #0]
    268a:	1d1a      	adds	r2, r3, #4
    268c:	1c33      	adds	r3, r6, #0
    268e:	9205      	str	r2, [sp, #20]
    2690:	781a      	ldrb	r2, [r3, #0]
    2692:	1b99      	subs	r1, r3, r6
    2694:	9103      	str	r1, [sp, #12]
    2696:	3301      	adds	r3, #1
    2698:	2a00      	cmp	r2, #0
    269a:	d1f9      	bne.n	2690 <io_printf+0xe8>
    269c:	e004      	b.n	26a8 <io_printf+0x100>
    269e:	1c20      	adds	r0, r4, #0
    26a0:	2120      	movs	r1, #32
    26a2:	f7ff fea5 	bl	23f0 <io_put_char>
    26a6:	3f01      	subs	r7, #1
    26a8:	9a03      	ldr	r2, [sp, #12]
    26aa:	4297      	cmp	r7, r2
    26ac:	dcf7      	bgt.n	269e <io_printf+0xf6>
    26ae:	e003      	b.n	26b8 <io_printf+0x110>
    26b0:	1c20      	adds	r0, r4, #0
    26b2:	3601      	adds	r6, #1
    26b4:	f7ff fe9c 	bl	23f0 <io_put_char>
    26b8:	7831      	ldrb	r1, [r6, #0]
    26ba:	2900      	cmp	r1, #0
    26bc:	d1f8      	bne.n	26b0 <io_printf+0x108>
    26be:	e782      	b.n	25c6 <io_printf+0x1e>
    26c0:	9b05      	ldr	r3, [sp, #20]
    26c2:	6819      	ldr	r1, [r3, #0]
    26c4:	1d1a      	adds	r2, r3, #4
    26c6:	2300      	movs	r3, #0
    26c8:	9205      	str	r2, [sp, #20]
    26ca:	9303      	str	r3, [sp, #12]
    26cc:	4299      	cmp	r1, r3
    26ce:	da02      	bge.n	26d6 <io_printf+0x12e>
    26d0:	202d      	movs	r0, #45	; 0x2d
    26d2:	4249      	negs	r1, r1
    26d4:	9003      	str	r0, [sp, #12]
    26d6:	2700      	movs	r7, #0
    26d8:	a806      	add	r0, sp, #24
    26da:	f7fd edfa 	blx	2d0 <sark_div10>
    26de:	9a07      	ldr	r2, [sp, #28]
    26e0:	9906      	ldr	r1, [sp, #24]
    26e2:	ab08      	add	r3, sp, #32
    26e4:	3230      	adds	r2, #48	; 0x30
    26e6:	54fa      	strb	r2, [r7, r3]
    26e8:	3701      	adds	r7, #1
    26ea:	2900      	cmp	r1, #0
    26ec:	d1f4      	bne.n	26d8 <io_printf+0x130>
    26ee:	e001      	b.n	26f4 <io_printf+0x14c>
    26f0:	2f00      	cmp	r7, #0
    26f2:	d003      	beq.n	26fc <io_printf+0x154>
    26f4:	3f01      	subs	r7, #1
    26f6:	5cfa      	ldrb	r2, [r7, r3]
    26f8:	2a30      	cmp	r2, #48	; 0x30
    26fa:	d0f9      	beq.n	26f0 <io_printf+0x148>
    26fc:	9903      	ldr	r1, [sp, #12]
    26fe:	2900      	cmp	r1, #0
    2700:	d007      	beq.n	2712 <io_printf+0x16a>
    2702:	3701      	adds	r7, #1
    2704:	55d9      	strb	r1, [r3, r7]
    2706:	e004      	b.n	2712 <io_printf+0x16a>
    2708:	1c20      	adds	r0, r4, #0
    270a:	2120      	movs	r1, #32
    270c:	f7ff fe70 	bl	23f0 <io_put_char>
    2710:	3e01      	subs	r6, #1
    2712:	1c7b      	adds	r3, r7, #1
    2714:	429e      	cmp	r6, r3
    2716:	d8f7      	bhi.n	2708 <io_printf+0x160>
    2718:	ab08      	add	r3, sp, #32
    271a:	5cf9      	ldrb	r1, [r7, r3]
    271c:	1c20      	adds	r0, r4, #0
    271e:	3f01      	subs	r7, #1
    2720:	f7ff fe66 	bl	23f0 <io_put_char>
    2724:	1c79      	adds	r1, r7, #1
    2726:	d1f7      	bne.n	2718 <io_printf+0x170>
    2728:	e74d      	b.n	25c6 <io_printf+0x1e>
    272a:	9b05      	ldr	r3, [sp, #20]
    272c:	2700      	movs	r7, #0
    272e:	6819      	ldr	r1, [r3, #0]
    2730:	1d1a      	adds	r2, r3, #4
    2732:	9205      	str	r2, [sp, #20]
    2734:	a806      	add	r0, sp, #24
    2736:	f7fd edcc 	blx	2d0 <sark_div10>
    273a:	9a07      	ldr	r2, [sp, #28]
    273c:	9906      	ldr	r1, [sp, #24]
    273e:	3230      	adds	r2, #48	; 0x30
    2740:	ab08      	add	r3, sp, #32
    2742:	54fa      	strb	r2, [r7, r3]
    2744:	3701      	adds	r7, #1
    2746:	2900      	cmp	r1, #0
    2748:	d1f4      	bne.n	2734 <io_printf+0x18c>
    274a:	e001      	b.n	2750 <io_printf+0x1a8>
    274c:	2f00      	cmp	r7, #0
    274e:	d00a      	beq.n	2766 <io_printf+0x1be>
    2750:	3f01      	subs	r7, #1
    2752:	ab08      	add	r3, sp, #32
    2754:	5cfb      	ldrb	r3, [r7, r3]
    2756:	2b30      	cmp	r3, #48	; 0x30
    2758:	d105      	bne.n	2766 <io_printf+0x1be>
    275a:	e7f7      	b.n	274c <io_printf+0x1a4>
    275c:	1c20      	adds	r0, r4, #0
    275e:	9903      	ldr	r1, [sp, #12]
    2760:	f7ff fe46 	bl	23f0 <io_put_char>
    2764:	3e01      	subs	r6, #1
    2766:	1c7b      	adds	r3, r7, #1
    2768:	429e      	cmp	r6, r3
    276a:	d8f7      	bhi.n	275c <io_printf+0x1b4>
    276c:	ab08      	add	r3, sp, #32
    276e:	5cf9      	ldrb	r1, [r7, r3]
    2770:	1c20      	adds	r0, r4, #0
    2772:	3f01      	subs	r7, #1
    2774:	f7ff fe3c 	bl	23f0 <io_put_char>
    2778:	1c7a      	adds	r2, r7, #1
    277a:	d1f7      	bne.n	276c <io_printf+0x1c4>
    277c:	e723      	b.n	25c6 <io_printf+0x1e>
    277e:	9a05      	ldr	r2, [sp, #20]
    2780:	9803      	ldr	r0, [sp, #12]
    2782:	1d11      	adds	r1, r2, #4
    2784:	9105      	str	r1, [sp, #20]
    2786:	6811      	ldr	r1, [r2, #0]
    2788:	9000      	str	r0, [sp, #0]
    278a:	e005      	b.n	2798 <io_printf+0x1f0>
    278c:	9a05      	ldr	r2, [sp, #20]
    278e:	1d11      	adds	r1, r2, #4
    2790:	9105      	str	r1, [sp, #20]
    2792:	6811      	ldr	r1, [r2, #0]
    2794:	9a03      	ldr	r2, [sp, #12]
    2796:	9200      	str	r2, [sp, #0]
    2798:	2200      	movs	r2, #0
    279a:	e00a      	b.n	27b2 <io_printf+0x20a>
    279c:	9a05      	ldr	r2, [sp, #20]
    279e:	1d11      	adds	r1, r2, #4
    27a0:	6812      	ldr	r2, [r2, #0]
    27a2:	9105      	str	r1, [sp, #20]
    27a4:	17d0      	asrs	r0, r2, #31
    27a6:	1811      	adds	r1, r2, r0
    27a8:	4041      	eors	r1, r0
    27aa:	0049      	lsls	r1, r1, #1
    27ac:	9803      	ldr	r0, [sp, #12]
    27ae:	0fd2      	lsrs	r2, r2, #31
    27b0:	9000      	str	r0, [sp, #0]
    27b2:	9201      	str	r2, [sp, #4]
    27b4:	1c20      	adds	r0, r4, #0
    27b6:	1c32      	adds	r2, r6, #0
    27b8:	f7ff fe94 	bl	24e4 <io_put_fixed>
    27bc:	e703      	b.n	25c6 <io_printf+0x1e>
    27be:	9b05      	ldr	r3, [sp, #20]
    27c0:	210f      	movs	r1, #15
    27c2:	1d1a      	adds	r2, r3, #4
    27c4:	4823      	ldr	r0, [pc, #140]	; (2854 <io_printf+0x2ac>)
    27c6:	681b      	ldr	r3, [r3, #0]
    27c8:	2700      	movs	r7, #0
    27ca:	468c      	mov	ip, r1
    27cc:	9205      	str	r2, [sp, #20]
    27ce:	4662      	mov	r2, ip
    27d0:	401a      	ands	r2, r3
    27d2:	5c81      	ldrb	r1, [r0, r2]
    27d4:	aa08      	add	r2, sp, #32
    27d6:	54b9      	strb	r1, [r7, r2]
    27d8:	091b      	lsrs	r3, r3, #4
    27da:	3701      	adds	r7, #1
    27dc:	2b00      	cmp	r3, #0
    27de:	d1f6      	bne.n	27ce <io_printf+0x226>
    27e0:	e001      	b.n	27e6 <io_printf+0x23e>
    27e2:	2f00      	cmp	r7, #0
    27e4:	d00a      	beq.n	27fc <io_printf+0x254>
    27e6:	3f01      	subs	r7, #1
    27e8:	ab08      	add	r3, sp, #32
    27ea:	5cfb      	ldrb	r3, [r7, r3]
    27ec:	2b30      	cmp	r3, #48	; 0x30
    27ee:	d105      	bne.n	27fc <io_printf+0x254>
    27f0:	e7f7      	b.n	27e2 <io_printf+0x23a>
    27f2:	1c20      	adds	r0, r4, #0
    27f4:	9903      	ldr	r1, [sp, #12]
    27f6:	f7ff fdfb 	bl	23f0 <io_put_char>
    27fa:	3e01      	subs	r6, #1
    27fc:	1c7b      	adds	r3, r7, #1
    27fe:	429e      	cmp	r6, r3
    2800:	d8f7      	bhi.n	27f2 <io_printf+0x24a>
    2802:	ab08      	add	r3, sp, #32
    2804:	5cf9      	ldrb	r1, [r7, r3]
    2806:	1c20      	adds	r0, r4, #0
    2808:	3f01      	subs	r7, #1
    280a:	f7ff fdf1 	bl	23f0 <io_put_char>
    280e:	1c7a      	adds	r2, r7, #1
    2810:	d1f7      	bne.n	2802 <io_printf+0x25a>
    2812:	e6d8      	b.n	25c6 <io_printf+0x1e>
    2814:	9b05      	ldr	r3, [sp, #20]
    2816:	1e77      	subs	r7, r6, #1
    2818:	1d1a      	adds	r2, r3, #4
    281a:	681b      	ldr	r3, [r3, #0]
    281c:	9303      	str	r3, [sp, #12]
    281e:	4b0e      	ldr	r3, [pc, #56]	; (2858 <io_printf+0x2b0>)
    2820:	9205      	str	r2, [sp, #20]
    2822:	18f6      	adds	r6, r6, r3
    2824:	00b6      	lsls	r6, r6, #2
    2826:	e00a      	b.n	283e <io_printf+0x296>
    2828:	9a03      	ldr	r2, [sp, #12]
    282a:	230f      	movs	r3, #15
    282c:	40f2      	lsrs	r2, r6
    282e:	4013      	ands	r3, r2
    2830:	4a08      	ldr	r2, [pc, #32]	; (2854 <io_printf+0x2ac>)
    2832:	1c20      	adds	r0, r4, #0
    2834:	5cd1      	ldrb	r1, [r2, r3]
    2836:	f7ff fddb 	bl	23f0 <io_put_char>
    283a:	3f01      	subs	r7, #1
    283c:	3e04      	subs	r6, #4
    283e:	2f00      	cmp	r7, #0
    2840:	daf2      	bge.n	2828 <io_printf+0x280>
    2842:	e6c0      	b.n	25c6 <io_printf+0x1e>
    2844:	b00c      	add	sp, #48	; 0x30
    2846:	bcf0      	pop	{r4, r5, r6, r7}
    2848:	bc08      	pop	{r3}
    284a:	b003      	add	sp, #12
    284c:	4718      	bx	r3
    284e:	46c0      	nop			; (mov r8, r8)
    2850:	004005b0 	.word	0x004005b0
    2854:	00006133 	.word	0x00006133
    2858:	3fffffff 	.word	0x3fffffff

0000285c <configure_dma_controller>:
    285c:	4b06      	ldr	r3, [pc, #24]	; (2878 <configure_dma_controller+0x1c>)
    285e:	223f      	movs	r2, #63	; 0x3f
    2860:	601a      	str	r2, [r3, #0]
    2862:	220d      	movs	r2, #13
    2864:	601a      	str	r2, [r3, #0]
    2866:	4b05      	ldr	r3, [pc, #20]	; (287c <configure_dma_controller+0x20>)
    2868:	22c0      	movs	r2, #192	; 0xc0
    286a:	0112      	lsls	r2, r2, #4
    286c:	601a      	str	r2, [r3, #0]
    286e:	4b04      	ldr	r3, [pc, #16]	; (2880 <configure_dma_controller+0x24>)
    2870:	2203      	movs	r2, #3
    2872:	601a      	str	r2, [r3, #0]
    2874:	4770      	bx	lr
    2876:	46c0      	nop			; (mov r8, r8)
    2878:	40000010 	.word	0x40000010
    287c:	40000018 	.word	0x40000018
    2880:	40000028 	.word	0x40000028

00002884 <configure_timer1>:
    2884:	4b07      	ldr	r3, [pc, #28]	; (28a4 <configure_timer1+0x20>)
    2886:	2200      	movs	r2, #0
    2888:	601a      	str	r2, [r3, #0]
    288a:	4b07      	ldr	r3, [pc, #28]	; (28a8 <configure_timer1+0x24>)
    288c:	2201      	movs	r2, #1
    288e:	601a      	str	r2, [r3, #0]
    2890:	4b06      	ldr	r3, [pc, #24]	; (28ac <configure_timer1+0x28>)
    2892:	8c9b      	ldrh	r3, [r3, #36]	; 0x24
    2894:	4358      	muls	r0, r3
    2896:	2384      	movs	r3, #132	; 0x84
    2898:	059b      	lsls	r3, r3, #22
    289a:	6018      	str	r0, [r3, #0]
    289c:	4b04      	ldr	r3, [pc, #16]	; (28b0 <configure_timer1+0x2c>)
    289e:	6018      	str	r0, [r3, #0]
    28a0:	4770      	bx	lr
    28a2:	46c0      	nop			; (mov r8, r8)
    28a4:	21000008 	.word	0x21000008
    28a8:	2100000c 	.word	0x2100000c
    28ac:	e5007f00 	.word	0xe5007f00
    28b0:	21000018 	.word	0x21000018

000028b4 <configure_vic>:
    28b4:	4b2c      	ldr	r3, [pc, #176]	; (2968 <configure_vic+0xb4>)
    28b6:	4a2d      	ldr	r2, [pc, #180]	; (296c <configure_vic+0xb8>)
    28b8:	b510      	push	{r4, lr}
    28ba:	601a      	str	r2, [r3, #0]
    28bc:	4a2c      	ldr	r2, [pc, #176]	; (2970 <configure_vic+0xbc>)
    28be:	2320      	movs	r3, #32
    28c0:	69d9      	ldr	r1, [r3, #28]
    28c2:	6011      	str	r1, [r2, #0]
    28c4:	492b      	ldr	r1, [pc, #172]	; (2974 <configure_vic+0xc0>)
    28c6:	4a2c      	ldr	r2, [pc, #176]	; (2978 <configure_vic+0xc4>)
    28c8:	6808      	ldr	r0, [r1, #0]
    28ca:	6010      	str	r0, [r2, #0]
    28cc:	4a2b      	ldr	r2, [pc, #172]	; (297c <configure_vic+0xc8>)
    28ce:	482c      	ldr	r0, [pc, #176]	; (2980 <configure_vic+0xcc>)
    28d0:	6814      	ldr	r4, [r2, #0]
    28d2:	6004      	str	r4, [r0, #0]
    28d4:	482b      	ldr	r0, [pc, #172]	; (2984 <configure_vic+0xd0>)
    28d6:	6800      	ldr	r0, [r0, #0]
    28d8:	2805      	cmp	r0, #5
    28da:	d815      	bhi.n	2908 <configure_vic+0x54>
    28dc:	f7fd fd42 	bl	364 <__gnu_thumb1_case_uqi>
    28e0:	140c0703 	.word	0x140c0703
    28e4:	0310      	.short	0x0310
    28e6:	4828      	ldr	r0, [pc, #160]	; (2988 <configure_vic+0xd4>)
    28e8:	61d8      	str	r0, [r3, #28]
    28ea:	2340      	movs	r3, #64	; 0x40
    28ec:	e00d      	b.n	290a <configure_vic+0x56>
    28ee:	4827      	ldr	r0, [pc, #156]	; (298c <configure_vic+0xd8>)
    28f0:	61d8      	str	r0, [r3, #28]
    28f2:	2380      	movs	r3, #128	; 0x80
    28f4:	015b      	lsls	r3, r3, #5
    28f6:	e008      	b.n	290a <configure_vic+0x56>
    28f8:	4825      	ldr	r0, [pc, #148]	; (2990 <configure_vic+0xdc>)
    28fa:	61d8      	str	r0, [r3, #28]
    28fc:	2310      	movs	r3, #16
    28fe:	e004      	b.n	290a <configure_vic+0x56>
    2900:	4824      	ldr	r0, [pc, #144]	; (2994 <configure_vic+0xe0>)
    2902:	61d8      	str	r0, [r3, #28]
    2904:	2302      	movs	r3, #2
    2906:	e000      	b.n	290a <configure_vic+0x56>
    2908:	2300      	movs	r3, #0
    290a:	2059      	movs	r0, #89	; 0x59
    290c:	7800      	ldrb	r0, [r0, #0]
    290e:	4c22      	ldr	r4, [pc, #136]	; (2998 <configure_vic+0xe4>)
    2910:	0080      	lsls	r0, r0, #2
    2912:	1900      	adds	r0, r0, r4
    2914:	2400      	movs	r4, #0
    2916:	6004      	str	r4, [r0, #0]
    2918:	4820      	ldr	r0, [pc, #128]	; (299c <configure_vic+0xe8>)
    291a:	4c21      	ldr	r4, [pc, #132]	; (29a0 <configure_vic+0xec>)
    291c:	6004      	str	r4, [r0, #0]
    291e:	481e      	ldr	r0, [pc, #120]	; (2998 <configure_vic+0xe4>)
    2920:	2432      	movs	r4, #50	; 0x32
    2922:	6004      	str	r4, [r0, #0]
    2924:	481f      	ldr	r0, [pc, #124]	; (29a4 <configure_vic+0xf0>)
    2926:	4c20      	ldr	r4, [pc, #128]	; (29a8 <configure_vic+0xf4>)
    2928:	6004      	str	r4, [r0, #0]
    292a:	4820      	ldr	r0, [pc, #128]	; (29ac <configure_vic+0xf8>)
    292c:	2426      	movs	r4, #38	; 0x26
    292e:	6004      	str	r4, [r0, #0]
    2930:	481f      	ldr	r0, [pc, #124]	; (29b0 <configure_vic+0xfc>)
    2932:	4c20      	ldr	r4, [pc, #128]	; (29b4 <configure_vic+0x100>)
    2934:	6004      	str	r4, [r0, #0]
    2936:	4820      	ldr	r0, [pc, #128]	; (29b8 <configure_vic+0x104>)
    2938:	242c      	movs	r4, #44	; 0x2c
    293a:	6004      	str	r4, [r0, #0]
    293c:	481f      	ldr	r0, [pc, #124]	; (29bc <configure_vic+0x108>)
    293e:	4c20      	ldr	r4, [pc, #128]	; (29c0 <configure_vic+0x10c>)
    2940:	6004      	str	r4, [r0, #0]
    2942:	4820      	ldr	r0, [pc, #128]	; (29c4 <configure_vic+0x110>)
    2944:	2424      	movs	r4, #36	; 0x24
    2946:	6004      	str	r4, [r0, #0]
    2948:	481f      	ldr	r0, [pc, #124]	; (29c8 <configure_vic+0x114>)
    294a:	4c20      	ldr	r4, [pc, #128]	; (29cc <configure_vic+0x118>)
    294c:	6004      	str	r4, [r0, #0]
    294e:	4820      	ldr	r0, [pc, #128]	; (29d0 <configure_vic+0x11c>)
    2950:	242b      	movs	r4, #43	; 0x2b
    2952:	6004      	str	r4, [r0, #0]
    2954:	481f      	ldr	r0, [pc, #124]	; (29d4 <configure_vic+0x120>)
    2956:	4c20      	ldr	r4, [pc, #128]	; (29d8 <configure_vic+0x124>)
    2958:	6004      	str	r4, [r0, #0]
    295a:	4820      	ldr	r0, [pc, #128]	; (29dc <configure_vic+0x128>)
    295c:	2421      	movs	r4, #33	; 0x21
    295e:	6004      	str	r4, [r0, #0]
    2960:	600b      	str	r3, [r1, #0]
    2962:	4b1f      	ldr	r3, [pc, #124]	; (29e0 <configure_vic+0x12c>)
    2964:	6013      	str	r3, [r2, #0]
    2966:	bd10      	pop	{r4, pc}
    2968:	2f000014 	.word	0x2f000014
    296c:	00003052 	.word	0x00003052
    2970:	004009cc 	.word	0x004009cc
    2974:	2f00000c 	.word	0x2f00000c
    2978:	00400b54 	.word	0x00400b54
    297c:	2f000010 	.word	0x2f000010
    2980:	004009fc 	.word	0x004009fc
    2984:	00400040 	.word	0x00400040
    2988:	00002f58 	.word	0x00002f58
    298c:	000030a8 	.word	0x000030a8
    2990:	00003178 	.word	0x00003178
    2994:	00003220 	.word	0x00003220
    2998:	2f000200 	.word	0x2f000200
    299c:	2f000100 	.word	0x2f000100
    29a0:	00000300 	.word	0x00000300
    29a4:	2f00010c 	.word	0x2f00010c
    29a8:	00002ee0 	.word	0x00002ee0
    29ac:	2f00020c 	.word	0x2f00020c
    29b0:	2f000108 	.word	0x2f000108
    29b4:	0000301c 	.word	0x0000301c
    29b8:	2f000208 	.word	0x2f000208
    29bc:	2f000104 	.word	0x2f000104
    29c0:	00003120 	.word	0x00003120
    29c4:	2f000204 	.word	0x2f000204
    29c8:	2f000110 	.word	0x2f000110
    29cc:	00002f90 	.word	0x00002f90
    29d0:	2f000210 	.word	0x2f000210
    29d4:	2f000114 	.word	0x2f000114
    29d8:	000031b8 	.word	0x000031b8
    29dc:	2f000214 	.word	0x2f000214
    29e0:	00001052 	.word	0x00001052

000029e4 <dispatch>:
    29e4:	b573      	push	{r0, r1, r4, r5, r6, lr}
    29e6:	e031      	b.n	2a4c <dispatch+0x68>
    29e8:	22c8      	movs	r2, #200	; 0xc8
    29ea:	435a      	muls	r2, r3
    29ec:	491a      	ldr	r1, [pc, #104]	; (2a58 <dispatch+0x74>)
    29ee:	3301      	adds	r3, #1
    29f0:	188a      	adds	r2, r1, r2
    29f2:	6811      	ldr	r1, [r2, #0]
    29f4:	6850      	ldr	r0, [r2, #4]
    29f6:	4281      	cmp	r1, r0
    29f8:	d018      	beq.n	2a2c <dispatch+0x48>
    29fa:	200c      	movs	r0, #12
    29fc:	4348      	muls	r0, r1
    29fe:	3101      	adds	r1, #1
    2a00:	1810      	adds	r0, r2, r0
    2a02:	6885      	ldr	r5, [r0, #8]
    2a04:	9501      	str	r5, [sp, #4]
    2a06:	68c6      	ldr	r6, [r0, #12]
    2a08:	6905      	ldr	r5, [r0, #16]
    2a0a:	200f      	movs	r0, #15
    2a0c:	4001      	ands	r1, r0
    2a0e:	6011      	str	r1, [r2, #0]
    2a10:	9a01      	ldr	r2, [sp, #4]
    2a12:	2a00      	cmp	r2, #0
    2a14:	d00a      	beq.n	2a2c <dispatch+0x48>
    2a16:	1c20      	adds	r0, r4, #0
    2a18:	f7fd ebde 	blx	1d8 <cpu_int_restore>
    2a1c:	9b01      	ldr	r3, [sp, #4]
    2a1e:	1c30      	adds	r0, r6, #0
    2a20:	1c29      	adds	r1, r5, #0
    2a22:	4798      	blx	r3
    2a24:	f7fd ebd0 	blx	1c8 <cpu_int_disable>
    2a28:	2300      	movs	r3, #0
    2a2a:	1c04      	adds	r4, r0, #0
    2a2c:	4a0b      	ldr	r2, [pc, #44]	; (2a5c <dispatch+0x78>)
    2a2e:	6811      	ldr	r1, [r2, #0]
    2a30:	2900      	cmp	r1, #0
    2a32:	d103      	bne.n	2a3c <dispatch+0x58>
    2a34:	6813      	ldr	r3, [r2, #0]
    2a36:	2b00      	cmp	r3, #0
    2a38:	d008      	beq.n	2a4c <dispatch+0x68>
    2a3a:	e002      	b.n	2a42 <dispatch+0x5e>
    2a3c:	2b03      	cmp	r3, #3
    2a3e:	d9d3      	bls.n	29e8 <dispatch+0x4>
    2a40:	e7f8      	b.n	2a34 <dispatch+0x50>
    2a42:	f7fd ebce 	blx	1e0 <cpu_wfi>
    2a46:	1c20      	adds	r0, r4, #0
    2a48:	f7fd ebc6 	blx	1d8 <cpu_int_restore>
    2a4c:	4b03      	ldr	r3, [pc, #12]	; (2a5c <dispatch+0x78>)
    2a4e:	681b      	ldr	r3, [r3, #0]
    2a50:	2b00      	cmp	r3, #0
    2a52:	d1e7      	bne.n	2a24 <dispatch+0x40>
    2a54:	bd73      	pop	{r0, r1, r4, r5, r6, pc}
    2a56:	46c0      	nop			; (mov r8, r8)
    2a58:	004005d0 	.word	0x004005d0
    2a5c:	004008f0 	.word	0x004008f0

00002a60 <spin1_callback_on>:
    2a60:	b538      	push	{r3, r4, r5, lr}
    2a62:	1c14      	adds	r4, r2, #0
    2a64:	4a11      	ldr	r2, [pc, #68]	; (2aac <spin1_callback_on+0x4c>)
    2a66:	00c3      	lsls	r3, r0, #3
    2a68:	5099      	str	r1, [r3, r2]
    2a6a:	18d3      	adds	r3, r2, r3
    2a6c:	1c05      	adds	r5, r0, #0
    2a6e:	605c      	str	r4, [r3, #4]
    2a70:	2c00      	cmp	r4, #0
    2a72:	da08      	bge.n	2a86 <spin1_callback_on+0x26>
    2a74:	4b0e      	ldr	r3, [pc, #56]	; (2ab0 <spin1_callback_on+0x50>)
    2a76:	6819      	ldr	r1, [r3, #0]
    2a78:	3101      	adds	r1, #1
    2a7a:	d101      	bne.n	2a80 <spin1_callback_on+0x20>
    2a7c:	6018      	str	r0, [r3, #0]
    2a7e:	e002      	b.n	2a86 <spin1_callback_on+0x26>
    2a80:	2013      	movs	r0, #19
    2a82:	f7fd fb53 	bl	12c <rt_error>
    2a86:	2d05      	cmp	r5, #5
    2a88:	d001      	beq.n	2a8e <spin1_callback_on+0x2e>
    2a8a:	2d00      	cmp	r5, #0
    2a8c:	d10c      	bne.n	2aa8 <spin1_callback_on+0x48>
    2a8e:	4a09      	ldr	r2, [pc, #36]	; (2ab4 <spin1_callback_on+0x54>)
    2a90:	6813      	ldr	r3, [r2, #0]
    2a92:	1c99      	adds	r1, r3, #2
    2a94:	d101      	bne.n	2a9a <spin1_callback_on+0x3a>
    2a96:	6014      	str	r4, [r2, #0]
    2a98:	e006      	b.n	2aa8 <spin1_callback_on+0x48>
    2a9a:	3301      	adds	r3, #1
    2a9c:	d104      	bne.n	2aa8 <spin1_callback_on+0x48>
    2a9e:	3401      	adds	r4, #1
    2aa0:	d002      	beq.n	2aa8 <spin1_callback_on+0x48>
    2aa2:	2013      	movs	r0, #19
    2aa4:	f7fd fb42 	bl	12c <rt_error>
    2aa8:	bd38      	pop	{r3, r4, r5, pc}
    2aaa:	46c0      	nop			; (mov r8, r8)
    2aac:	00400b60 	.word	0x00400b60
    2ab0:	00400040 	.word	0x00400040
    2ab4:	0040003c 	.word	0x0040003c

00002ab8 <spin1_callback_off>:
    2ab8:	4b06      	ldr	r3, [pc, #24]	; (2ad4 <spin1_callback_off+0x1c>)
    2aba:	00c0      	lsls	r0, r0, #3
    2abc:	2200      	movs	r2, #0
    2abe:	b500      	push	{lr}
    2ac0:	50c2      	str	r2, [r0, r3]
    2ac2:	1818      	adds	r0, r3, r0
    2ac4:	6843      	ldr	r3, [r0, #4]
    2ac6:	4293      	cmp	r3, r2
    2ac8:	da03      	bge.n	2ad2 <spin1_callback_off+0x1a>
    2aca:	2201      	movs	r2, #1
    2acc:	4b02      	ldr	r3, [pc, #8]	; (2ad8 <spin1_callback_off+0x20>)
    2ace:	4252      	negs	r2, r2
    2ad0:	601a      	str	r2, [r3, #0]
    2ad2:	bd00      	pop	{pc}
    2ad4:	00400b60 	.word	0x00400b60
    2ad8:	00400040 	.word	0x00400040

00002adc <spin1_exit>:
    2adc:	4b04      	ldr	r3, [pc, #16]	; (2af0 <spin1_exit+0x14>)
    2ade:	4a05      	ldr	r2, [pc, #20]	; (2af4 <spin1_exit+0x18>)
    2ae0:	601a      	str	r2, [r3, #0]
    2ae2:	4b05      	ldr	r3, [pc, #20]	; (2af8 <spin1_exit+0x1c>)
    2ae4:	2200      	movs	r2, #0
    2ae6:	601a      	str	r2, [r3, #0]
    2ae8:	4b04      	ldr	r3, [pc, #16]	; (2afc <spin1_exit+0x20>)
    2aea:	6018      	str	r0, [r3, #0]
    2aec:	4770      	bx	lr
    2aee:	46c0      	nop			; (mov r8, r8)
    2af0:	2f000014 	.word	0x2f000014
    2af4:	00003052 	.word	0x00003052
    2af8:	004008f0 	.word	0x004008f0
    2afc:	004005cc 	.word	0x004005cc

00002b00 <spin1_set_timer_tick>:
    2b00:	4b01      	ldr	r3, [pc, #4]	; (2b08 <spin1_set_timer_tick+0x8>)
    2b02:	6018      	str	r0, [r3, #0]
    2b04:	4770      	bx	lr
    2b06:	46c0      	nop			; (mov r8, r8)
    2b08:	004005bc 	.word	0x004005bc

00002b0c <clean_up>:
    2b0c:	b508      	push	{r3, lr}
    2b0e:	f7fd eb5c 	blx	1c8 <cpu_int_disable>
    2b12:	4b10      	ldr	r3, [pc, #64]	; (2b54 <clean_up+0x48>)
    2b14:	681a      	ldr	r2, [r3, #0]
    2b16:	2320      	movs	r3, #32
    2b18:	61da      	str	r2, [r3, #28]
    2b1a:	4b0f      	ldr	r3, [pc, #60]	; (2b58 <clean_up+0x4c>)
    2b1c:	681a      	ldr	r2, [r3, #0]
    2b1e:	4b0f      	ldr	r3, [pc, #60]	; (2b5c <clean_up+0x50>)
    2b20:	601a      	str	r2, [r3, #0]
    2b22:	4b0f      	ldr	r3, [pc, #60]	; (2b60 <clean_up+0x54>)
    2b24:	681a      	ldr	r2, [r3, #0]
    2b26:	4b0f      	ldr	r3, [pc, #60]	; (2b64 <clean_up+0x58>)
    2b28:	601a      	str	r2, [r3, #0]
    2b2a:	2359      	movs	r3, #89	; 0x59
    2b2c:	781b      	ldrb	r3, [r3, #0]
    2b2e:	4a0e      	ldr	r2, [pc, #56]	; (2b68 <clean_up+0x5c>)
    2b30:	009b      	lsls	r3, r3, #2
    2b32:	189b      	adds	r3, r3, r2
    2b34:	2232      	movs	r2, #50	; 0x32
    2b36:	601a      	str	r2, [r3, #0]
    2b38:	4b0c      	ldr	r3, [pc, #48]	; (2b6c <clean_up+0x60>)
    2b3a:	2201      	movs	r2, #1
    2b3c:	601a      	str	r2, [r3, #0]
    2b3e:	4b0c      	ldr	r3, [pc, #48]	; (2b70 <clean_up+0x64>)
    2b40:	2200      	movs	r2, #0
    2b42:	601a      	str	r2, [r3, #0]
    2b44:	4b0b      	ldr	r3, [pc, #44]	; (2b74 <clean_up+0x68>)
    2b46:	223f      	movs	r2, #63	; 0x3f
    2b48:	601a      	str	r2, [r3, #0]
    2b4a:	220d      	movs	r2, #13
    2b4c:	601a      	str	r2, [r3, #0]
    2b4e:	f7fd eb44 	blx	1d8 <cpu_int_restore>
    2b52:	bd08      	pop	{r3, pc}
    2b54:	004009cc 	.word	0x004009cc
    2b58:	00400b54 	.word	0x00400b54
    2b5c:	2f00000c 	.word	0x2f00000c
    2b60:	004009fc 	.word	0x004009fc
    2b64:	2f000010 	.word	0x2f000010
    2b68:	2f000200 	.word	0x2f000200
    2b6c:	2100000c 	.word	0x2100000c
    2b70:	40000018 	.word	0x40000018
    2b74:	40000010 	.word	0x40000010

00002b78 <report_debug>:
    2b78:	b508      	push	{r3, lr}
    2b7a:	4b10      	ldr	r3, [pc, #64]	; (2bbc <report_debug+0x44>)
    2b7c:	781b      	ldrb	r3, [r3, #0]
    2b7e:	2b00      	cmp	r3, #0
    2b80:	d00e      	beq.n	2ba0 <report_debug+0x28>
    2b82:	4b0f      	ldr	r3, [pc, #60]	; (2bc0 <report_debug+0x48>)
    2b84:	4a0f      	ldr	r2, [pc, #60]	; (2bc4 <report_debug+0x4c>)
    2b86:	681b      	ldr	r3, [r3, #0]
    2b88:	6812      	ldr	r2, [r2, #0]
    2b8a:	2002      	movs	r0, #2
    2b8c:	18d2      	adds	r2, r2, r3
    2b8e:	490e      	ldr	r1, [pc, #56]	; (2bc8 <report_debug+0x50>)
    2b90:	f7ff fd0a 	bl	25a8 <io_printf>
    2b94:	4b0d      	ldr	r3, [pc, #52]	; (2bcc <report_debug+0x54>)
    2b96:	2002      	movs	r0, #2
    2b98:	681a      	ldr	r2, [r3, #0]
    2b9a:	490d      	ldr	r1, [pc, #52]	; (2bd0 <report_debug+0x58>)
    2b9c:	f7ff fd04 	bl	25a8 <io_printf>
    2ba0:	4b0c      	ldr	r3, [pc, #48]	; (2bd4 <report_debug+0x5c>)
    2ba2:	2002      	movs	r0, #2
    2ba4:	681a      	ldr	r2, [r3, #0]
    2ba6:	490c      	ldr	r1, [pc, #48]	; (2bd8 <report_debug+0x60>)
    2ba8:	f7ff fcfe 	bl	25a8 <io_printf>
    2bac:	4b0b      	ldr	r3, [pc, #44]	; (2bdc <report_debug+0x64>)
    2bae:	2002      	movs	r0, #2
    2bb0:	681a      	ldr	r2, [r3, #0]
    2bb2:	490b      	ldr	r1, [pc, #44]	; (2be0 <report_debug+0x68>)
    2bb4:	f7ff fcf8 	bl	25a8 <io_printf>
    2bb8:	bd08      	pop	{r3, pc}
    2bba:	46c0      	nop			; (mov r8, r8)
    2bbc:	00400a04 	.word	0x00400a04
    2bc0:	e1000300 	.word	0xe1000300
    2bc4:	e1000304 	.word	0xe1000304
    2bc8:	00006144 	.word	0x00006144
    2bcc:	e1000320 	.word	0xe1000320
    2bd0:	0000616a 	.word	0x0000616a
    2bd4:	00400a08 	.word	0x00400a08
    2bd8:	00006190 	.word	0x00006190
    2bdc:	40000040 	.word	0x40000040
    2be0:	000061b6 	.word	0x000061b6

00002be4 <report_warns>:
    2be4:	4b0f      	ldr	r3, [pc, #60]	; (2c24 <report_warns+0x40>)
    2be6:	b510      	push	{r4, lr}
    2be8:	681a      	ldr	r2, [r3, #0]
    2bea:	1c1c      	adds	r4, r3, #0
    2bec:	07d3      	lsls	r3, r2, #31
    2bee:	d505      	bpl.n	2bfc <report_warns+0x18>
    2bf0:	4b0d      	ldr	r3, [pc, #52]	; (2c28 <report_warns+0x44>)
    2bf2:	2002      	movs	r0, #2
    2bf4:	681a      	ldr	r2, [r3, #0]
    2bf6:	490d      	ldr	r1, [pc, #52]	; (2c2c <report_warns+0x48>)
    2bf8:	f7ff fcd6 	bl	25a8 <io_printf>
    2bfc:	6823      	ldr	r3, [r4, #0]
    2bfe:	2002      	movs	r0, #2
    2c00:	4203      	tst	r3, r0
    2c02:	d004      	beq.n	2c0e <report_warns+0x2a>
    2c04:	4b0a      	ldr	r3, [pc, #40]	; (2c30 <report_warns+0x4c>)
    2c06:	490b      	ldr	r1, [pc, #44]	; (2c34 <report_warns+0x50>)
    2c08:	681a      	ldr	r2, [r3, #0]
    2c0a:	f7ff fccd 	bl	25a8 <io_printf>
    2c0e:	4b05      	ldr	r3, [pc, #20]	; (2c24 <report_warns+0x40>)
    2c10:	681b      	ldr	r3, [r3, #0]
    2c12:	075a      	lsls	r2, r3, #29
    2c14:	d505      	bpl.n	2c22 <report_warns+0x3e>
    2c16:	4b08      	ldr	r3, [pc, #32]	; (2c38 <report_warns+0x54>)
    2c18:	2002      	movs	r0, #2
    2c1a:	681a      	ldr	r2, [r3, #0]
    2c1c:	4907      	ldr	r1, [pc, #28]	; (2c3c <report_warns+0x58>)
    2c1e:	f7ff fcc3 	bl	25a8 <io_printf>
    2c22:	bd10      	pop	{r4, pc}
    2c24:	004005b4 	.word	0x004005b4
    2c28:	004005b8 	.word	0x004005b8
    2c2c:	000061d5 	.word	0x000061d5
    2c30:	004005c4 	.word	0x004005c4
    2c34:	00006201 	.word	0x00006201
    2c38:	004005c0 	.word	0x004005c0
    2c3c:	0000622c 	.word	0x0000622c

00002c40 <spin1_start>:
    2c40:	b570      	push	{r4, r5, r6, lr}
    2c42:	1c06      	adds	r6, r0, #0
    2c44:	2007      	movs	r0, #7
    2c46:	f7fe fe7d 	bl	1944 <sark_cpu_state>
    2c4a:	2380      	movs	r3, #128	; 0x80
    2c4c:	2400      	movs	r4, #0
    2c4e:	059b      	lsls	r3, r3, #22
    2c50:	601c      	str	r4, [r3, #0]
    2c52:	f7ff fe03 	bl	285c <configure_dma_controller>
    2c56:	4d26      	ldr	r5, [pc, #152]	; (2cf0 <spin1_start+0xb0>)
    2c58:	6828      	ldr	r0, [r5, #0]
    2c5a:	f7ff fe13 	bl	2884 <configure_timer1>
    2c5e:	f7ff fe29 	bl	28b4 <configure_vic>
    2c62:	4b24      	ldr	r3, [pc, #144]	; (2cf4 <spin1_start+0xb4>)
    2c64:	601c      	str	r4, [r3, #0]
    2c66:	4b24      	ldr	r3, [pc, #144]	; (2cf8 <spin1_start+0xb8>)
    2c68:	601c      	str	r4, [r3, #0]
    2c6a:	4b24      	ldr	r3, [pc, #144]	; (2cfc <spin1_start+0xbc>)
    2c6c:	601c      	str	r4, [r3, #0]
    2c6e:	4b24      	ldr	r3, [pc, #144]	; (2d00 <spin1_start+0xc0>)
    2c70:	601c      	str	r4, [r3, #0]
    2c72:	2e01      	cmp	r6, #1
    2c74:	d101      	bne.n	2c7a <spin1_start+0x3a>
    2c76:	f7ff f901 	bl	1e7c <event_wait>
    2c7a:	682b      	ldr	r3, [r5, #0]
    2c7c:	2b00      	cmp	r3, #0
    2c7e:	d002      	beq.n	2c86 <spin1_start+0x46>
    2c80:	4b20      	ldr	r3, [pc, #128]	; (2d04 <spin1_start+0xc4>)
    2c82:	22e2      	movs	r2, #226	; 0xe2
    2c84:	601a      	str	r2, [r3, #0]
    2c86:	4b20      	ldr	r3, [pc, #128]	; (2d08 <spin1_start+0xc8>)
    2c88:	2200      	movs	r2, #0
    2c8a:	601a      	str	r2, [r3, #0]
    2c8c:	4b1f      	ldr	r3, [pc, #124]	; (2d0c <spin1_start+0xcc>)
    2c8e:	2201      	movs	r2, #1
    2c90:	601a      	str	r2, [r3, #0]
    2c92:	f7ff fea7 	bl	29e4 <dispatch>
    2c96:	f7ff ff39 	bl	2b0c <clean_up>
    2c9a:	f7fd ea8e 	blx	1b8 <cpu_int_enable>
    2c9e:	4c1c      	ldr	r4, [pc, #112]	; (2d10 <spin1_start+0xd0>)
    2ca0:	4b1c      	ldr	r3, [pc, #112]	; (2d14 <spin1_start+0xd4>)
    2ca2:	6822      	ldr	r2, [r4, #0]
    2ca4:	601a      	str	r2, [r3, #0]
    2ca6:	4a13      	ldr	r2, [pc, #76]	; (2cf4 <spin1_start+0xb4>)
    2ca8:	491b      	ldr	r1, [pc, #108]	; (2d18 <spin1_start+0xd8>)
    2caa:	6812      	ldr	r2, [r2, #0]
    2cac:	605a      	str	r2, [r3, #4]
    2cae:	4a1b      	ldr	r2, [pc, #108]	; (2d1c <spin1_start+0xdc>)
    2cb0:	6812      	ldr	r2, [r2, #0]
    2cb2:	6809      	ldr	r1, [r1, #0]
    2cb4:	188a      	adds	r2, r1, r2
    2cb6:	609a      	str	r2, [r3, #8]
    2cb8:	4a19      	ldr	r2, [pc, #100]	; (2d20 <spin1_start+0xe0>)
    2cba:	6812      	ldr	r2, [r2, #0]
    2cbc:	60da      	str	r2, [r3, #12]
    2cbe:	4a19      	ldr	r2, [pc, #100]	; (2d24 <spin1_start+0xe4>)
    2cc0:	6812      	ldr	r2, [r2, #0]
    2cc2:	611a      	str	r2, [r3, #16]
    2cc4:	4a18      	ldr	r2, [pc, #96]	; (2d28 <spin1_start+0xe8>)
    2cc6:	6812      	ldr	r2, [r2, #0]
    2cc8:	3a01      	subs	r2, #1
    2cca:	615a      	str	r2, [r3, #20]
    2ccc:	4a17      	ldr	r2, [pc, #92]	; (2d2c <spin1_start+0xec>)
    2cce:	6812      	ldr	r2, [r2, #0]
    2cd0:	619a      	str	r2, [r3, #24]
    2cd2:	4a09      	ldr	r2, [pc, #36]	; (2cf8 <spin1_start+0xb8>)
    2cd4:	6812      	ldr	r2, [r2, #0]
    2cd6:	61da      	str	r2, [r3, #28]
    2cd8:	4a08      	ldr	r2, [pc, #32]	; (2cfc <spin1_start+0xbc>)
    2cda:	6812      	ldr	r2, [r2, #0]
    2cdc:	621a      	str	r2, [r3, #32]
    2cde:	4a08      	ldr	r2, [pc, #32]	; (2d00 <spin1_start+0xc0>)
    2ce0:	6812      	ldr	r2, [r2, #0]
    2ce2:	625a      	str	r2, [r3, #36]	; 0x24
    2ce4:	f7ff ff48 	bl	2b78 <report_debug>
    2ce8:	f7ff ff7c 	bl	2be4 <report_warns>
    2cec:	6820      	ldr	r0, [r4, #0]
    2cee:	bd70      	pop	{r4, r5, r6, pc}
    2cf0:	004005bc 	.word	0x004005bc
    2cf4:	004005b4 	.word	0x004005b4
    2cf8:	004005c4 	.word	0x004005c4
    2cfc:	004005b8 	.word	0x004005b8
    2d00:	004005c0 	.word	0x004005c0
    2d04:	21000008 	.word	0x21000008
    2d08:	00400b58 	.word	0x00400b58
    2d0c:	004008f0 	.word	0x004008f0
    2d10:	004005cc 	.word	0x004005cc
    2d14:	004009d0 	.word	0x004009d0
    2d18:	e1000304 	.word	0xe1000304
    2d1c:	e1000300 	.word	0xe1000300
    2d20:	e1000320 	.word	0xe1000320
    2d24:	00400a08 	.word	0x00400a08
    2d28:	00400038 	.word	0x00400038
    2d2c:	40000040 	.word	0x40000040

00002d30 <spin1_delay_us>:
    2d30:	b508      	push	{r3, lr}
    2d32:	f7fd fac3 	bl	2bc <sark_delay_us>
    2d36:	bd08      	pop	{r3, pc}

00002d38 <spin1_send_mc_packet>:
    2d38:	b5f7      	push	{r0, r1, r2, r4, r5, r6, r7, lr}
    2d3a:	1c14      	adds	r4, r2, #0
    2d3c:	1c06      	adds	r6, r0, #0
    2d3e:	1c0d      	adds	r5, r1, #0
    2d40:	f7fd ea32 	blx	1a8 <cpu_irq_disable>
    2d44:	2380      	movs	r3, #128	; 0x80
    2d46:	059b      	lsls	r3, r3, #22
    2d48:	2700      	movs	r7, #0
    2d4a:	601f      	str	r7, [r3, #0]
    2d4c:	681a      	ldr	r2, [r3, #0]
    2d4e:	4b2f      	ldr	r3, [pc, #188]	; (2e0c <spin1_send_mc_packet+0xd4>)
    2d50:	0051      	lsls	r1, r2, #1
    2d52:	d520      	bpl.n	2d96 <spin1_send_mc_packet+0x5e>
    2d54:	685a      	ldr	r2, [r3, #4]
    2d56:	9201      	str	r2, [sp, #4]
    2d58:	3201      	adds	r2, #1
    2d5a:	4694      	mov	ip, r2
    2d5c:	4661      	mov	r1, ip
    2d5e:	220f      	movs	r2, #15
    2d60:	400a      	ands	r2, r1
    2d62:	6819      	ldr	r1, [r3, #0]
    2d64:	428a      	cmp	r2, r1
    2d66:	d10a      	bne.n	2d7e <spin1_send_mc_packet+0x46>
    2d68:	4b29      	ldr	r3, [pc, #164]	; (2e10 <spin1_send_mc_packet+0xd8>)
    2d6a:	2204      	movs	r2, #4
    2d6c:	6819      	ldr	r1, [r3, #0]
    2d6e:	1c3c      	adds	r4, r7, #0
    2d70:	430a      	orrs	r2, r1
    2d72:	601a      	str	r2, [r3, #0]
    2d74:	4b27      	ldr	r3, [pc, #156]	; (2e14 <spin1_send_mc_packet+0xdc>)
    2d76:	681a      	ldr	r2, [r3, #0]
    2d78:	3201      	adds	r2, #1
    2d7a:	601a      	str	r2, [r3, #0]
    2d7c:	e041      	b.n	2e02 <spin1_send_mc_packet+0xca>
    2d7e:	9901      	ldr	r1, [sp, #4]
    2d80:	270c      	movs	r7, #12
    2d82:	434f      	muls	r7, r1
    2d84:	605a      	str	r2, [r3, #4]
    2d86:	19d9      	adds	r1, r3, r7
    2d88:	2280      	movs	r2, #128	; 0x80
    2d8a:	608e      	str	r6, [r1, #8]
    2d8c:	60cd      	str	r5, [r1, #12]
    2d8e:	610c      	str	r4, [r1, #16]
    2d90:	0112      	lsls	r2, r2, #4
    2d92:	4b21      	ldr	r3, [pc, #132]	; (2e18 <spin1_send_mc_packet+0xe0>)
    2d94:	e028      	b.n	2de8 <spin1_send_mc_packet+0xb0>
    2d96:	6859      	ldr	r1, [r3, #4]
    2d98:	681f      	ldr	r7, [r3, #0]
    2d9a:	3101      	adds	r1, #1
    2d9c:	220f      	movs	r2, #15
    2d9e:	4011      	ands	r1, r2
    2da0:	42b9      	cmp	r1, r7
    2da2:	d113      	bne.n	2dcc <spin1_send_mc_packet+0x94>
    2da4:	270c      	movs	r7, #12
    2da6:	434f      	muls	r7, r1
    2da8:	3101      	adds	r1, #1
    2daa:	19df      	adds	r7, r3, r7
    2dac:	68ba      	ldr	r2, [r7, #8]
    2dae:	9201      	str	r2, [sp, #4]
    2db0:	68fa      	ldr	r2, [r7, #12]
    2db2:	693f      	ldr	r7, [r7, #16]
    2db4:	4694      	mov	ip, r2
    2db6:	220f      	movs	r2, #15
    2db8:	4011      	ands	r1, r2
    2dba:	6019      	str	r1, [r3, #0]
    2dbc:	2f00      	cmp	r7, #0
    2dbe:	d002      	beq.n	2dc6 <spin1_send_mc_packet+0x8e>
    2dc0:	4b16      	ldr	r3, [pc, #88]	; (2e1c <spin1_send_mc_packet+0xe4>)
    2dc2:	4667      	mov	r7, ip
    2dc4:	601f      	str	r7, [r3, #0]
    2dc6:	4b16      	ldr	r3, [pc, #88]	; (2e20 <spin1_send_mc_packet+0xe8>)
    2dc8:	9901      	ldr	r1, [sp, #4]
    2dca:	6019      	str	r1, [r3, #0]
    2dcc:	4b0f      	ldr	r3, [pc, #60]	; (2e0c <spin1_send_mc_packet+0xd4>)
    2dce:	685a      	ldr	r2, [r3, #4]
    2dd0:	681f      	ldr	r7, [r3, #0]
    2dd2:	4297      	cmp	r7, r2
    2dd4:	d10a      	bne.n	2dec <spin1_send_mc_packet+0xb4>
    2dd6:	2c00      	cmp	r4, #0
    2dd8:	d001      	beq.n	2dde <spin1_send_mc_packet+0xa6>
    2dda:	4b10      	ldr	r3, [pc, #64]	; (2e1c <spin1_send_mc_packet+0xe4>)
    2ddc:	601d      	str	r5, [r3, #0]
    2dde:	4b10      	ldr	r3, [pc, #64]	; (2e20 <spin1_send_mc_packet+0xe8>)
    2de0:	2280      	movs	r2, #128	; 0x80
    2de2:	601e      	str	r6, [r3, #0]
    2de4:	4b0f      	ldr	r3, [pc, #60]	; (2e24 <spin1_send_mc_packet+0xec>)
    2de6:	0112      	lsls	r2, r2, #4
    2de8:	601a      	str	r2, [r3, #0]
    2dea:	e009      	b.n	2e00 <spin1_send_mc_packet+0xc8>
    2dec:	210c      	movs	r1, #12
    2dee:	4351      	muls	r1, r2
    2df0:	3201      	adds	r2, #1
    2df2:	1859      	adds	r1, r3, r1
    2df4:	608e      	str	r6, [r1, #8]
    2df6:	60cd      	str	r5, [r1, #12]
    2df8:	610c      	str	r4, [r1, #16]
    2dfa:	210f      	movs	r1, #15
    2dfc:	400a      	ands	r2, r1
    2dfe:	605a      	str	r2, [r3, #4]
    2e00:	2401      	movs	r4, #1
    2e02:	f7fd e9ea 	blx	1d8 <cpu_int_restore>
    2e06:	1c20      	adds	r0, r4, #0
    2e08:	bdfe      	pop	{r1, r2, r3, r4, r5, r6, r7, pc}
    2e0a:	46c0      	nop			; (mov r8, r8)
    2e0c:	00400b90 	.word	0x00400b90
    2e10:	004005b4 	.word	0x004005b4
    2e14:	004005c0 	.word	0x004005c0
    2e18:	2f000010 	.word	0x2f000010
    2e1c:	20000004 	.word	0x20000004
    2e20:	20000008 	.word	0x20000008
    2e24:	2f000014 	.word	0x2f000014

00002e28 <spin1_get_core_id>:
    2e28:	4b01      	ldr	r3, [pc, #4]	; (2e30 <spin1_get_core_id+0x8>)
    2e2a:	6818      	ldr	r0, [r3, #0]
    2e2c:	4770      	bx	lr
    2e2e:	46c0      	nop			; (mov r8, r8)
    2e30:	004008f8 	.word	0x004008f8

00002e34 <spin1_malloc>:
    2e34:	b508      	push	{r3, lr}
    2e36:	2101      	movs	r1, #1
    2e38:	f7ff f9f0 	bl	221c <sark_alloc>
    2e3c:	bd08      	pop	{r3, pc}
	...

00002e40 <schedule_sysmode>:
    2e40:	b5f8      	push	{r3, r4, r5, r6, r7, lr}
    2e42:	4d15      	ldr	r5, [pc, #84]	; (2e98 <schedule_sysmode+0x58>)
    2e44:	00c6      	lsls	r6, r0, #3
    2e46:	19ab      	adds	r3, r5, r6
    2e48:	685b      	ldr	r3, [r3, #4]
    2e4a:	2b00      	cmp	r3, #0
    2e4c:	dc04      	bgt.n	2e58 <schedule_sysmode+0x18>
    2e4e:	1c08      	adds	r0, r1, #0
    2e50:	5973      	ldr	r3, [r6, r5]
    2e52:	1c11      	adds	r1, r2, #0
    2e54:	4798      	blx	r3
    2e56:	e01d      	b.n	2e94 <schedule_sysmode+0x54>
    2e58:	20c8      	movs	r0, #200	; 0xc8
    2e5a:	3b01      	subs	r3, #1
    2e5c:	4343      	muls	r3, r0
    2e5e:	480f      	ldr	r0, [pc, #60]	; (2e9c <schedule_sysmode+0x5c>)
    2e60:	18c3      	adds	r3, r0, r3
    2e62:	685c      	ldr	r4, [r3, #4]
    2e64:	200f      	movs	r0, #15
    2e66:	1c67      	adds	r7, r4, #1
    2e68:	4038      	ands	r0, r7
    2e6a:	681f      	ldr	r7, [r3, #0]
    2e6c:	42b8      	cmp	r0, r7
    2e6e:	d008      	beq.n	2e82 <schedule_sysmode+0x42>
    2e70:	270c      	movs	r7, #12
    2e72:	437c      	muls	r4, r7
    2e74:	5976      	ldr	r6, [r6, r5]
    2e76:	191c      	adds	r4, r3, r4
    2e78:	60a6      	str	r6, [r4, #8]
    2e7a:	60e1      	str	r1, [r4, #12]
    2e7c:	6122      	str	r2, [r4, #16]
    2e7e:	6058      	str	r0, [r3, #4]
    2e80:	e008      	b.n	2e94 <schedule_sysmode+0x54>
    2e82:	4b07      	ldr	r3, [pc, #28]	; (2ea0 <schedule_sysmode+0x60>)
    2e84:	2201      	movs	r2, #1
    2e86:	6819      	ldr	r1, [r3, #0]
    2e88:	430a      	orrs	r2, r1
    2e8a:	601a      	str	r2, [r3, #0]
    2e8c:	4b05      	ldr	r3, [pc, #20]	; (2ea4 <schedule_sysmode+0x64>)
    2e8e:	681a      	ldr	r2, [r3, #0]
    2e90:	3201      	adds	r2, #1
    2e92:	601a      	str	r2, [r3, #0]
    2e94:	bdf8      	pop	{r3, r4, r5, r6, r7, pc}
    2e96:	46c0      	nop			; (mov r8, r8)
    2e98:	00400b60 	.word	0x00400b60
    2e9c:	004005d0 	.word	0x004005d0
    2ea0:	004005b4 	.word	0x004005b4
    2ea4:	004005b8 	.word	0x004005b8

00002ea8 <sark_pre_main>:
    2ea8:	b508      	push	{r3, lr}
    2eaa:	2006      	movs	r0, #6
    2eac:	f7fe fd4a 	bl	1944 <sark_cpu_state>
    2eb0:	2201      	movs	r2, #1
    2eb2:	235b      	movs	r3, #91	; 0x5b
    2eb4:	701a      	strb	r2, [r3, #0]
    2eb6:	f7fe fd4d 	bl	1954 <sark_app_lead>
    2eba:	4b04      	ldr	r3, [pc, #16]	; (2ecc <sark_pre_main+0x24>)
    2ebc:	681b      	ldr	r3, [r3, #0]
    2ebe:	1ac2      	subs	r2, r0, r3
    2ec0:	4253      	negs	r3, r2
    2ec2:	415a      	adcs	r2, r3
    2ec4:	4b02      	ldr	r3, [pc, #8]	; (2ed0 <sark_pre_main+0x28>)
    2ec6:	701a      	strb	r2, [r3, #0]
    2ec8:	bd08      	pop	{r3, pc}
    2eca:	46c0      	nop			; (mov r8, r8)
    2ecc:	004008f8 	.word	0x004008f8
    2ed0:	00400a04 	.word	0x00400a04

00002ed4 <sark_post_main>:
    2ed4:	b508      	push	{r3, lr}
    2ed6:	200b      	movs	r0, #11
    2ed8:	f7fe fd34 	bl	1944 <sark_cpu_state>
    2edc:	bd08      	pop	{r3, pc}
	...

00002ee0 <cc_rx_ready_isr>:
    2ee0:	e24ee004 	sub	lr, lr, #4
    2ee4:	e92d500f 	push	{r0, r1, r2, r3, ip, lr}
    2ee8:	e3a03202 	mov	r3, #536870912	; 0x20000000
    2eec:	e593000c 	ldr	r0, [r3, #12]
    2ef0:	e59fc058 	ldr	ip, [pc, #88]	; 2f50 <cc_rx_ready_isr+0x70>
    2ef4:	e2100802 	ands	r0, r0, #131072	; 0x20000
    2ef8:	0a000006 	beq	2f18 <cc_rx_ready_isr+0x38>
    2efc:	e5932010 	ldr	r2, [r3, #16]
    2f00:	e5931014 	ldr	r1, [r3, #20]
    2f04:	e59c3028 	ldr	r3, [ip, #40]	; 0x28
    2f08:	e3530000 	cmp	r3, #0
    2f0c:	13a00005 	movne	r0, #5
    2f10:	1a000005 	bne	2f2c <cc_rx_ready_isr+0x4c>
    2f14:	ea000006 	b	2f34 <cc_rx_ready_isr+0x54>
    2f18:	e5931014 	ldr	r1, [r3, #20]
    2f1c:	e59c3000 	ldr	r3, [ip]
    2f20:	e3530000 	cmp	r3, #0
    2f24:	0a000002 	beq	2f34 <cc_rx_ready_isr+0x54>
    2f28:	e1a02000 	mov	r2, r0
    2f2c:	ebfff500 	bl	334 <schedule>
    2f30:	ea000003 	b	2f44 <cc_rx_ready_isr+0x64>
    2f34:	e59f3018 	ldr	r3, [pc, #24]	; 2f54 <cc_rx_ready_isr+0x74>
    2f38:	e5932000 	ldr	r2, [r3]
    2f3c:	e2822001 	add	r2, r2, #1
    2f40:	e5832000 	str	r2, [r3]
    2f44:	e3a0342f 	mov	r3, #788529152	; 0x2f000000
    2f48:	e5833030 	str	r3, [r3, #48]	; 0x30
    2f4c:	e8fd900f 	ldm	sp!, {r0, r1, r2, r3, ip, pc}^
    2f50:	00400b60 	.word	0x00400b60
    2f54:	00400a08 	.word	0x00400a08

00002f58 <cc_rx_ready_fiqsr>:
    2f58:	e24ee004 	sub	lr, lr, #4
    2f5c:	e92d500f 	push	{r0, r1, r2, r3, ip, lr}
    2f60:	e3a03202 	mov	r3, #536870912	; 0x20000000
    2f64:	e593100c 	ldr	r1, [r3, #12]
    2f68:	e59f201c 	ldr	r2, [pc, #28]	; 2f8c <cc_rx_ready_fiqsr+0x34>
    2f6c:	e2111802 	ands	r1, r1, #131072	; 0x20000
    2f70:	15931010 	ldrne	r1, [r3, #16]
    2f74:	05930014 	ldreq	r0, [r3, #20]
    2f78:	15930014 	ldrne	r0, [r3, #20]
    2f7c:	05923000 	ldreq	r3, [r2]
    2f80:	15923028 	ldrne	r3, [r2, #40]	; 0x28
    2f84:	e12fff33 	blx	r3
    2f88:	e8fd900f 	ldm	sp!, {r0, r1, r2, r3, ip, pc}^
    2f8c:	00400b60 	.word	0x00400b60

00002f90 <cc_tx_empty_isr>:
    2f90:	e92d103f 	push	{r0, r1, r2, r3, r4, r5, ip}
    2f94:	e3a03000 	mov	r3, #0
    2f98:	e3a02202 	mov	r2, #536870912	; 0x20000000
    2f9c:	e5823000 	str	r3, [r2]
    2fa0:	e3a0c00c 	mov	ip, #12
    2fa4:	e59f306c 	ldr	r3, [pc, #108]	; 3018 <cc_tx_empty_isr+0x88>
    2fa8:	ea000009 	b	2fd4 <cc_tx_empty_isr+0x44>
    2fac:	e020319c 	mla	r0, ip, r1, r3
    2fb0:	e2811001 	add	r1, r1, #1
    2fb4:	e5904008 	ldr	r4, [r0, #8]
    2fb8:	e590500c 	ldr	r5, [r0, #12]
    2fbc:	e5900010 	ldr	r0, [r0, #16]
    2fc0:	e201100f 	and	r1, r1, #15
    2fc4:	e3500000 	cmp	r0, #0
    2fc8:	e5831000 	str	r1, [r3]
    2fcc:	15825004 	strne	r5, [r2, #4]
    2fd0:	e5824008 	str	r4, [r2, #8]
    2fd4:	e5931000 	ldr	r1, [r3]
    2fd8:	e5930004 	ldr	r0, [r3, #4]
    2fdc:	e1510000 	cmp	r1, r0
    2fe0:	0a000006 	beq	3000 <cc_tx_empty_isr+0x70>
    2fe4:	e5920000 	ldr	r0, [r2]
    2fe8:	e3100101 	tst	r0, #1073741824	; 0x40000000
    2fec:	0affffee 	beq	2fac <cc_tx_empty_isr+0x1c>
    2ff0:	e3a02001 	mov	r2, #1
    2ff4:	e3a0342f 	mov	r3, #788529152	; 0x2f000000
    2ff8:	e5832030 	str	r2, [r3, #48]	; 0x30
    2ffc:	ea000003 	b	3010 <cc_tx_empty_isr+0x80>
    3000:	e3a02b02 	mov	r2, #2048	; 0x800
    3004:	e3a0342f 	mov	r3, #788529152	; 0x2f000000
    3008:	e5832014 	str	r2, [r3, #20]
    300c:	eafffff7 	b	2ff0 <cc_tx_empty_isr+0x60>
    3010:	e8bd103f 	pop	{r0, r1, r2, r3, r4, r5, ip}
    3014:	e25ef004 	subs	pc, lr, #4
    3018:	00400b90 	.word	0x00400b90

0000301c <dma_done_isr>:
    301c:	e24ee004 	sub	lr, lr, #4
    3020:	e92d503f 	push	{r0, r1, r2, r3, r4, r5, ip, lr}
    3024:	e3a03008 	mov	r3, #8
    3028:	e3a00101 	mov	r0, #1073741824	; 0x40000000
    302c:	e5803010 	str	r3, [r0, #16]
    3030:	e59f3068 	ldr	r3, [pc, #104]	; 30a0 <dma_done_isr+0x84>
    3034:	e3a04014 	mov	r4, #20
    3038:	e593c000 	ldr	ip, [r3]
    303c:	e5935004 	ldr	r5, [r3, #4]
    3040:	e0223c94 	mla	r2, r4, ip, r3
    3044:	e28cc001 	add	ip, ip, #1
    3048:	e20cc00f 	and	ip, ip, #15
    304c:	e15c0005 	cmp	ip, r5
    3050:	e5921008 	ldr	r1, [r2, #8]
    3054:	e583c000 	str	ip, [r3]
    3058:	e592200c 	ldr	r2, [r2, #12]
    305c:	0a000005 	beq	3078 <dma_done_isr+0x5c>
    3060:	e0233c94 	mla	r3, r4, ip, r3
    3064:	e2833010 	add	r3, r3, #16
    3068:	e8931018 	ldm	r3, {r3, r4, ip}
    306c:	e5803004 	str	r3, [r0, #4]
    3070:	e5804008 	str	r4, [r0, #8]
    3074:	e580c00c 	str	ip, [r0, #12]
    3078:	e59f3024 	ldr	r3, [pc, #36]	; 30a4 <dma_done_isr+0x88>
    307c:	e5933008 	ldr	r3, [r3, #8]
    3080:	e3530000 	cmp	r3, #0
    3084:	0a000001 	beq	3090 <dma_done_isr+0x74>
    3088:	e3a00001 	mov	r0, #1
    308c:	ebfff4a8 	bl	334 <schedule>
    3090:	e3a02001 	mov	r2, #1
    3094:	e3a0342f 	mov	r3, #788529152	; 0x2f000000
    3098:	e5832030 	str	r2, [r3, #48]	; 0x30
    309c:	e8fd903f 	ldm	sp!, {r0, r1, r2, r3, r4, r5, ip, pc}^
    30a0:	00400a0c 	.word	0x00400a0c
    30a4:	00400b60 	.word	0x00400b60

000030a8 <dma_done_fiqsr>:
    30a8:	e24ee004 	sub	lr, lr, #4
    30ac:	e92d503f 	push	{r0, r1, r2, r3, r4, r5, ip, lr}
    30b0:	e3a03008 	mov	r3, #8
    30b4:	e3a02101 	mov	r2, #1073741824	; 0x40000000
    30b8:	e5823010 	str	r3, [r2, #16]
    30bc:	e59f3054 	ldr	r3, [pc, #84]	; 3118 <dma_done_fiqsr+0x70>
    30c0:	e3a0e014 	mov	lr, #20
    30c4:	e593c000 	ldr	ip, [r3]
    30c8:	e5934004 	ldr	r4, [r3, #4]
    30cc:	e0213c9e 	mla	r1, lr, ip, r3
    30d0:	e28cc001 	add	ip, ip, #1
    30d4:	e20cc00f 	and	ip, ip, #15
    30d8:	e15c0004 	cmp	ip, r4
    30dc:	e5910008 	ldr	r0, [r1, #8]
    30e0:	e583c000 	str	ip, [r3]
    30e4:	e591100c 	ldr	r1, [r1, #12]
    30e8:	0a000006 	beq	3108 <dma_done_fiqsr+0x60>
    30ec:	e0233c9e 	mla	r3, lr, ip, r3
    30f0:	e593e014 	ldr	lr, [r3, #20]
    30f4:	e593c018 	ldr	ip, [r3, #24]
    30f8:	e5933010 	ldr	r3, [r3, #16]
    30fc:	e5823004 	str	r3, [r2, #4]
    3100:	e582e008 	str	lr, [r2, #8]
    3104:	e582c00c 	str	ip, [r2, #12]
    3108:	e59f300c 	ldr	r3, [pc, #12]	; 311c <dma_done_fiqsr+0x74>
    310c:	e5933008 	ldr	r3, [r3, #8]
    3110:	e12fff33 	blx	r3
    3114:	e8fd903f 	ldm	sp!, {r0, r1, r2, r3, r4, r5, ip, pc}^
    3118:	00400a0c 	.word	0x00400a0c
    311c:	00400b60 	.word	0x00400b60

00003120 <timer1_isr>:
    3120:	e24ee004 	sub	lr, lr, #4
    3124:	e92d500f 	push	{r0, r1, r2, r3, ip, lr}
    3128:	e3a02001 	mov	r2, #1
    312c:	e3a03421 	mov	r3, #553648128	; 0x21000000
    3130:	e583200c 	str	r2, [r3, #12]
    3134:	e59f3034 	ldr	r3, [pc, #52]	; 3170 <timer1_isr+0x50>
    3138:	e5931000 	ldr	r1, [r3]
    313c:	e0811002 	add	r1, r1, r2
    3140:	e5831000 	str	r1, [r3]
    3144:	e59f3028 	ldr	r3, [pc, #40]	; 3174 <timer1_isr+0x54>
    3148:	e5933010 	ldr	r3, [r3, #16]
    314c:	e3530000 	cmp	r3, #0
    3150:	0a000002 	beq	3160 <timer1_isr+0x40>
    3154:	e3a00002 	mov	r0, #2
    3158:	e3a02000 	mov	r2, #0
    315c:	ebfff474 	bl	334 <schedule>
    3160:	e3a02001 	mov	r2, #1
    3164:	e3a0342f 	mov	r3, #788529152	; 0x2f000000
    3168:	e5832030 	str	r2, [r3, #48]	; 0x30
    316c:	e8fd900f 	ldm	sp!, {r0, r1, r2, r3, ip, pc}^
    3170:	00400b58 	.word	0x00400b58
    3174:	00400b60 	.word	0x00400b60

00003178 <timer1_fiqsr>:
    3178:	e24ee004 	sub	lr, lr, #4
    317c:	e92d500f 	push	{r0, r1, r2, r3, ip, lr}
    3180:	e3a02001 	mov	r2, #1
    3184:	e3a03421 	mov	r3, #553648128	; 0x21000000
    3188:	e583200c 	str	r2, [r3, #12]
    318c:	e59f301c 	ldr	r3, [pc, #28]	; 31b0 <timer1_fiqsr+0x38>
    3190:	e3a01000 	mov	r1, #0
    3194:	e5930000 	ldr	r0, [r3]
    3198:	e0800002 	add	r0, r0, r2
    319c:	e5830000 	str	r0, [r3]
    31a0:	e59f300c 	ldr	r3, [pc, #12]	; 31b4 <timer1_fiqsr+0x3c>
    31a4:	e5933010 	ldr	r3, [r3, #16]
    31a8:	e12fff33 	blx	r3
    31ac:	e8fd900f 	ldm	sp!, {r0, r1, r2, r3, ip, pc}^
    31b0:	00400b58 	.word	0x00400b58
    31b4:	00400b60 	.word	0x00400b60

000031b8 <soft_int_isr>:
    31b8:	e24ee004 	sub	lr, lr, #4
    31bc:	e92d500f 	push	{r0, r1, r2, r3, ip, lr}
    31c0:	e3a02002 	mov	r2, #2
    31c4:	e3a0342f 	mov	r3, #788529152	; 0x2f000000
    31c8:	e583201c 	str	r2, [r3, #28]
    31cc:	e59f303c 	ldr	r3, [pc, #60]	; 3210 <soft_int_isr+0x58>
    31d0:	e3a02000 	mov	r2, #0
    31d4:	e5c32000 	strb	r2, [r3]
    31d8:	e59f3034 	ldr	r3, [pc, #52]	; 3214 <soft_int_isr+0x5c>
    31dc:	e5933020 	ldr	r3, [r3, #32]
    31e0:	e1530002 	cmp	r3, r2
    31e4:	0a000005 	beq	3200 <soft_int_isr+0x48>
    31e8:	e59f3028 	ldr	r3, [pc, #40]	; 3218 <soft_int_isr+0x60>
    31ec:	e3a00004 	mov	r0, #4
    31f0:	e5931000 	ldr	r1, [r3]
    31f4:	e59f3020 	ldr	r3, [pc, #32]	; 321c <soft_int_isr+0x64>
    31f8:	e5932000 	ldr	r2, [r3]
    31fc:	ebfff44c 	bl	334 <schedule>
    3200:	e3a02001 	mov	r2, #1
    3204:	e3a0342f 	mov	r3, #788529152	; 0x2f000000
    3208:	e5832030 	str	r2, [r3, #48]	; 0x30
    320c:	e8fd900f 	ldm	sp!, {r0, r1, r2, r3, ip, pc}^
    3210:	004005c8 	.word	0x004005c8
    3214:	00400b60 	.word	0x00400b60
    3218:	00400b5c 	.word	0x00400b5c
    321c:	00400a00 	.word	0x00400a00

00003220 <soft_int_fiqsr>:
    3220:	e24ee004 	sub	lr, lr, #4
    3224:	e92d500f 	push	{r0, r1, r2, r3, ip, lr}
    3228:	e3a02002 	mov	r2, #2
    322c:	e3a0342f 	mov	r3, #788529152	; 0x2f000000
    3230:	e583201c 	str	r2, [r3, #28]
    3234:	e59f3024 	ldr	r3, [pc, #36]	; 3260 <soft_int_fiqsr+0x40>
    3238:	e3a02000 	mov	r2, #0
    323c:	e5c32000 	strb	r2, [r3]
    3240:	e59f201c 	ldr	r2, [pc, #28]	; 3264 <soft_int_fiqsr+0x44>
    3244:	e59f301c 	ldr	r3, [pc, #28]	; 3268 <soft_int_fiqsr+0x48>
    3248:	e5920000 	ldr	r0, [r2]
    324c:	e59f2018 	ldr	r2, [pc, #24]	; 326c <soft_int_fiqsr+0x4c>
    3250:	e5933020 	ldr	r3, [r3, #32]
    3254:	e5921000 	ldr	r1, [r2]
    3258:	e12fff33 	blx	r3
    325c:	e8fd900f 	ldm	sp!, {r0, r1, r2, r3, ip, pc}^
    3260:	004005c8 	.word	0x004005c8
    3264:	00400b5c 	.word	0x00400b5c
    3268:	00400b60 	.word	0x00400b60
    326c:	00400a00 	.word	0x00400a00

00003270 <logf>:
    3270:	e92d4070 	push	{r4, r5, r6, lr}
    3274:	e24dd028 	sub	sp, sp, #40	; 0x28
    3278:	e1a04000 	mov	r4, r0
    327c:	eb00009f 	bl	3500 <__ieee754_logf>
    3280:	e59f5140 	ldr	r5, [pc, #320]	; 33c8 <logf+0x158>
    3284:	e1d530d0 	ldrsb	r3, [r5]
    3288:	e3730001 	cmn	r3, #1
    328c:	e1a06000 	mov	r6, r0
    3290:	0a000008 	beq	32b8 <logf+0x48>
    3294:	e1a00004 	mov	r0, r4
    3298:	eb0001d0 	bl	39e0 <__fpclassifyf>
    329c:	e3500000 	cmp	r0, #0
    32a0:	0a000004 	beq	32b8 <logf+0x48>
    32a4:	e1a00004 	mov	r0, r4
    32a8:	e3a01000 	mov	r1, #0
    32ac:	eb0005df 	bl	4a30 <__aeabi_fcmpgt>
    32b0:	e2503000 	subs	r3, r0, #0
    32b4:	0a000003 	beq	32c8 <logf+0x58>
    32b8:	e1a00006 	mov	r0, r6
    32bc:	e28dd028 	add	sp, sp, #40	; 0x28
    32c0:	e8bd4070 	pop	{r4, r5, r6, lr}
    32c4:	e12fff1e 	bx	lr
    32c8:	e59f20fc 	ldr	r2, [pc, #252]	; 33cc <logf+0x15c>
    32cc:	e1a00004 	mov	r0, r4
    32d0:	e58d3020 	str	r3, [sp, #32]
    32d4:	e58d2004 	str	r2, [sp, #4]
    32d8:	eb0002b0 	bl	3da0 <__aeabi_f2d>
    32dc:	e5d55000 	ldrb	r5, [r5]
    32e0:	e3550000 	cmp	r5, #0
    32e4:	059f30e4 	ldreq	r3, [pc, #228]	; 33d0 <logf+0x160>
    32e8:	159f30e4 	ldrne	r3, [pc, #228]	; 33d4 <logf+0x164>
    32ec:	e58d0010 	str	r0, [sp, #16]
    32f0:	e58d1014 	str	r1, [sp, #20]
    32f4:	e58d0008 	str	r0, [sp, #8]
    32f8:	e58d100c 	str	r1, [sp, #12]
    32fc:	03a0220e 	moveq	r2, #-536870912	; 0xe0000000
    3300:	13a02000 	movne	r2, #0
    3304:	e1a00004 	mov	r0, r4
    3308:	e3a01000 	mov	r1, #0
    330c:	e58d2018 	str	r2, [sp, #24]
    3310:	e58d301c 	str	r3, [sp, #28]
    3314:	eb0005ad 	bl	49d0 <__aeabi_fcmpeq>
    3318:	e3500000 	cmp	r0, #0
    331c:	0a000010 	beq	3364 <logf+0xf4>
    3320:	e3a03002 	mov	r3, #2
    3324:	e3550002 	cmp	r5, #2
    3328:	e58d3000 	str	r3, [sp]
    332c:	0a00001d 	beq	33a8 <logf+0x138>
    3330:	e1a0000d 	mov	r0, sp
    3334:	eb0001a3 	bl	39c8 <matherr>
    3338:	e3500000 	cmp	r0, #0
    333c:	0a000019 	beq	33a8 <logf+0x138>
    3340:	e59d3020 	ldr	r3, [sp, #32]
    3344:	e3530000 	cmp	r3, #0
    3348:	1a00001a 	bne	33b8 <logf+0x148>
    334c:	e28d1018 	add	r1, sp, #24
    3350:	e8910003 	ldm	r1, {r0, r1}
    3354:	eb0003e5 	bl	42f0 <__aeabi_d2f>
    3358:	e28dd028 	add	sp, sp, #40	; 0x28
    335c:	e8bd4070 	pop	{r4, r5, r6, lr}
    3360:	e12fff1e 	bx	lr
    3364:	e3a03001 	mov	r3, #1
    3368:	e3550002 	cmp	r5, #2
    336c:	e58d3000 	str	r3, [sp]
    3370:	0a000008 	beq	3398 <logf+0x128>
    3374:	e1a0000d 	mov	r0, sp
    3378:	eb000192 	bl	39c8 <matherr>
    337c:	e3500000 	cmp	r0, #0
    3380:	0a000004 	beq	3398 <logf+0x128>
    3384:	e59f004c 	ldr	r0, [pc, #76]	; 33d8 <logf+0x168>
    3388:	eb000190 	bl	39d0 <nan>
    338c:	e58d0018 	str	r0, [sp, #24]
    3390:	e58d101c 	str	r1, [sp, #28]
    3394:	eaffffe9 	b	3340 <logf+0xd0>
    3398:	eb000ad5 	bl	5ef4 <__errno>
    339c:	e3a03021 	mov	r3, #33	; 0x21
    33a0:	e5803000 	str	r3, [r0]
    33a4:	eafffff6 	b	3384 <logf+0x114>
    33a8:	eb000ad1 	bl	5ef4 <__errno>
    33ac:	e3a03022 	mov	r3, #34	; 0x22
    33b0:	e5803000 	str	r3, [r0]
    33b4:	eaffffe1 	b	3340 <logf+0xd0>
    33b8:	eb000acd 	bl	5ef4 <__errno>
    33bc:	e59d3020 	ldr	r3, [sp, #32]
    33c0:	e5803000 	str	r3, [r0]
    33c4:	eaffffe0 	b	334c <logf+0xdc>
    33c8:	00400044 	.word	0x00400044
    33cc:	0000625c 	.word	0x0000625c
    33d0:	c7efffff 	.word	0xc7efffff
    33d4:	fff00000 	.word	0xfff00000
    33d8:	00006260 	.word	0x00006260

000033dc <sqrtf>:
    33dc:	e92d4070 	push	{r4, r5, r6, lr}
    33e0:	e24dd028 	sub	sp, sp, #40	; 0x28
    33e4:	e1a05000 	mov	r5, r0
    33e8:	eb000134 	bl	38c0 <__ieee754_sqrtf>
    33ec:	e59f4104 	ldr	r4, [pc, #260]	; 34f8 <sqrtf+0x11c>
    33f0:	e1d430d0 	ldrsb	r3, [r4]
    33f4:	e3730001 	cmn	r3, #1
    33f8:	e1a06000 	mov	r6, r0
    33fc:	0a000008 	beq	3424 <sqrtf+0x48>
    3400:	e1a00005 	mov	r0, r5
    3404:	eb000175 	bl	39e0 <__fpclassifyf>
    3408:	e3500000 	cmp	r0, #0
    340c:	0a000004 	beq	3424 <sqrtf+0x48>
    3410:	e1a00005 	mov	r0, r5
    3414:	e3a01000 	mov	r1, #0
    3418:	eb000572 	bl	49e8 <__aeabi_fcmplt>
    341c:	e3500000 	cmp	r0, #0
    3420:	1a000003 	bne	3434 <sqrtf+0x58>
    3424:	e1a00006 	mov	r0, r6
    3428:	e28dd028 	add	sp, sp, #40	; 0x28
    342c:	e8bd4070 	pop	{r4, r5, r6, lr}
    3430:	e12fff1e 	bx	lr
    3434:	e59f10c0 	ldr	r1, [pc, #192]	; 34fc <sqrtf+0x120>
    3438:	e3a02001 	mov	r2, #1
    343c:	e3a03000 	mov	r3, #0
    3440:	e1a00005 	mov	r0, r5
    3444:	e58d1004 	str	r1, [sp, #4]
    3448:	e58d2000 	str	r2, [sp]
    344c:	e58d3020 	str	r3, [sp, #32]
    3450:	eb000252 	bl	3da0 <__aeabi_f2d>
    3454:	e5d44000 	ldrb	r4, [r4]
    3458:	e3540000 	cmp	r4, #0
    345c:	e58d0010 	str	r0, [sp, #16]
    3460:	e58d1014 	str	r1, [sp, #20]
    3464:	e58d0008 	str	r0, [sp, #8]
    3468:	e58d100c 	str	r1, [sp, #12]
    346c:	1a000010 	bne	34b4 <sqrtf+0xd8>
    3470:	e3a02000 	mov	r2, #0
    3474:	e3a03000 	mov	r3, #0
    3478:	e58d2018 	str	r2, [sp, #24]
    347c:	e58d301c 	str	r3, [sp, #28]
    3480:	e1a0000d 	mov	r0, sp
    3484:	eb00014f 	bl	39c8 <matherr>
    3488:	e3500000 	cmp	r0, #0
    348c:	0a000011 	beq	34d8 <sqrtf+0xfc>
    3490:	e59d3020 	ldr	r3, [sp, #32]
    3494:	e3530000 	cmp	r3, #0
    3498:	1a000012 	bne	34e8 <sqrtf+0x10c>
    349c:	e28d1018 	add	r1, sp, #24
    34a0:	e8910003 	ldm	r1, {r0, r1}
    34a4:	eb000391 	bl	42f0 <__aeabi_d2f>
    34a8:	e28dd028 	add	sp, sp, #40	; 0x28
    34ac:	e8bd4070 	pop	{r4, r5, r6, lr}
    34b0:	e12fff1e 	bx	lr
    34b4:	e3a00000 	mov	r0, #0
    34b8:	e3a01000 	mov	r1, #0
    34bc:	e1a02000 	mov	r2, r0
    34c0:	e1a03001 	mov	r3, r1
    34c4:	eb000306 	bl	40e4 <__aeabi_ddiv>
    34c8:	e3540002 	cmp	r4, #2
    34cc:	e58d0018 	str	r0, [sp, #24]
    34d0:	e58d101c 	str	r1, [sp, #28]
    34d4:	1affffe9 	bne	3480 <sqrtf+0xa4>
    34d8:	eb000a85 	bl	5ef4 <__errno>
    34dc:	e3a03021 	mov	r3, #33	; 0x21
    34e0:	e5803000 	str	r3, [r0]
    34e4:	eaffffe9 	b	3490 <sqrtf+0xb4>
    34e8:	eb000a81 	bl	5ef4 <__errno>
    34ec:	e59d3020 	ldr	r3, [sp, #32]
    34f0:	e5803000 	str	r3, [r0]
    34f4:	eaffffe8 	b	349c <sqrtf+0xc0>
    34f8:	00400044 	.word	0x00400044
    34fc:	00006264 	.word	0x00006264

00003500 <__ieee754_logf>:
    3500:	e3c02102 	bic	r2, r0, #-2147483648	; 0x80000000
    3504:	e3520000 	cmp	r2, #0
    3508:	e92d47f0 	push	{r4, r5, r6, r7, r8, r9, sl, lr}
    350c:	e1a01000 	mov	r1, r0
    3510:	e1a03000 	mov	r3, r0
    3514:	0a000065 	beq	36b0 <__ieee754_logf+0x1b0>
    3518:	e3500000 	cmp	r0, #0
    351c:	ba00007d 	blt	3718 <__ieee754_logf+0x218>
    3520:	e59f2364 	ldr	r2, [pc, #868]	; 388c <__ieee754_logf+0x38c>
    3524:	e1500002 	cmp	r0, r2
    3528:	ca000077 	bgt	370c <__ieee754_logf+0x20c>
    352c:	e3500502 	cmp	r0, #8388608	; 0x800000
    3530:	a3a07000 	movge	r7, #0
    3534:	aa000003 	bge	3548 <__ieee754_logf+0x48>
    3538:	e3a01313 	mov	r1, #1275068416	; 0x4c000000
    353c:	eb00043e 	bl	463c <__aeabi_fmul>
    3540:	e3e07018 	mvn	r7, #24
    3544:	e1a03000 	mov	r3, r0
    3548:	e3c344ff 	bic	r4, r3, #-16777216	; 0xff000000
    354c:	e59f033c 	ldr	r0, [pc, #828]	; 3890 <__ieee754_logf+0x390>
    3550:	e3c44502 	bic	r4, r4, #8388608	; 0x800000
    3554:	e0840000 	add	r0, r4, r0
    3558:	e2002502 	and	r2, r0, #8388608	; 0x800000
    355c:	e1a03bc3 	asr	r3, r3, #23
    3560:	e243307f 	sub	r3, r3, #127	; 0x7f
    3564:	e22205fe 	eor	r0, r2, #1065353216	; 0x3f800000
    3568:	e0837007 	add	r7, r3, r7
    356c:	e1800004 	orr	r0, r0, r4
    3570:	e3a015fe 	mov	r1, #1065353216	; 0x3f800000
    3574:	e0877ba2 	add	r7, r7, r2, lsr #23
    3578:	eb000386 	bl	4398 <__aeabi_fsub>
    357c:	e284300f 	add	r3, r4, #15
    3580:	e3c33502 	bic	r3, r3, #8388608	; 0x800000
    3584:	e353000f 	cmp	r3, #15
    3588:	e1a05000 	mov	r5, r0
    358c:	da00004c 	ble	36c4 <__ieee754_logf+0x1c4>
    3590:	e3a01101 	mov	r1, #1073741824	; 0x40000000
    3594:	eb000380 	bl	439c <__addsf3>
    3598:	e1a01000 	mov	r1, r0
    359c:	e1a00005 	mov	r0, r5
    35a0:	eb00048b 	bl	47d4 <__aeabi_fdiv>
    35a4:	e1a08000 	mov	r8, r0
    35a8:	e1a00007 	mov	r0, r7
    35ac:	eb0003eb 	bl	4560 <__aeabi_i2f>
    35b0:	e1a01008 	mov	r1, r8
    35b4:	e1a0a000 	mov	sl, r0
    35b8:	e1a00008 	mov	r0, r8
    35bc:	eb00041e 	bl	463c <__aeabi_fmul>
    35c0:	e1a01000 	mov	r1, r0
    35c4:	e1a09000 	mov	r9, r0
    35c8:	eb00041b 	bl	463c <__aeabi_fmul>
    35cc:	e59f12c0 	ldr	r1, [pc, #704]	; 3894 <__ieee754_logf+0x394>
    35d0:	e1a06000 	mov	r6, r0
    35d4:	eb000418 	bl	463c <__aeabi_fmul>
    35d8:	e59f12b8 	ldr	r1, [pc, #696]	; 3898 <__ieee754_logf+0x398>
    35dc:	eb00036e 	bl	439c <__addsf3>
    35e0:	e1a01006 	mov	r1, r6
    35e4:	eb000414 	bl	463c <__aeabi_fmul>
    35e8:	e59f12ac 	ldr	r1, [pc, #684]	; 389c <__ieee754_logf+0x39c>
    35ec:	eb00036a 	bl	439c <__addsf3>
    35f0:	e1a01006 	mov	r1, r6
    35f4:	eb000410 	bl	463c <__aeabi_fmul>
    35f8:	e59f12a0 	ldr	r1, [pc, #672]	; 38a0 <__ieee754_logf+0x3a0>
    35fc:	eb000366 	bl	439c <__addsf3>
    3600:	e1a01009 	mov	r1, r9
    3604:	eb00040c 	bl	463c <__aeabi_fmul>
    3608:	e59f1294 	ldr	r1, [pc, #660]	; 38a4 <__ieee754_logf+0x3a4>
    360c:	e1a09000 	mov	r9, r0
    3610:	e1a00006 	mov	r0, r6
    3614:	eb000408 	bl	463c <__aeabi_fmul>
    3618:	e59f1288 	ldr	r1, [pc, #648]	; 38a8 <__ieee754_logf+0x3a8>
    361c:	eb00035e 	bl	439c <__addsf3>
    3620:	e1a01006 	mov	r1, r6
    3624:	eb000404 	bl	463c <__aeabi_fmul>
    3628:	e59f127c 	ldr	r1, [pc, #636]	; 38ac <__ieee754_logf+0x3ac>
    362c:	eb00035a 	bl	439c <__addsf3>
    3630:	e1a01006 	mov	r1, r6
    3634:	eb000400 	bl	463c <__aeabi_fmul>
    3638:	e1a01000 	mov	r1, r0
    363c:	e1a00009 	mov	r0, r9
    3640:	eb000355 	bl	439c <__addsf3>
    3644:	e59f6264 	ldr	r6, [pc, #612]	; 38b0 <__ieee754_logf+0x3b0>
    3648:	e26439d7 	rsb	r3, r4, #3522560	; 0x35c000
    364c:	e0846006 	add	r6, r4, r6
    3650:	e2833fa2 	add	r3, r3, #648	; 0x288
    3654:	e1836006 	orr	r6, r3, r6
    3658:	e3560000 	cmp	r6, #0
    365c:	e1a09000 	mov	r9, r0
    3660:	da000068 	ble	3808 <__ieee754_logf+0x308>
    3664:	e3a0143f 	mov	r1, #1056964608	; 0x3f000000
    3668:	e1a00005 	mov	r0, r5
    366c:	eb0003f2 	bl	463c <__aeabi_fmul>
    3670:	e1a01005 	mov	r1, r5
    3674:	eb0003f0 	bl	463c <__aeabi_fmul>
    3678:	e3570000 	cmp	r7, #0
    367c:	e1a04000 	mov	r4, r0
    3680:	1a00003d 	bne	377c <__ieee754_logf+0x27c>
    3684:	e1a01009 	mov	r1, r9
    3688:	eb000343 	bl	439c <__addsf3>
    368c:	e1a01008 	mov	r1, r8
    3690:	eb0003e9 	bl	463c <__aeabi_fmul>
    3694:	e1a01000 	mov	r1, r0
    3698:	e1a00004 	mov	r0, r4
    369c:	eb00033d 	bl	4398 <__aeabi_fsub>
    36a0:	e1a01000 	mov	r1, r0
    36a4:	e1a00005 	mov	r0, r5
    36a8:	eb00033a 	bl	4398 <__aeabi_fsub>
    36ac:	ea000002 	b	36bc <__ieee754_logf+0x1bc>
    36b0:	e3a00333 	mov	r0, #-872415232	; 0xcc000000
    36b4:	e3a01000 	mov	r1, #0
    36b8:	eb000445 	bl	47d4 <__aeabi_fdiv>
    36bc:	e8bd47f0 	pop	{r4, r5, r6, r7, r8, r9, sl, lr}
    36c0:	e12fff1e 	bx	lr
    36c4:	e3a01000 	mov	r1, #0
    36c8:	eb0004c0 	bl	49d0 <__aeabi_fcmpeq>
    36cc:	e3500000 	cmp	r0, #0
    36d0:	0a000015 	beq	372c <__ieee754_logf+0x22c>
    36d4:	e3570000 	cmp	r7, #0
    36d8:	03a00000 	moveq	r0, #0
    36dc:	0afffff6 	beq	36bc <__ieee754_logf+0x1bc>
    36e0:	e1a00007 	mov	r0, r7
    36e4:	eb00039d 	bl	4560 <__aeabi_i2f>
    36e8:	e59f11c4 	ldr	r1, [pc, #452]	; 38b4 <__ieee754_logf+0x3b4>
    36ec:	e1a05000 	mov	r5, r0
    36f0:	eb0003d1 	bl	463c <__aeabi_fmul>
    36f4:	e59f11bc 	ldr	r1, [pc, #444]	; 38b8 <__ieee754_logf+0x3b8>
    36f8:	e1a04000 	mov	r4, r0
    36fc:	e1a00005 	mov	r0, r5
    3700:	eb0003cd 	bl	463c <__aeabi_fmul>
    3704:	e1a01000 	mov	r1, r0
    3708:	e1a00004 	mov	r0, r4
    370c:	eb000322 	bl	439c <__addsf3>
    3710:	e8bd47f0 	pop	{r4, r5, r6, r7, r8, r9, sl, lr}
    3714:	e12fff1e 	bx	lr
    3718:	eb00031e 	bl	4398 <__aeabi_fsub>
    371c:	e3a01000 	mov	r1, #0
    3720:	eb00042b 	bl	47d4 <__aeabi_fdiv>
    3724:	e8bd47f0 	pop	{r4, r5, r6, r7, r8, r9, sl, lr}
    3728:	e12fff1e 	bx	lr
    372c:	e1a01005 	mov	r1, r5
    3730:	e1a00005 	mov	r0, r5
    3734:	eb0003c0 	bl	463c <__aeabi_fmul>
    3738:	e59f117c 	ldr	r1, [pc, #380]	; 38bc <__ieee754_logf+0x3bc>
    373c:	e1a04000 	mov	r4, r0
    3740:	e1a00005 	mov	r0, r5
    3744:	eb0003bc 	bl	463c <__aeabi_fmul>
    3748:	e1a01000 	mov	r1, r0
    374c:	e3a0043f 	mov	r0, #1056964608	; 0x3f000000
    3750:	eb000310 	bl	4398 <__aeabi_fsub>
    3754:	e1a01000 	mov	r1, r0
    3758:	e1a00004 	mov	r0, r4
    375c:	eb0003b6 	bl	463c <__aeabi_fmul>
    3760:	e3570000 	cmp	r7, #0
    3764:	e1a04000 	mov	r4, r0
    3768:	1a00001c 	bne	37e0 <__ieee754_logf+0x2e0>
    376c:	e1a00005 	mov	r0, r5
    3770:	e1a01004 	mov	r1, r4
    3774:	eb000307 	bl	4398 <__aeabi_fsub>
    3778:	eaffffcf 	b	36bc <__ieee754_logf+0x1bc>
    377c:	e59f1130 	ldr	r1, [pc, #304]	; 38b4 <__ieee754_logf+0x3b4>
    3780:	e1a0000a 	mov	r0, sl
    3784:	eb0003ac 	bl	463c <__aeabi_fmul>
    3788:	e1a01009 	mov	r1, r9
    378c:	e1a06000 	mov	r6, r0
    3790:	e1a00004 	mov	r0, r4
    3794:	eb000300 	bl	439c <__addsf3>
    3798:	e1a01008 	mov	r1, r8
    379c:	eb0003a6 	bl	463c <__aeabi_fmul>
    37a0:	e59f1110 	ldr	r1, [pc, #272]	; 38b8 <__ieee754_logf+0x3b8>
    37a4:	e1a07000 	mov	r7, r0
    37a8:	e1a0000a 	mov	r0, sl
    37ac:	eb0003a2 	bl	463c <__aeabi_fmul>
    37b0:	e1a01000 	mov	r1, r0
    37b4:	e1a00007 	mov	r0, r7
    37b8:	eb0002f7 	bl	439c <__addsf3>
    37bc:	e1a01000 	mov	r1, r0
    37c0:	e1a00004 	mov	r0, r4
    37c4:	eb0002f3 	bl	4398 <__aeabi_fsub>
    37c8:	e1a01005 	mov	r1, r5
    37cc:	eb0002f1 	bl	4398 <__aeabi_fsub>
    37d0:	e1a01000 	mov	r1, r0
    37d4:	e1a00006 	mov	r0, r6
    37d8:	eb0002ee 	bl	4398 <__aeabi_fsub>
    37dc:	eaffffb6 	b	36bc <__ieee754_logf+0x1bc>
    37e0:	e1a00007 	mov	r0, r7
    37e4:	eb00035d 	bl	4560 <__aeabi_i2f>
    37e8:	e59f10c4 	ldr	r1, [pc, #196]	; 38b4 <__ieee754_logf+0x3b4>
    37ec:	e1a07000 	mov	r7, r0
    37f0:	eb000391 	bl	463c <__aeabi_fmul>
    37f4:	e59f10bc 	ldr	r1, [pc, #188]	; 38b8 <__ieee754_logf+0x3b8>
    37f8:	e1a06000 	mov	r6, r0
    37fc:	e1a00007 	mov	r0, r7
    3800:	eb00038d 	bl	463c <__aeabi_fmul>
    3804:	eaffffec 	b	37bc <__ieee754_logf+0x2bc>
    3808:	e3570000 	cmp	r7, #0
    380c:	0a000015 	beq	3868 <__ieee754_logf+0x368>
    3810:	e1a0000a 	mov	r0, sl
    3814:	e59f1098 	ldr	r1, [pc, #152]	; 38b4 <__ieee754_logf+0x3b4>
    3818:	eb000387 	bl	463c <__aeabi_fmul>
    381c:	e1a01009 	mov	r1, r9
    3820:	e1a04000 	mov	r4, r0
    3824:	e1a00005 	mov	r0, r5
    3828:	eb0002da 	bl	4398 <__aeabi_fsub>
    382c:	e1a01008 	mov	r1, r8
    3830:	eb000381 	bl	463c <__aeabi_fmul>
    3834:	e59f107c 	ldr	r1, [pc, #124]	; 38b8 <__ieee754_logf+0x3b8>
    3838:	e1a06000 	mov	r6, r0
    383c:	e1a0000a 	mov	r0, sl
    3840:	eb00037d 	bl	463c <__aeabi_fmul>
    3844:	e1a01000 	mov	r1, r0
    3848:	e1a00006 	mov	r0, r6
    384c:	eb0002d1 	bl	4398 <__aeabi_fsub>
    3850:	e1a01005 	mov	r1, r5
    3854:	eb0002cf 	bl	4398 <__aeabi_fsub>
    3858:	e1a01000 	mov	r1, r0
    385c:	e1a00004 	mov	r0, r4
    3860:	eb0002cc 	bl	4398 <__aeabi_fsub>
    3864:	eaffff94 	b	36bc <__ieee754_logf+0x1bc>
    3868:	e1a01000 	mov	r1, r0
    386c:	e1a00005 	mov	r0, r5
    3870:	eb0002c8 	bl	4398 <__aeabi_fsub>
    3874:	e1a01008 	mov	r1, r8
    3878:	eb00036f 	bl	463c <__aeabi_fmul>
    387c:	e1a01000 	mov	r1, r0
    3880:	e1a00005 	mov	r0, r5
    3884:	eb0002c3 	bl	4398 <__aeabi_fsub>
    3888:	eaffff8b 	b	36bc <__ieee754_logf+0x1bc>
    388c:	7f7fffff 	.word	0x7f7fffff
    3890:	004afb20 	.word	0x004afb20
    3894:	3e178897 	.word	0x3e178897
    3898:	3e3a3325 	.word	0x3e3a3325
    389c:	3e924925 	.word	0x3e924925
    38a0:	3f2aaaab 	.word	0x3f2aaaab
    38a4:	3e1cd04f 	.word	0x3e1cd04f
    38a8:	3e638e29 	.word	0x3e638e29
    38ac:	3ecccccd 	.word	0x3ecccccd
    38b0:	ffcf5c30 	.word	0xffcf5c30
    38b4:	3f317180 	.word	0x3f317180
    38b8:	3717f7d1 	.word	0x3717f7d1
    38bc:	3eaaaaab 	.word	0x3eaaaaab

000038c0 <__ieee754_sqrtf>:
    38c0:	e59f10fc 	ldr	r1, [pc, #252]	; 39c4 <__ieee754_sqrtf+0x104>
    38c4:	e3c02102 	bic	r2, r0, #-2147483648	; 0x80000000
    38c8:	e1520001 	cmp	r2, r1
    38cc:	e92d4070 	push	{r4, r5, r6, lr}
    38d0:	e1a03000 	mov	r3, r0
    38d4:	e1a04000 	mov	r4, r0
    38d8:	8a00002c 	bhi	3990 <__ieee754_sqrtf+0xd0>
    38dc:	e3520000 	cmp	r2, #0
    38e0:	01a00000 	moveq	r0, r0
    38e4:	0a000027 	beq	3988 <__ieee754_sqrtf+0xc8>
    38e8:	e3540000 	cmp	r4, #0
    38ec:	ba00002d 	blt	39a8 <__ieee754_sqrtf+0xe8>
    38f0:	e3520502 	cmp	r2, #8388608	; 0x800000
    38f4:	e1a00bc4 	asr	r0, r4, #23
    38f8:	2a000007 	bcs	391c <__ieee754_sqrtf+0x5c>
    38fc:	e2142502 	ands	r2, r4, #8388608	; 0x800000
    3900:	1a00002d 	bne	39bc <__ieee754_sqrtf+0xfc>
    3904:	e1a03083 	lsl	r3, r3, #1
    3908:	e3130502 	tst	r3, #8388608	; 0x800000
    390c:	e2822001 	add	r2, r2, #1
    3910:	0afffffb 	beq	3904 <__ieee754_sqrtf+0x44>
    3914:	e2622001 	rsb	r2, r2, #1
    3918:	e0800002 	add	r0, r0, r2
    391c:	e3c334ff 	bic	r3, r3, #-16777216	; 0xff000000
    3920:	e240007f 	sub	r0, r0, #127	; 0x7f
    3924:	e3c33502 	bic	r3, r3, #8388608	; 0x800000
    3928:	e3100001 	tst	r0, #1
    392c:	e3833502 	orr	r3, r3, #8388608	; 0x800000
    3930:	11a03083 	lslne	r3, r3, #1
    3934:	e3a06000 	mov	r6, #0
    3938:	e1a000c0 	asr	r0, r0, #1
    393c:	e1a03083 	lsl	r3, r3, #1
    3940:	e1a05006 	mov	r5, r6
    3944:	e3a0c019 	mov	ip, #25
    3948:	e3a02401 	mov	r2, #16777216	; 0x1000000
    394c:	e0854002 	add	r4, r5, r2
    3950:	e1540003 	cmp	r4, r3
    3954:	d0643003 	rsble	r3, r4, r3
    3958:	d0845002 	addle	r5, r4, r2
    395c:	d0866002 	addle	r6, r6, r2
    3960:	e25cc001 	subs	ip, ip, #1
    3964:	e1a03083 	lsl	r3, r3, #1
    3968:	e1a020a2 	lsr	r2, r2, #1
    396c:	1afffff6 	bne	394c <__ieee754_sqrtf+0x8c>
    3970:	e3530000 	cmp	r3, #0
    3974:	12063001 	andne	r3, r6, #1
    3978:	10866003 	addne	r6, r6, r3
    397c:	e1a060c6 	asr	r6, r6, #1
    3980:	e286643f 	add	r6, r6, #1056964608	; 0x3f000000
    3984:	e0860b80 	add	r0, r6, r0, lsl #23
    3988:	e8bd4070 	pop	{r4, r5, r6, lr}
    398c:	e12fff1e 	bx	lr
    3990:	e1a01000 	mov	r1, r0
    3994:	eb000328 	bl	463c <__aeabi_fmul>
    3998:	e1a01004 	mov	r1, r4
    399c:	eb00027e 	bl	439c <__addsf3>
    39a0:	e8bd4070 	pop	{r4, r5, r6, lr}
    39a4:	e12fff1e 	bx	lr
    39a8:	e1a01004 	mov	r1, r4
    39ac:	eb000279 	bl	4398 <__aeabi_fsub>
    39b0:	e1a01000 	mov	r1, r0
    39b4:	eb000386 	bl	47d4 <__aeabi_fdiv>
    39b8:	eafffff2 	b	3988 <__ieee754_sqrtf+0xc8>
    39bc:	e3a02001 	mov	r2, #1
    39c0:	eaffffd4 	b	3918 <__ieee754_sqrtf+0x58>
    39c4:	7f7fffff 	.word	0x7f7fffff

000039c8 <matherr>:
    39c8:	e3a00000 	mov	r0, #0
    39cc:	e12fff1e 	bx	lr

000039d0 <nan>:
    39d0:	e3a00000 	mov	r0, #0
    39d4:	e59f1000 	ldr	r1, [pc]	; 39dc <nan+0xc>
    39d8:	e12fff1e 	bx	lr
    39dc:	7ff80000 	.word	0x7ff80000

000039e0 <__fpclassifyf>:
    39e0:	e3d00102 	bics	r0, r0, #-2147483648	; 0x80000000
    39e4:	1a000001 	bne	39f0 <__fpclassifyf+0x10>
    39e8:	e3a00002 	mov	r0, #2
    39ec:	e12fff1e 	bx	lr
    39f0:	e2403502 	sub	r3, r0, #8388608	; 0x800000
    39f4:	e353047f 	cmp	r3, #2130706432	; 0x7f000000
    39f8:	2a000001 	bcs	3a04 <__fpclassifyf+0x24>
    39fc:	e3a00004 	mov	r0, #4
    3a00:	e12fff1e 	bx	lr
    3a04:	e59f3024 	ldr	r3, [pc, #36]	; 3a30 <__fpclassifyf+0x50>
    3a08:	e2402001 	sub	r2, r0, #1
    3a0c:	e1520003 	cmp	r2, r3
    3a10:	8a000001 	bhi	3a1c <__fpclassifyf+0x3c>
    3a14:	e3a00003 	mov	r0, #3
    3a18:	e12fff1e 	bx	lr
    3a1c:	e59f3010 	ldr	r3, [pc, #16]	; 3a34 <__fpclassifyf+0x54>
    3a20:	e0503003 	subs	r3, r0, r3
    3a24:	e2730000 	rsbs	r0, r3, #0
    3a28:	e0b00003 	adcs	r0, r0, r3
    3a2c:	e12fff1e 	bx	lr
    3a30:	007ffffe 	.word	0x007ffffe
    3a34:	7f800000 	.word	0x7f800000

00003a38 <__aeabi_drsub>:
    3a38:	e2211102 	eor	r1, r1, #-2147483648	; 0x80000000
    3a3c:	ea000000 	b	3a44 <__adddf3>

00003a40 <__aeabi_dsub>:
    3a40:	e2233102 	eor	r3, r3, #-2147483648	; 0x80000000

00003a44 <__adddf3>:
    3a44:	e92d4030 	push	{r4, r5, lr}
    3a48:	e1a04081 	lsl	r4, r1, #1
    3a4c:	e1a05083 	lsl	r5, r3, #1
    3a50:	e1340005 	teq	r4, r5
    3a54:	01300002 	teqeq	r0, r2
    3a58:	1194c000 	orrsne	ip, r4, r0
    3a5c:	1195c002 	orrsne	ip, r5, r2
    3a60:	11f0cac4 	mvnsne	ip, r4, asr #21
    3a64:	11f0cac5 	mvnsne	ip, r5, asr #21
    3a68:	0a00008c 	beq	3ca0 <__adddf3+0x25c>
    3a6c:	e1a04aa4 	lsr	r4, r4, #21
    3a70:	e0745aa5 	rsbs	r5, r4, r5, lsr #21
    3a74:	b2655000 	rsblt	r5, r5, #0
    3a78:	da000006 	ble	3a98 <__adddf3+0x54>
    3a7c:	e0844005 	add	r4, r4, r5
    3a80:	e0202002 	eor	r2, r0, r2
    3a84:	e0213003 	eor	r3, r1, r3
    3a88:	e0220000 	eor	r0, r2, r0
    3a8c:	e0231001 	eor	r1, r3, r1
    3a90:	e0202002 	eor	r2, r0, r2
    3a94:	e0213003 	eor	r3, r1, r3
    3a98:	e3550036 	cmp	r5, #54	; 0x36
    3a9c:	88bd4030 	pophi	{r4, r5, lr}
    3aa0:	812fff1e 	bxhi	lr
    3aa4:	e3110102 	tst	r1, #-2147483648	; 0x80000000
    3aa8:	e1a01601 	lsl	r1, r1, #12
    3aac:	e3a0c601 	mov	ip, #1048576	; 0x100000
    3ab0:	e18c1621 	orr	r1, ip, r1, lsr #12
    3ab4:	0a000001 	beq	3ac0 <__adddf3+0x7c>
    3ab8:	e2700000 	rsbs	r0, r0, #0
    3abc:	e2e11000 	rsc	r1, r1, #0
    3ac0:	e3130102 	tst	r3, #-2147483648	; 0x80000000
    3ac4:	e1a03603 	lsl	r3, r3, #12
    3ac8:	e18c3623 	orr	r3, ip, r3, lsr #12
    3acc:	0a000001 	beq	3ad8 <__adddf3+0x94>
    3ad0:	e2722000 	rsbs	r2, r2, #0
    3ad4:	e2e33000 	rsc	r3, r3, #0
    3ad8:	e1340005 	teq	r4, r5
    3adc:	0a000069 	beq	3c88 <__adddf3+0x244>
    3ae0:	e2444001 	sub	r4, r4, #1
    3ae4:	e275e020 	rsbs	lr, r5, #32
    3ae8:	ba000005 	blt	3b04 <__adddf3+0xc0>
    3aec:	e1a0ce12 	lsl	ip, r2, lr
    3af0:	e0900532 	adds	r0, r0, r2, lsr r5
    3af4:	e2a11000 	adc	r1, r1, #0
    3af8:	e0900e13 	adds	r0, r0, r3, lsl lr
    3afc:	e0b11553 	adcs	r1, r1, r3, asr r5
    3b00:	ea000006 	b	3b20 <__adddf3+0xdc>
    3b04:	e2455020 	sub	r5, r5, #32
    3b08:	e28ee020 	add	lr, lr, #32
    3b0c:	e3520001 	cmp	r2, #1
    3b10:	e1a0ce13 	lsl	ip, r3, lr
    3b14:	238cc002 	orrcs	ip, ip, #2
    3b18:	e0900553 	adds	r0, r0, r3, asr r5
    3b1c:	e0b11fc3 	adcs	r1, r1, r3, asr #31
    3b20:	e2015102 	and	r5, r1, #-2147483648	; 0x80000000
    3b24:	5a000002 	bpl	3b34 <__adddf3+0xf0>
    3b28:	e27cc000 	rsbs	ip, ip, #0
    3b2c:	e2f00000 	rscs	r0, r0, #0
    3b30:	e2e11000 	rsc	r1, r1, #0
    3b34:	e3510601 	cmp	r1, #1048576	; 0x100000
    3b38:	3a00000f 	bcc	3b7c <__adddf3+0x138>
    3b3c:	e3510602 	cmp	r1, #2097152	; 0x200000
    3b40:	3a000006 	bcc	3b60 <__adddf3+0x11c>
    3b44:	e1b010a1 	lsrs	r1, r1, #1
    3b48:	e1b00060 	rrxs	r0, r0
    3b4c:	e1a0c06c 	rrx	ip, ip
    3b50:	e2844001 	add	r4, r4, #1
    3b54:	e1a02a84 	lsl	r2, r4, #21
    3b58:	e3720501 	cmn	r2, #4194304	; 0x400000
    3b5c:	2a00006b 	bcs	3d10 <__adddf3+0x2cc>
    3b60:	e35c0102 	cmp	ip, #-2147483648	; 0x80000000
    3b64:	01b0c0a0 	lsrseq	ip, r0, #1
    3b68:	e2b00000 	adcs	r0, r0, #0
    3b6c:	e0a11a04 	adc	r1, r1, r4, lsl #20
    3b70:	e1811005 	orr	r1, r1, r5
    3b74:	e8bd4030 	pop	{r4, r5, lr}
    3b78:	e12fff1e 	bx	lr
    3b7c:	e1b0c08c 	lsls	ip, ip, #1
    3b80:	e0b00000 	adcs	r0, r0, r0
    3b84:	e0a11001 	adc	r1, r1, r1
    3b88:	e3110601 	tst	r1, #1048576	; 0x100000
    3b8c:	e2444001 	sub	r4, r4, #1
    3b90:	1afffff2 	bne	3b60 <__adddf3+0x11c>
    3b94:	e3310000 	teq	r1, #0
    3b98:	13a03014 	movne	r3, #20
    3b9c:	03a03034 	moveq	r3, #52	; 0x34
    3ba0:	01a01000 	moveq	r1, r0
    3ba4:	03a00000 	moveq	r0, #0
    3ba8:	e1a02001 	mov	r2, r1
    3bac:	e3520801 	cmp	r2, #65536	; 0x10000
    3bb0:	21a02822 	lsrcs	r2, r2, #16
    3bb4:	22433010 	subcs	r3, r3, #16
    3bb8:	e3520c01 	cmp	r2, #256	; 0x100
    3bbc:	21a02422 	lsrcs	r2, r2, #8
    3bc0:	22433008 	subcs	r3, r3, #8
    3bc4:	e3520010 	cmp	r2, #16
    3bc8:	21a02222 	lsrcs	r2, r2, #4
    3bcc:	22433004 	subcs	r3, r3, #4
    3bd0:	e3520004 	cmp	r2, #4
    3bd4:	22433002 	subcs	r3, r3, #2
    3bd8:	304330a2 	subcc	r3, r3, r2, lsr #1
    3bdc:	e04331a2 	sub	r3, r3, r2, lsr #3
    3be0:	e2532020 	subs	r2, r3, #32
    3be4:	aa000007 	bge	3c08 <__adddf3+0x1c4>
    3be8:	e292200c 	adds	r2, r2, #12
    3bec:	da000004 	ble	3c04 <__adddf3+0x1c0>
    3bf0:	e282c014 	add	ip, r2, #20
    3bf4:	e262200c 	rsb	r2, r2, #12
    3bf8:	e1a00c11 	lsl	r0, r1, ip
    3bfc:	e1a01231 	lsr	r1, r1, r2
    3c00:	ea000004 	b	3c18 <__adddf3+0x1d4>
    3c04:	e2822014 	add	r2, r2, #20
    3c08:	d262c020 	rsble	ip, r2, #32
    3c0c:	e1a01211 	lsl	r1, r1, r2
    3c10:	d1811c30 	orrle	r1, r1, r0, lsr ip
    3c14:	d1a00210 	lslle	r0, r0, r2
    3c18:	e0544003 	subs	r4, r4, r3
    3c1c:	a0811a04 	addge	r1, r1, r4, lsl #20
    3c20:	a1811005 	orrge	r1, r1, r5
    3c24:	a8bd4030 	popge	{r4, r5, lr}
    3c28:	a12fff1e 	bxge	lr
    3c2c:	e1e04004 	mvn	r4, r4
    3c30:	e254401f 	subs	r4, r4, #31
    3c34:	aa00000f 	bge	3c78 <__adddf3+0x234>
    3c38:	e294400c 	adds	r4, r4, #12
    3c3c:	ca000006 	bgt	3c5c <__adddf3+0x218>
    3c40:	e2844014 	add	r4, r4, #20
    3c44:	e2642020 	rsb	r2, r4, #32
    3c48:	e1a00430 	lsr	r0, r0, r4
    3c4c:	e1800211 	orr	r0, r0, r1, lsl r2
    3c50:	e1851431 	orr	r1, r5, r1, lsr r4
    3c54:	e8bd4030 	pop	{r4, r5, lr}
    3c58:	e12fff1e 	bx	lr
    3c5c:	e264400c 	rsb	r4, r4, #12
    3c60:	e2642020 	rsb	r2, r4, #32
    3c64:	e1a00230 	lsr	r0, r0, r2
    3c68:	e1800411 	orr	r0, r0, r1, lsl r4
    3c6c:	e1a01005 	mov	r1, r5
    3c70:	e8bd4030 	pop	{r4, r5, lr}
    3c74:	e12fff1e 	bx	lr
    3c78:	e1a00431 	lsr	r0, r1, r4
    3c7c:	e1a01005 	mov	r1, r5
    3c80:	e8bd4030 	pop	{r4, r5, lr}
    3c84:	e12fff1e 	bx	lr
    3c88:	e3340000 	teq	r4, #0
    3c8c:	e2233601 	eor	r3, r3, #1048576	; 0x100000
    3c90:	02211601 	eoreq	r1, r1, #1048576	; 0x100000
    3c94:	02844001 	addeq	r4, r4, #1
    3c98:	12455001 	subne	r5, r5, #1
    3c9c:	eaffff8f 	b	3ae0 <__adddf3+0x9c>
    3ca0:	e1f0cac4 	mvns	ip, r4, asr #21
    3ca4:	11f0cac5 	mvnsne	ip, r5, asr #21
    3ca8:	0a00001d 	beq	3d24 <__adddf3+0x2e0>
    3cac:	e1340005 	teq	r4, r5
    3cb0:	01300002 	teqeq	r0, r2
    3cb4:	0a000004 	beq	3ccc <__adddf3+0x288>
    3cb8:	e194c000 	orrs	ip, r4, r0
    3cbc:	01a01003 	moveq	r1, r3
    3cc0:	01a00002 	moveq	r0, r2
    3cc4:	e8bd4030 	pop	{r4, r5, lr}
    3cc8:	e12fff1e 	bx	lr
    3ccc:	e1310003 	teq	r1, r3
    3cd0:	13a01000 	movne	r1, #0
    3cd4:	13a00000 	movne	r0, #0
    3cd8:	18bd4030 	popne	{r4, r5, lr}
    3cdc:	112fff1e 	bxne	lr
    3ce0:	e1b0caa4 	lsrs	ip, r4, #21
    3ce4:	1a000004 	bne	3cfc <__adddf3+0x2b8>
    3ce8:	e1b00080 	lsls	r0, r0, #1
    3cec:	e0b11001 	adcs	r1, r1, r1
    3cf0:	23811102 	orrcs	r1, r1, #-2147483648	; 0x80000000
    3cf4:	e8bd4030 	pop	{r4, r5, lr}
    3cf8:	e12fff1e 	bx	lr
    3cfc:	e2944501 	adds	r4, r4, #4194304	; 0x400000
    3d00:	32811601 	addcc	r1, r1, #1048576	; 0x100000
    3d04:	38bd4030 	popcc	{r4, r5, lr}
    3d08:	312fff1e 	bxcc	lr
    3d0c:	e2015102 	and	r5, r1, #-2147483648	; 0x80000000
    3d10:	e385147f 	orr	r1, r5, #2130706432	; 0x7f000000
    3d14:	e381160f 	orr	r1, r1, #15728640	; 0xf00000
    3d18:	e3a00000 	mov	r0, #0
    3d1c:	e8bd4030 	pop	{r4, r5, lr}
    3d20:	e12fff1e 	bx	lr
    3d24:	e1f0cac4 	mvns	ip, r4, asr #21
    3d28:	11a01003 	movne	r1, r3
    3d2c:	11a00002 	movne	r0, r2
    3d30:	01f0cac5 	mvnseq	ip, r5, asr #21
    3d34:	11a03001 	movne	r3, r1
    3d38:	11a02000 	movne	r2, r0
    3d3c:	e1904601 	orrs	r4, r0, r1, lsl #12
    3d40:	01925603 	orrseq	r5, r2, r3, lsl #12
    3d44:	01310003 	teqeq	r1, r3
    3d48:	13811702 	orrne	r1, r1, #524288	; 0x80000
    3d4c:	e8bd4030 	pop	{r4, r5, lr}
    3d50:	e12fff1e 	bx	lr

00003d54 <__aeabi_ui2d>:
    3d54:	e3300000 	teq	r0, #0
    3d58:	03a01000 	moveq	r1, #0
    3d5c:	012fff1e 	bxeq	lr
    3d60:	e92d4030 	push	{r4, r5, lr}
    3d64:	e3a04b01 	mov	r4, #1024	; 0x400
    3d68:	e2844032 	add	r4, r4, #50	; 0x32
    3d6c:	e3a05000 	mov	r5, #0
    3d70:	e3a01000 	mov	r1, #0
    3d74:	eaffff86 	b	3b94 <__adddf3+0x150>

00003d78 <__aeabi_i2d>:
    3d78:	e3300000 	teq	r0, #0
    3d7c:	03a01000 	moveq	r1, #0
    3d80:	012fff1e 	bxeq	lr
    3d84:	e92d4030 	push	{r4, r5, lr}
    3d88:	e3a04b01 	mov	r4, #1024	; 0x400
    3d8c:	e2844032 	add	r4, r4, #50	; 0x32
    3d90:	e2105102 	ands	r5, r0, #-2147483648	; 0x80000000
    3d94:	42600000 	rsbmi	r0, r0, #0
    3d98:	e3a01000 	mov	r1, #0
    3d9c:	eaffff7c 	b	3b94 <__adddf3+0x150>

00003da0 <__aeabi_f2d>:
    3da0:	e1b02080 	lsls	r2, r0, #1
    3da4:	e1a011c2 	asr	r1, r2, #3
    3da8:	e1a01061 	rrx	r1, r1
    3dac:	e1a00e02 	lsl	r0, r2, #28
    3db0:	121234ff 	andsne	r3, r2, #-16777216	; 0xff000000
    3db4:	133304ff 	teqne	r3, #-16777216	; 0xff000000
    3db8:	1221130e 	eorne	r1, r1, #939524096	; 0x38000000
    3dbc:	112fff1e 	bxne	lr
    3dc0:	e3320000 	teq	r2, #0
    3dc4:	133304ff 	teqne	r3, #-16777216	; 0xff000000
    3dc8:	012fff1e 	bxeq	lr
    3dcc:	e92d4030 	push	{r4, r5, lr}
    3dd0:	e3a04d0e 	mov	r4, #896	; 0x380
    3dd4:	e2015102 	and	r5, r1, #-2147483648	; 0x80000000
    3dd8:	e3c11102 	bic	r1, r1, #-2147483648	; 0x80000000
    3ddc:	eaffff6c 	b	3b94 <__adddf3+0x150>

00003de0 <__aeabi_ul2d>:
    3de0:	e1902001 	orrs	r2, r0, r1
    3de4:	012fff1e 	bxeq	lr
    3de8:	e92d4030 	push	{r4, r5, lr}
    3dec:	e3a05000 	mov	r5, #0
    3df0:	ea000006 	b	3e10 <__aeabi_l2d+0x1c>

00003df4 <__aeabi_l2d>:
    3df4:	e1902001 	orrs	r2, r0, r1
    3df8:	012fff1e 	bxeq	lr
    3dfc:	e92d4030 	push	{r4, r5, lr}
    3e00:	e2115102 	ands	r5, r1, #-2147483648	; 0x80000000
    3e04:	5a000001 	bpl	3e10 <__aeabi_l2d+0x1c>
    3e08:	e2700000 	rsbs	r0, r0, #0
    3e0c:	e2e11000 	rsc	r1, r1, #0
    3e10:	e3a04b01 	mov	r4, #1024	; 0x400
    3e14:	e2844032 	add	r4, r4, #50	; 0x32
    3e18:	e1b0cb21 	lsrs	ip, r1, #22
    3e1c:	0affff44 	beq	3b34 <__adddf3+0xf0>
    3e20:	e3a02003 	mov	r2, #3
    3e24:	e1b0c1ac 	lsrs	ip, ip, #3
    3e28:	12822003 	addne	r2, r2, #3
    3e2c:	e1b0c1ac 	lsrs	ip, ip, #3
    3e30:	12822003 	addne	r2, r2, #3
    3e34:	e08221ac 	add	r2, r2, ip, lsr #3
    3e38:	e2623020 	rsb	r3, r2, #32
    3e3c:	e1a0c310 	lsl	ip, r0, r3
    3e40:	e1a00230 	lsr	r0, r0, r2
    3e44:	e1800311 	orr	r0, r0, r1, lsl r3
    3e48:	e1a01231 	lsr	r1, r1, r2
    3e4c:	e0844002 	add	r4, r4, r2
    3e50:	eaffff37 	b	3b34 <__adddf3+0xf0>

00003e54 <__aeabi_dmul>:
    3e54:	e92d4070 	push	{r4, r5, r6, lr}
    3e58:	e3a0c0ff 	mov	ip, #255	; 0xff
    3e5c:	e38ccc07 	orr	ip, ip, #1792	; 0x700
    3e60:	e01c4a21 	ands	r4, ip, r1, lsr #20
    3e64:	101c5a23 	andsne	r5, ip, r3, lsr #20
    3e68:	1134000c 	teqne	r4, ip
    3e6c:	1135000c 	teqne	r5, ip
    3e70:	0b000075 	bleq	404c <__aeabi_dmul+0x1f8>
    3e74:	e0844005 	add	r4, r4, r5
    3e78:	e0216003 	eor	r6, r1, r3
    3e7c:	e1c11a8c 	bic	r1, r1, ip, lsl #21
    3e80:	e1c33a8c 	bic	r3, r3, ip, lsl #21
    3e84:	e1905601 	orrs	r5, r0, r1, lsl #12
    3e88:	11925603 	orrsne	r5, r2, r3, lsl #12
    3e8c:	e3811601 	orr	r1, r1, #1048576	; 0x100000
    3e90:	e3833601 	orr	r3, r3, #1048576	; 0x100000
    3e94:	0a00001d 	beq	3f10 <__aeabi_dmul+0xbc>
    3e98:	e08ec290 	umull	ip, lr, r0, r2
    3e9c:	e3a05000 	mov	r5, #0
    3ea0:	e0a5e291 	umlal	lr, r5, r1, r2
    3ea4:	e2062102 	and	r2, r6, #-2147483648	; 0x80000000
    3ea8:	e0a5e390 	umlal	lr, r5, r0, r3
    3eac:	e3a06000 	mov	r6, #0
    3eb0:	e0a65391 	umlal	r5, r6, r1, r3
    3eb4:	e33c0000 	teq	ip, #0
    3eb8:	138ee001 	orrne	lr, lr, #1
    3ebc:	e24440ff 	sub	r4, r4, #255	; 0xff
    3ec0:	e3560c02 	cmp	r6, #512	; 0x200
    3ec4:	e2c44c03 	sbc	r4, r4, #768	; 0x300
    3ec8:	2a000002 	bcs	3ed8 <__aeabi_dmul+0x84>
    3ecc:	e1b0e08e 	lsls	lr, lr, #1
    3ed0:	e0b55005 	adcs	r5, r5, r5
    3ed4:	e0a66006 	adc	r6, r6, r6
    3ed8:	e1821586 	orr	r1, r2, r6, lsl #11
    3edc:	e1811aa5 	orr	r1, r1, r5, lsr #21
    3ee0:	e1a00585 	lsl	r0, r5, #11
    3ee4:	e1800aae 	orr	r0, r0, lr, lsr #21
    3ee8:	e1a0e58e 	lsl	lr, lr, #11
    3eec:	e254c0fd 	subs	ip, r4, #253	; 0xfd
    3ef0:	835c0c07 	cmphi	ip, #1792	; 0x700
    3ef4:	8a000011 	bhi	3f40 <__aeabi_dmul+0xec>
    3ef8:	e35e0102 	cmp	lr, #-2147483648	; 0x80000000
    3efc:	01b0e0a0 	lsrseq	lr, r0, #1
    3f00:	e2b00000 	adcs	r0, r0, #0
    3f04:	e0a11a04 	adc	r1, r1, r4, lsl #20
    3f08:	e8bd4070 	pop	{r4, r5, r6, lr}
    3f0c:	e12fff1e 	bx	lr
    3f10:	e2066102 	and	r6, r6, #-2147483648	; 0x80000000
    3f14:	e1861001 	orr	r1, r6, r1
    3f18:	e1800002 	orr	r0, r0, r2
    3f1c:	e0211003 	eor	r1, r1, r3
    3f20:	e05440ac 	subs	r4, r4, ip, lsr #1
    3f24:	c074500c 	rsbsgt	r5, r4, ip
    3f28:	c1811a04 	orrgt	r1, r1, r4, lsl #20
    3f2c:	c8bd4070 	popgt	{r4, r5, r6, lr}
    3f30:	c12fff1e 	bxgt	lr
    3f34:	e3811601 	orr	r1, r1, #1048576	; 0x100000
    3f38:	e3a0e000 	mov	lr, #0
    3f3c:	e2544001 	subs	r4, r4, #1
    3f40:	ca00005d 	bgt	40bc <__aeabi_dmul+0x268>
    3f44:	e3740036 	cmn	r4, #54	; 0x36
    3f48:	d3a00000 	movle	r0, #0
    3f4c:	d2011102 	andle	r1, r1, #-2147483648	; 0x80000000
    3f50:	d8bd4070 	pople	{r4, r5, r6, lr}
    3f54:	d12fff1e 	bxle	lr
    3f58:	e2644000 	rsb	r4, r4, #0
    3f5c:	e2544020 	subs	r4, r4, #32
    3f60:	aa00001a 	bge	3fd0 <__aeabi_dmul+0x17c>
    3f64:	e294400c 	adds	r4, r4, #12
    3f68:	ca00000c 	bgt	3fa0 <__aeabi_dmul+0x14c>
    3f6c:	e2844014 	add	r4, r4, #20
    3f70:	e2645020 	rsb	r5, r4, #32
    3f74:	e1a03510 	lsl	r3, r0, r5
    3f78:	e1a00430 	lsr	r0, r0, r4
    3f7c:	e1800511 	orr	r0, r0, r1, lsl r5
    3f80:	e2012102 	and	r2, r1, #-2147483648	; 0x80000000
    3f84:	e3c11102 	bic	r1, r1, #-2147483648	; 0x80000000
    3f88:	e0900fa3 	adds	r0, r0, r3, lsr #31
    3f8c:	e0a21431 	adc	r1, r2, r1, lsr r4
    3f90:	e19ee083 	orrs	lr, lr, r3, lsl #1
    3f94:	01c00fa3 	biceq	r0, r0, r3, lsr #31
    3f98:	e8bd4070 	pop	{r4, r5, r6, lr}
    3f9c:	e12fff1e 	bx	lr
    3fa0:	e264400c 	rsb	r4, r4, #12
    3fa4:	e2645020 	rsb	r5, r4, #32
    3fa8:	e1a03410 	lsl	r3, r0, r4
    3fac:	e1a00530 	lsr	r0, r0, r5
    3fb0:	e1800411 	orr	r0, r0, r1, lsl r4
    3fb4:	e2011102 	and	r1, r1, #-2147483648	; 0x80000000
    3fb8:	e0900fa3 	adds	r0, r0, r3, lsr #31
    3fbc:	e2a11000 	adc	r1, r1, #0
    3fc0:	e19ee083 	orrs	lr, lr, r3, lsl #1
    3fc4:	01c00fa3 	biceq	r0, r0, r3, lsr #31
    3fc8:	e8bd4070 	pop	{r4, r5, r6, lr}
    3fcc:	e12fff1e 	bx	lr
    3fd0:	e2645020 	rsb	r5, r4, #32
    3fd4:	e18ee510 	orr	lr, lr, r0, lsl r5
    3fd8:	e1a03430 	lsr	r3, r0, r4
    3fdc:	e1833511 	orr	r3, r3, r1, lsl r5
    3fe0:	e1a00431 	lsr	r0, r1, r4
    3fe4:	e2011102 	and	r1, r1, #-2147483648	; 0x80000000
    3fe8:	e1c00431 	bic	r0, r0, r1, lsr r4
    3fec:	e0800fa3 	add	r0, r0, r3, lsr #31
    3ff0:	e19ee083 	orrs	lr, lr, r3, lsl #1
    3ff4:	01c00fa3 	biceq	r0, r0, r3, lsr #31
    3ff8:	e8bd4070 	pop	{r4, r5, r6, lr}
    3ffc:	e12fff1e 	bx	lr
    4000:	e3340000 	teq	r4, #0
    4004:	1a000008 	bne	402c <__aeabi_dmul+0x1d8>
    4008:	e2016102 	and	r6, r1, #-2147483648	; 0x80000000
    400c:	e1b00080 	lsls	r0, r0, #1
    4010:	e0a11001 	adc	r1, r1, r1
    4014:	e3110601 	tst	r1, #1048576	; 0x100000
    4018:	02444001 	subeq	r4, r4, #1
    401c:	0afffffa 	beq	400c <__aeabi_dmul+0x1b8>
    4020:	e1811006 	orr	r1, r1, r6
    4024:	e3350000 	teq	r5, #0
    4028:	112fff1e 	bxne	lr
    402c:	e2036102 	and	r6, r3, #-2147483648	; 0x80000000
    4030:	e1b02082 	lsls	r2, r2, #1
    4034:	e0a33003 	adc	r3, r3, r3
    4038:	e3130601 	tst	r3, #1048576	; 0x100000
    403c:	02455001 	subeq	r5, r5, #1
    4040:	0afffffa 	beq	4030 <__aeabi_dmul+0x1dc>
    4044:	e1833006 	orr	r3, r3, r6
    4048:	e12fff1e 	bx	lr
    404c:	e134000c 	teq	r4, ip
    4050:	e00c5a23 	and	r5, ip, r3, lsr #20
    4054:	1135000c 	teqne	r5, ip
    4058:	0a000007 	beq	407c <__aeabi_dmul+0x228>
    405c:	e1906081 	orrs	r6, r0, r1, lsl #1
    4060:	11926083 	orrsne	r6, r2, r3, lsl #1
    4064:	1affffe5 	bne	4000 <__aeabi_dmul+0x1ac>
    4068:	e0211003 	eor	r1, r1, r3
    406c:	e2011102 	and	r1, r1, #-2147483648	; 0x80000000
    4070:	e3a00000 	mov	r0, #0
    4074:	e8bd4070 	pop	{r4, r5, r6, lr}
    4078:	e12fff1e 	bx	lr
    407c:	e1906081 	orrs	r6, r0, r1, lsl #1
    4080:	01a00002 	moveq	r0, r2
    4084:	01a01003 	moveq	r1, r3
    4088:	11926083 	orrsne	r6, r2, r3, lsl #1
    408c:	0a000010 	beq	40d4 <__aeabi_dmul+0x280>
    4090:	e134000c 	teq	r4, ip
    4094:	1a000001 	bne	40a0 <__aeabi_dmul+0x24c>
    4098:	e1906601 	orrs	r6, r0, r1, lsl #12
    409c:	1a00000c 	bne	40d4 <__aeabi_dmul+0x280>
    40a0:	e135000c 	teq	r5, ip
    40a4:	1a000003 	bne	40b8 <__aeabi_dmul+0x264>
    40a8:	e1926603 	orrs	r6, r2, r3, lsl #12
    40ac:	11a00002 	movne	r0, r2
    40b0:	11a01003 	movne	r1, r3
    40b4:	1a000006 	bne	40d4 <__aeabi_dmul+0x280>
    40b8:	e0211003 	eor	r1, r1, r3
    40bc:	e2011102 	and	r1, r1, #-2147483648	; 0x80000000
    40c0:	e381147f 	orr	r1, r1, #2130706432	; 0x7f000000
    40c4:	e381160f 	orr	r1, r1, #15728640	; 0xf00000
    40c8:	e3a00000 	mov	r0, #0
    40cc:	e8bd4070 	pop	{r4, r5, r6, lr}
    40d0:	e12fff1e 	bx	lr
    40d4:	e381147f 	orr	r1, r1, #2130706432	; 0x7f000000
    40d8:	e381173e 	orr	r1, r1, #16252928	; 0xf80000
    40dc:	e8bd4070 	pop	{r4, r5, r6, lr}
    40e0:	e12fff1e 	bx	lr

000040e4 <__aeabi_ddiv>:
    40e4:	e92d4070 	push	{r4, r5, r6, lr}
    40e8:	e3a0c0ff 	mov	ip, #255	; 0xff
    40ec:	e38ccc07 	orr	ip, ip, #1792	; 0x700
    40f0:	e01c4a21 	ands	r4, ip, r1, lsr #20
    40f4:	101c5a23 	andsne	r5, ip, r3, lsr #20
    40f8:	1134000c 	teqne	r4, ip
    40fc:	1135000c 	teqne	r5, ip
    4100:	0b00005e 	bleq	4280 <__aeabi_ddiv+0x19c>
    4104:	e0444005 	sub	r4, r4, r5
    4108:	e021e003 	eor	lr, r1, r3
    410c:	e1925603 	orrs	r5, r2, r3, lsl #12
    4110:	e1a01601 	lsl	r1, r1, #12
    4114:	0a00004c 	beq	424c <__aeabi_ddiv+0x168>
    4118:	e1a03603 	lsl	r3, r3, #12
    411c:	e3a05201 	mov	r5, #268435456	; 0x10000000
    4120:	e1853223 	orr	r3, r5, r3, lsr #4
    4124:	e1833c22 	orr	r3, r3, r2, lsr #24
    4128:	e1a02402 	lsl	r2, r2, #8
    412c:	e1855221 	orr	r5, r5, r1, lsr #4
    4130:	e1855c20 	orr	r5, r5, r0, lsr #24
    4134:	e1a06400 	lsl	r6, r0, #8
    4138:	e20e1102 	and	r1, lr, #-2147483648	; 0x80000000
    413c:	e1550003 	cmp	r5, r3
    4140:	01560002 	cmpeq	r6, r2
    4144:	e2a440fd 	adc	r4, r4, #253	; 0xfd
    4148:	e2844c03 	add	r4, r4, #768	; 0x300
    414c:	2a000001 	bcs	4158 <__aeabi_ddiv+0x74>
    4150:	e1b030a3 	lsrs	r3, r3, #1
    4154:	e1a02062 	rrx	r2, r2
    4158:	e0566002 	subs	r6, r6, r2
    415c:	e0c55003 	sbc	r5, r5, r3
    4160:	e1b030a3 	lsrs	r3, r3, #1
    4164:	e1a02062 	rrx	r2, r2
    4168:	e3a00601 	mov	r0, #1048576	; 0x100000
    416c:	e3a0c702 	mov	ip, #524288	; 0x80000
    4170:	e056e002 	subs	lr, r6, r2
    4174:	e0d5e003 	sbcs	lr, r5, r3
    4178:	20466002 	subcs	r6, r6, r2
    417c:	21a0500e 	movcs	r5, lr
    4180:	2180000c 	orrcs	r0, r0, ip
    4184:	e1b030a3 	lsrs	r3, r3, #1
    4188:	e1a02062 	rrx	r2, r2
    418c:	e056e002 	subs	lr, r6, r2
    4190:	e0d5e003 	sbcs	lr, r5, r3
    4194:	20466002 	subcs	r6, r6, r2
    4198:	21a0500e 	movcs	r5, lr
    419c:	218000ac 	orrcs	r0, r0, ip, lsr #1
    41a0:	e1b030a3 	lsrs	r3, r3, #1
    41a4:	e1a02062 	rrx	r2, r2
    41a8:	e056e002 	subs	lr, r6, r2
    41ac:	e0d5e003 	sbcs	lr, r5, r3
    41b0:	20466002 	subcs	r6, r6, r2
    41b4:	21a0500e 	movcs	r5, lr
    41b8:	2180012c 	orrcs	r0, r0, ip, lsr #2
    41bc:	e1b030a3 	lsrs	r3, r3, #1
    41c0:	e1a02062 	rrx	r2, r2
    41c4:	e056e002 	subs	lr, r6, r2
    41c8:	e0d5e003 	sbcs	lr, r5, r3
    41cc:	20466002 	subcs	r6, r6, r2
    41d0:	21a0500e 	movcs	r5, lr
    41d4:	218001ac 	orrcs	r0, r0, ip, lsr #3
    41d8:	e195e006 	orrs	lr, r5, r6
    41dc:	0a00000d 	beq	4218 <__aeabi_ddiv+0x134>
    41e0:	e1a05205 	lsl	r5, r5, #4
    41e4:	e1855e26 	orr	r5, r5, r6, lsr #28
    41e8:	e1a06206 	lsl	r6, r6, #4
    41ec:	e1a03183 	lsl	r3, r3, #3
    41f0:	e1833ea2 	orr	r3, r3, r2, lsr #29
    41f4:	e1a02182 	lsl	r2, r2, #3
    41f8:	e1b0c22c 	lsrs	ip, ip, #4
    41fc:	1affffdb 	bne	4170 <__aeabi_ddiv+0x8c>
    4200:	e3110601 	tst	r1, #1048576	; 0x100000
    4204:	1a000006 	bne	4224 <__aeabi_ddiv+0x140>
    4208:	e1811000 	orr	r1, r1, r0
    420c:	e3a00000 	mov	r0, #0
    4210:	e3a0c102 	mov	ip, #-2147483648	; 0x80000000
    4214:	eaffffd5 	b	4170 <__aeabi_ddiv+0x8c>
    4218:	e3110601 	tst	r1, #1048576	; 0x100000
    421c:	01811000 	orreq	r1, r1, r0
    4220:	03a00000 	moveq	r0, #0
    4224:	e254c0fd 	subs	ip, r4, #253	; 0xfd
    4228:	835c0c07 	cmphi	ip, #1792	; 0x700
    422c:	8affff43 	bhi	3f40 <__aeabi_dmul+0xec>
    4230:	e055c003 	subs	ip, r5, r3
    4234:	0056c002 	subseq	ip, r6, r2
    4238:	01b0c0a0 	lsrseq	ip, r0, #1
    423c:	e2b00000 	adcs	r0, r0, #0
    4240:	e0a11a04 	adc	r1, r1, r4, lsl #20
    4244:	e8bd4070 	pop	{r4, r5, r6, lr}
    4248:	e12fff1e 	bx	lr
    424c:	e20ee102 	and	lr, lr, #-2147483648	; 0x80000000
    4250:	e18e1621 	orr	r1, lr, r1, lsr #12
    4254:	e09440ac 	adds	r4, r4, ip, lsr #1
    4258:	c074500c 	rsbsgt	r5, r4, ip
    425c:	c1811a04 	orrgt	r1, r1, r4, lsl #20
    4260:	c8bd4070 	popgt	{r4, r5, r6, lr}
    4264:	c12fff1e 	bxgt	lr
    4268:	e3811601 	orr	r1, r1, #1048576	; 0x100000
    426c:	e3a0e000 	mov	lr, #0
    4270:	e2544001 	subs	r4, r4, #1
    4274:	eaffff31 	b	3f40 <__aeabi_dmul+0xec>
    4278:	e185e006 	orr	lr, r5, r6
    427c:	eaffff2f 	b	3f40 <__aeabi_dmul+0xec>
    4280:	e00c5a23 	and	r5, ip, r3, lsr #20
    4284:	e134000c 	teq	r4, ip
    4288:	0135000c 	teqeq	r5, ip
    428c:	0affff90 	beq	40d4 <__aeabi_dmul+0x280>
    4290:	e134000c 	teq	r4, ip
    4294:	1a000006 	bne	42b4 <__aeabi_ddiv+0x1d0>
    4298:	e1904601 	orrs	r4, r0, r1, lsl #12
    429c:	1affff8c 	bne	40d4 <__aeabi_dmul+0x280>
    42a0:	e135000c 	teq	r5, ip
    42a4:	1affff83 	bne	40b8 <__aeabi_dmul+0x264>
    42a8:	e1a00002 	mov	r0, r2
    42ac:	e1a01003 	mov	r1, r3
    42b0:	eaffff87 	b	40d4 <__aeabi_dmul+0x280>
    42b4:	e135000c 	teq	r5, ip
    42b8:	1a000004 	bne	42d0 <__aeabi_ddiv+0x1ec>
    42bc:	e1925603 	orrs	r5, r2, r3, lsl #12
    42c0:	0affff68 	beq	4068 <__aeabi_dmul+0x214>
    42c4:	e1a00002 	mov	r0, r2
    42c8:	e1a01003 	mov	r1, r3
    42cc:	eaffff80 	b	40d4 <__aeabi_dmul+0x280>
    42d0:	e1906081 	orrs	r6, r0, r1, lsl #1
    42d4:	11926083 	orrsne	r6, r2, r3, lsl #1
    42d8:	1affff48 	bne	4000 <__aeabi_dmul+0x1ac>
    42dc:	e1904081 	orrs	r4, r0, r1, lsl #1
    42e0:	1affff74 	bne	40b8 <__aeabi_dmul+0x264>
    42e4:	e1925083 	orrs	r5, r2, r3, lsl #1
    42e8:	1affff5e 	bne	4068 <__aeabi_dmul+0x214>
    42ec:	eaffff78 	b	40d4 <__aeabi_dmul+0x280>

000042f0 <__aeabi_d2f>:
    42f0:	e1a02081 	lsl	r2, r1, #1
    42f4:	e2523207 	subs	r3, r2, #1879048192	; 0x70000000
    42f8:	2253c602 	subscs	ip, r3, #2097152	; 0x200000
    42fc:	227cc57f 	rsbscs	ip, ip, #532676608	; 0x1fc00000
    4300:	9a000006 	bls	4320 <__aeabi_d2f+0x30>
    4304:	e201c102 	and	ip, r1, #-2147483648	; 0x80000000
    4308:	e1a02180 	lsl	r2, r0, #3
    430c:	e18c0ea0 	orr	r0, ip, r0, lsr #29
    4310:	e3520102 	cmp	r2, #-2147483648	; 0x80000000
    4314:	e0a00103 	adc	r0, r0, r3, lsl #2
    4318:	03c00001 	biceq	r0, r0, #1
    431c:	e12fff1e 	bx	lr
    4320:	e3110101 	tst	r1, #1073741824	; 0x40000000
    4324:	1a00000f 	bne	4368 <__aeabi_d2f+0x78>
    4328:	e293262e 	adds	r2, r3, #48234496	; 0x2e00000
    432c:	b2010102 	andlt	r0, r1, #-2147483648	; 0x80000000
    4330:	b12fff1e 	bxlt	lr
    4334:	e3811601 	orr	r1, r1, #1048576	; 0x100000
    4338:	e1a02aa2 	lsr	r2, r2, #21
    433c:	e2622018 	rsb	r2, r2, #24
    4340:	e262c020 	rsb	ip, r2, #32
    4344:	e1b03c10 	lsls	r3, r0, ip
    4348:	e1a00230 	lsr	r0, r0, r2
    434c:	13800001 	orrne	r0, r0, #1
    4350:	e1a03581 	lsl	r3, r1, #11
    4354:	e1a035a3 	lsr	r3, r3, #11
    4358:	e1800c13 	orr	r0, r0, r3, lsl ip
    435c:	e1a03233 	lsr	r3, r3, r2
    4360:	e1a03083 	lsl	r3, r3, #1
    4364:	eaffffe6 	b	4304 <__aeabi_d2f+0x14>
    4368:	e1f03ac2 	mvns	r3, r2, asr #21
    436c:	1a000003 	bne	4380 <__aeabi_d2f+0x90>
    4370:	e1903601 	orrs	r3, r0, r1, lsl #12
    4374:	13a0047f 	movne	r0, #2130706432	; 0x7f000000
    4378:	13800503 	orrne	r0, r0, #12582912	; 0xc00000
    437c:	112fff1e 	bxne	lr
    4380:	e2010102 	and	r0, r1, #-2147483648	; 0x80000000
    4384:	e380047f 	orr	r0, r0, #2130706432	; 0x7f000000
    4388:	e3800502 	orr	r0, r0, #8388608	; 0x800000
    438c:	e12fff1e 	bx	lr

00004390 <__aeabi_frsub>:
    4390:	e2200102 	eor	r0, r0, #-2147483648	; 0x80000000
    4394:	ea000000 	b	439c <__addsf3>

00004398 <__aeabi_fsub>:
    4398:	e2211102 	eor	r1, r1, #-2147483648	; 0x80000000

0000439c <__addsf3>:
    439c:	e1b02080 	lsls	r2, r0, #1
    43a0:	11b03081 	lslsne	r3, r1, #1
    43a4:	11320003 	teqne	r2, r3
    43a8:	11f0cc42 	mvnsne	ip, r2, asr #24
    43ac:	11f0cc43 	mvnsne	ip, r3, asr #24
    43b0:	0a000047 	beq	44d4 <__addsf3+0x138>
    43b4:	e1a02c22 	lsr	r2, r2, #24
    43b8:	e0723c23 	rsbs	r3, r2, r3, lsr #24
    43bc:	c0822003 	addgt	r2, r2, r3
    43c0:	c0201001 	eorgt	r1, r0, r1
    43c4:	c0210000 	eorgt	r0, r1, r0
    43c8:	c0201001 	eorgt	r1, r0, r1
    43cc:	b2633000 	rsblt	r3, r3, #0
    43d0:	e3530019 	cmp	r3, #25
    43d4:	812fff1e 	bxhi	lr
    43d8:	e3100102 	tst	r0, #-2147483648	; 0x80000000
    43dc:	e3800502 	orr	r0, r0, #8388608	; 0x800000
    43e0:	e3c004ff 	bic	r0, r0, #-16777216	; 0xff000000
    43e4:	12600000 	rsbne	r0, r0, #0
    43e8:	e3110102 	tst	r1, #-2147483648	; 0x80000000
    43ec:	e3811502 	orr	r1, r1, #8388608	; 0x800000
    43f0:	e3c114ff 	bic	r1, r1, #-16777216	; 0xff000000
    43f4:	12611000 	rsbne	r1, r1, #0
    43f8:	e1320003 	teq	r2, r3
    43fc:	0a00002e 	beq	44bc <__addsf3+0x120>
    4400:	e2422001 	sub	r2, r2, #1
    4404:	e0900351 	adds	r0, r0, r1, asr r3
    4408:	e2633020 	rsb	r3, r3, #32
    440c:	e1a01311 	lsl	r1, r1, r3
    4410:	e2003102 	and	r3, r0, #-2147483648	; 0x80000000
    4414:	5a000001 	bpl	4420 <__addsf3+0x84>
    4418:	e2711000 	rsbs	r1, r1, #0
    441c:	e2e00000 	rsc	r0, r0, #0
    4420:	e3500502 	cmp	r0, #8388608	; 0x800000
    4424:	3a00000b 	bcc	4458 <__addsf3+0xbc>
    4428:	e3500401 	cmp	r0, #16777216	; 0x1000000
    442c:	3a000004 	bcc	4444 <__addsf3+0xa8>
    4430:	e1b000a0 	lsrs	r0, r0, #1
    4434:	e1a01061 	rrx	r1, r1
    4438:	e2822001 	add	r2, r2, #1
    443c:	e35200fe 	cmp	r2, #254	; 0xfe
    4440:	2a000038 	bcs	4528 <__addsf3+0x18c>
    4444:	e3510102 	cmp	r1, #-2147483648	; 0x80000000
    4448:	e0a00b82 	adc	r0, r0, r2, lsl #23
    444c:	03c00001 	biceq	r0, r0, #1
    4450:	e1800003 	orr	r0, r0, r3
    4454:	e12fff1e 	bx	lr
    4458:	e1b01081 	lsls	r1, r1, #1
    445c:	e0a00000 	adc	r0, r0, r0
    4460:	e3100502 	tst	r0, #8388608	; 0x800000
    4464:	e2422001 	sub	r2, r2, #1
    4468:	1afffff5 	bne	4444 <__addsf3+0xa8>
    446c:	e1b0c620 	lsrs	ip, r0, #12
    4470:	01a00600 	lsleq	r0, r0, #12
    4474:	0242200c 	subeq	r2, r2, #12
    4478:	e31008ff 	tst	r0, #16711680	; 0xff0000
    447c:	01a00400 	lsleq	r0, r0, #8
    4480:	02422008 	subeq	r2, r2, #8
    4484:	e310060f 	tst	r0, #15728640	; 0xf00000
    4488:	01a00200 	lsleq	r0, r0, #4
    448c:	02422004 	subeq	r2, r2, #4
    4490:	e3100503 	tst	r0, #12582912	; 0xc00000
    4494:	01a00100 	lsleq	r0, r0, #2
    4498:	02422002 	subeq	r2, r2, #2
    449c:	e3500502 	cmp	r0, #8388608	; 0x800000
    44a0:	31a00080 	lslcc	r0, r0, #1
    44a4:	e2d22000 	sbcs	r2, r2, #0
    44a8:	a0800b82 	addge	r0, r0, r2, lsl #23
    44ac:	b2622000 	rsblt	r2, r2, #0
    44b0:	a1800003 	orrge	r0, r0, r3
    44b4:	b1830230 	orrlt	r0, r3, r0, lsr r2
    44b8:	e12fff1e 	bx	lr
    44bc:	e3320000 	teq	r2, #0
    44c0:	e2211502 	eor	r1, r1, #8388608	; 0x800000
    44c4:	02200502 	eoreq	r0, r0, #8388608	; 0x800000
    44c8:	02822001 	addeq	r2, r2, #1
    44cc:	12433001 	subne	r3, r3, #1
    44d0:	eaffffca 	b	4400 <__addsf3+0x64>
    44d4:	e1a03081 	lsl	r3, r1, #1
    44d8:	e1f0cc42 	mvns	ip, r2, asr #24
    44dc:	11f0cc43 	mvnsne	ip, r3, asr #24
    44e0:	0a000013 	beq	4534 <__addsf3+0x198>
    44e4:	e1320003 	teq	r2, r3
    44e8:	0a000002 	beq	44f8 <__addsf3+0x15c>
    44ec:	e3320000 	teq	r2, #0
    44f0:	01a00001 	moveq	r0, r1
    44f4:	e12fff1e 	bx	lr
    44f8:	e1300001 	teq	r0, r1
    44fc:	13a00000 	movne	r0, #0
    4500:	112fff1e 	bxne	lr
    4504:	e31204ff 	tst	r2, #-16777216	; 0xff000000
    4508:	1a000002 	bne	4518 <__addsf3+0x17c>
    450c:	e1b00080 	lsls	r0, r0, #1
    4510:	23800102 	orrcs	r0, r0, #-2147483648	; 0x80000000
    4514:	e12fff1e 	bx	lr
    4518:	e2922402 	adds	r2, r2, #33554432	; 0x2000000
    451c:	32800502 	addcc	r0, r0, #8388608	; 0x800000
    4520:	312fff1e 	bxcc	lr
    4524:	e2003102 	and	r3, r0, #-2147483648	; 0x80000000
    4528:	e383047f 	orr	r0, r3, #2130706432	; 0x7f000000
    452c:	e3800502 	orr	r0, r0, #8388608	; 0x800000
    4530:	e12fff1e 	bx	lr
    4534:	e1f02c42 	mvns	r2, r2, asr #24
    4538:	11a00001 	movne	r0, r1
    453c:	01f03c43 	mvnseq	r3, r3, asr #24
    4540:	11a01000 	movne	r1, r0
    4544:	e1b02480 	lsls	r2, r0, #9
    4548:	01b03481 	lslseq	r3, r1, #9
    454c:	01300001 	teqeq	r0, r1
    4550:	13800501 	orrne	r0, r0, #4194304	; 0x400000
    4554:	e12fff1e 	bx	lr

00004558 <__aeabi_ui2f>:
    4558:	e3a03000 	mov	r3, #0
    455c:	ea000001 	b	4568 <__aeabi_i2f+0x8>

00004560 <__aeabi_i2f>:
    4560:	e2103102 	ands	r3, r0, #-2147483648	; 0x80000000
    4564:	42600000 	rsbmi	r0, r0, #0
    4568:	e1b0c000 	movs	ip, r0
    456c:	012fff1e 	bxeq	lr
    4570:	e383344b 	orr	r3, r3, #1258291200	; 0x4b000000
    4574:	e1a01000 	mov	r1, r0
    4578:	e3a00000 	mov	r0, #0
    457c:	ea00000f 	b	45c0 <__aeabi_l2f+0x30>

00004580 <__aeabi_ul2f>:
    4580:	e1902001 	orrs	r2, r0, r1
    4584:	012fff1e 	bxeq	lr
    4588:	e3a03000 	mov	r3, #0
    458c:	ea000005 	b	45a8 <__aeabi_l2f+0x18>

00004590 <__aeabi_l2f>:
    4590:	e1902001 	orrs	r2, r0, r1
    4594:	012fff1e 	bxeq	lr
    4598:	e2113102 	ands	r3, r1, #-2147483648	; 0x80000000
    459c:	5a000001 	bpl	45a8 <__aeabi_l2f+0x18>
    45a0:	e2700000 	rsbs	r0, r0, #0
    45a4:	e2e11000 	rsc	r1, r1, #0
    45a8:	e1b0c001 	movs	ip, r1
    45ac:	01a0c000 	moveq	ip, r0
    45b0:	01a01000 	moveq	r1, r0
    45b4:	03a00000 	moveq	r0, #0
    45b8:	e383345b 	orr	r3, r3, #1526726656	; 0x5b000000
    45bc:	02433201 	subeq	r3, r3, #268435456	; 0x10000000
    45c0:	e2433502 	sub	r3, r3, #8388608	; 0x800000
    45c4:	e3a02017 	mov	r2, #23
    45c8:	e35c0801 	cmp	ip, #65536	; 0x10000
    45cc:	21a0c82c 	lsrcs	ip, ip, #16
    45d0:	22422010 	subcs	r2, r2, #16
    45d4:	e35c0c01 	cmp	ip, #256	; 0x100
    45d8:	21a0c42c 	lsrcs	ip, ip, #8
    45dc:	22422008 	subcs	r2, r2, #8
    45e0:	e35c0010 	cmp	ip, #16
    45e4:	21a0c22c 	lsrcs	ip, ip, #4
    45e8:	22422004 	subcs	r2, r2, #4
    45ec:	e35c0004 	cmp	ip, #4
    45f0:	22422002 	subcs	r2, r2, #2
    45f4:	304220ac 	subcc	r2, r2, ip, lsr #1
    45f8:	e05221ac 	subs	r2, r2, ip, lsr #3
    45fc:	e0433b82 	sub	r3, r3, r2, lsl #23
    4600:	ba000006 	blt	4620 <__aeabi_l2f+0x90>
    4604:	e0833211 	add	r3, r3, r1, lsl r2
    4608:	e1a0c210 	lsl	ip, r0, r2
    460c:	e2622020 	rsb	r2, r2, #32
    4610:	e35c0102 	cmp	ip, #-2147483648	; 0x80000000
    4614:	e0a30230 	adc	r0, r3, r0, lsr r2
    4618:	03c00001 	biceq	r0, r0, #1
    461c:	e12fff1e 	bx	lr
    4620:	e2822020 	add	r2, r2, #32
    4624:	e1a0c211 	lsl	ip, r1, r2
    4628:	e2622020 	rsb	r2, r2, #32
    462c:	e190008c 	orrs	r0, r0, ip, lsl #1
    4630:	e0a30231 	adc	r0, r3, r1, lsr r2
    4634:	01c00fac 	biceq	r0, r0, ip, lsr #31
    4638:	e12fff1e 	bx	lr

0000463c <__aeabi_fmul>:
    463c:	e3a0c0ff 	mov	ip, #255	; 0xff
    4640:	e01c2ba0 	ands	r2, ip, r0, lsr #23
    4644:	101c3ba1 	andsne	r3, ip, r1, lsr #23
    4648:	1132000c 	teqne	r2, ip
    464c:	1133000c 	teqne	r3, ip
    4650:	0a00003e 	beq	4750 <__aeabi_fmul+0x114>
    4654:	e0822003 	add	r2, r2, r3
    4658:	e020c001 	eor	ip, r0, r1
    465c:	e1b00480 	lsls	r0, r0, #9
    4660:	11b01481 	lslsne	r1, r1, #9
    4664:	0a000010 	beq	46ac <__aeabi_fmul+0x70>
    4668:	e3a03302 	mov	r3, #134217728	; 0x8000000
    466c:	e18302a0 	orr	r0, r3, r0, lsr #5
    4670:	e18312a1 	orr	r1, r3, r1, lsr #5
    4674:	e0813190 	umull	r3, r1, r0, r1
    4678:	e20c0102 	and	r0, ip, #-2147483648	; 0x80000000
    467c:	e3510502 	cmp	r1, #8388608	; 0x800000
    4680:	31a01081 	lslcc	r1, r1, #1
    4684:	31811fa3 	orrcc	r1, r1, r3, lsr #31
    4688:	31a03083 	lslcc	r3, r3, #1
    468c:	e1800001 	orr	r0, r0, r1
    4690:	e2c2207f 	sbc	r2, r2, #127	; 0x7f
    4694:	e35200fd 	cmp	r2, #253	; 0xfd
    4698:	8a00000f 	bhi	46dc <__aeabi_fmul+0xa0>
    469c:	e3530102 	cmp	r3, #-2147483648	; 0x80000000
    46a0:	e0a00b82 	adc	r0, r0, r2, lsl #23
    46a4:	03c00001 	biceq	r0, r0, #1
    46a8:	e12fff1e 	bx	lr
    46ac:	e3300000 	teq	r0, #0
    46b0:	e20cc102 	and	ip, ip, #-2147483648	; 0x80000000
    46b4:	01a01481 	lsleq	r1, r1, #9
    46b8:	e18c04a0 	orr	r0, ip, r0, lsr #9
    46bc:	e18004a1 	orr	r0, r0, r1, lsr #9
    46c0:	e252207f 	subs	r2, r2, #127	; 0x7f
    46c4:	c27230ff 	rsbsgt	r3, r2, #255	; 0xff
    46c8:	c1800b82 	orrgt	r0, r0, r2, lsl #23
    46cc:	c12fff1e 	bxgt	lr
    46d0:	e3800502 	orr	r0, r0, #8388608	; 0x800000
    46d4:	e3a03000 	mov	r3, #0
    46d8:	e2522001 	subs	r2, r2, #1
    46dc:	ca000035 	bgt	47b8 <__aeabi_fmul+0x17c>
    46e0:	e3720019 	cmn	r2, #25
    46e4:	d2000102 	andle	r0, r0, #-2147483648	; 0x80000000
    46e8:	d12fff1e 	bxle	lr
    46ec:	e2622000 	rsb	r2, r2, #0
    46f0:	e1b01080 	lsls	r1, r0, #1
    46f4:	e1a01231 	lsr	r1, r1, r2
    46f8:	e2622020 	rsb	r2, r2, #32
    46fc:	e1a0c210 	lsl	ip, r0, r2
    4700:	e1b00061 	rrxs	r0, r1
    4704:	e2a00000 	adc	r0, r0, #0
    4708:	e193308c 	orrs	r3, r3, ip, lsl #1
    470c:	01c00fac 	biceq	r0, r0, ip, lsr #31
    4710:	e12fff1e 	bx	lr
    4714:	e3320000 	teq	r2, #0
    4718:	e200c102 	and	ip, r0, #-2147483648	; 0x80000000
    471c:	01a00080 	lsleq	r0, r0, #1
    4720:	03100502 	tsteq	r0, #8388608	; 0x800000
    4724:	02422001 	subeq	r2, r2, #1
    4728:	0afffffb 	beq	471c <__aeabi_fmul+0xe0>
    472c:	e180000c 	orr	r0, r0, ip
    4730:	e3330000 	teq	r3, #0
    4734:	e201c102 	and	ip, r1, #-2147483648	; 0x80000000
    4738:	01a01081 	lsleq	r1, r1, #1
    473c:	03110502 	tsteq	r1, #8388608	; 0x800000
    4740:	02433001 	subeq	r3, r3, #1
    4744:	0afffffb 	beq	4738 <__aeabi_fmul+0xfc>
    4748:	e181100c 	orr	r1, r1, ip
    474c:	eaffffc0 	b	4654 <__aeabi_fmul+0x18>
    4750:	e00c3ba1 	and	r3, ip, r1, lsr #23
    4754:	e132000c 	teq	r2, ip
    4758:	1133000c 	teqne	r3, ip
    475c:	0a000005 	beq	4778 <__aeabi_fmul+0x13c>
    4760:	e3d0c102 	bics	ip, r0, #-2147483648	; 0x80000000
    4764:	13d1c102 	bicsne	ip, r1, #-2147483648	; 0x80000000
    4768:	1affffe9 	bne	4714 <__aeabi_fmul+0xd8>
    476c:	e0200001 	eor	r0, r0, r1
    4770:	e2000102 	and	r0, r0, #-2147483648	; 0x80000000
    4774:	e12fff1e 	bx	lr
    4778:	e3300000 	teq	r0, #0
    477c:	13300102 	teqne	r0, #-2147483648	; 0x80000000
    4780:	01a00001 	moveq	r0, r1
    4784:	13310000 	teqne	r1, #0
    4788:	13310102 	teqne	r1, #-2147483648	; 0x80000000
    478c:	0a00000d 	beq	47c8 <__aeabi_fmul+0x18c>
    4790:	e132000c 	teq	r2, ip
    4794:	1a000001 	bne	47a0 <__aeabi_fmul+0x164>
    4798:	e1b02480 	lsls	r2, r0, #9
    479c:	1a000009 	bne	47c8 <__aeabi_fmul+0x18c>
    47a0:	e133000c 	teq	r3, ip
    47a4:	1a000002 	bne	47b4 <__aeabi_fmul+0x178>
    47a8:	e1b03481 	lsls	r3, r1, #9
    47ac:	11a00001 	movne	r0, r1
    47b0:	1a000004 	bne	47c8 <__aeabi_fmul+0x18c>
    47b4:	e0200001 	eor	r0, r0, r1
    47b8:	e2000102 	and	r0, r0, #-2147483648	; 0x80000000
    47bc:	e380047f 	orr	r0, r0, #2130706432	; 0x7f000000
    47c0:	e3800502 	orr	r0, r0, #8388608	; 0x800000
    47c4:	e12fff1e 	bx	lr
    47c8:	e380047f 	orr	r0, r0, #2130706432	; 0x7f000000
    47cc:	e3800503 	orr	r0, r0, #12582912	; 0xc00000
    47d0:	e12fff1e 	bx	lr

000047d4 <__aeabi_fdiv>:
    47d4:	e3a0c0ff 	mov	ip, #255	; 0xff
    47d8:	e01c2ba0 	ands	r2, ip, r0, lsr #23
    47dc:	101c3ba1 	andsne	r3, ip, r1, lsr #23
    47e0:	1132000c 	teqne	r2, ip
    47e4:	1133000c 	teqne	r3, ip
    47e8:	0a00003a 	beq	48d8 <__aeabi_fdiv+0x104>
    47ec:	e0422003 	sub	r2, r2, r3
    47f0:	e020c001 	eor	ip, r0, r1
    47f4:	e1b01481 	lsls	r1, r1, #9
    47f8:	e1a00480 	lsl	r0, r0, #9
    47fc:	0a00001c 	beq	4874 <__aeabi_fdiv+0xa0>
    4800:	e3a03201 	mov	r3, #268435456	; 0x10000000
    4804:	e1831221 	orr	r1, r3, r1, lsr #4
    4808:	e1833220 	orr	r3, r3, r0, lsr #4
    480c:	e20c0102 	and	r0, ip, #-2147483648	; 0x80000000
    4810:	e1530001 	cmp	r3, r1
    4814:	31a03083 	lslcc	r3, r3, #1
    4818:	e2a2207d 	adc	r2, r2, #125	; 0x7d
    481c:	e3a0c502 	mov	ip, #8388608	; 0x800000
    4820:	e1530001 	cmp	r3, r1
    4824:	20433001 	subcs	r3, r3, r1
    4828:	2180000c 	orrcs	r0, r0, ip
    482c:	e15300a1 	cmp	r3, r1, lsr #1
    4830:	204330a1 	subcs	r3, r3, r1, lsr #1
    4834:	218000ac 	orrcs	r0, r0, ip, lsr #1
    4838:	e1530121 	cmp	r3, r1, lsr #2
    483c:	20433121 	subcs	r3, r3, r1, lsr #2
    4840:	2180012c 	orrcs	r0, r0, ip, lsr #2
    4844:	e15301a1 	cmp	r3, r1, lsr #3
    4848:	204331a1 	subcs	r3, r3, r1, lsr #3
    484c:	218001ac 	orrcs	r0, r0, ip, lsr #3
    4850:	e1b03203 	lsls	r3, r3, #4
    4854:	11b0c22c 	lsrsne	ip, ip, #4
    4858:	1afffff0 	bne	4820 <__aeabi_fdiv+0x4c>
    485c:	e35200fd 	cmp	r2, #253	; 0xfd
    4860:	8affff9d 	bhi	46dc <__aeabi_fmul+0xa0>
    4864:	e1530001 	cmp	r3, r1
    4868:	e0a00b82 	adc	r0, r0, r2, lsl #23
    486c:	03c00001 	biceq	r0, r0, #1
    4870:	e12fff1e 	bx	lr
    4874:	e20cc102 	and	ip, ip, #-2147483648	; 0x80000000
    4878:	e18c04a0 	orr	r0, ip, r0, lsr #9
    487c:	e292207f 	adds	r2, r2, #127	; 0x7f
    4880:	c27230ff 	rsbsgt	r3, r2, #255	; 0xff
    4884:	c1800b82 	orrgt	r0, r0, r2, lsl #23
    4888:	c12fff1e 	bxgt	lr
    488c:	e3800502 	orr	r0, r0, #8388608	; 0x800000
    4890:	e3a03000 	mov	r3, #0
    4894:	e2522001 	subs	r2, r2, #1
    4898:	eaffff8f 	b	46dc <__aeabi_fmul+0xa0>
    489c:	e3320000 	teq	r2, #0
    48a0:	e200c102 	and	ip, r0, #-2147483648	; 0x80000000
    48a4:	01a00080 	lsleq	r0, r0, #1
    48a8:	03100502 	tsteq	r0, #8388608	; 0x800000
    48ac:	02422001 	subeq	r2, r2, #1
    48b0:	0afffffb 	beq	48a4 <__aeabi_fdiv+0xd0>
    48b4:	e180000c 	orr	r0, r0, ip
    48b8:	e3330000 	teq	r3, #0
    48bc:	e201c102 	and	ip, r1, #-2147483648	; 0x80000000
    48c0:	01a01081 	lsleq	r1, r1, #1
    48c4:	03110502 	tsteq	r1, #8388608	; 0x800000
    48c8:	02433001 	subeq	r3, r3, #1
    48cc:	0afffffb 	beq	48c0 <__aeabi_fdiv+0xec>
    48d0:	e181100c 	orr	r1, r1, ip
    48d4:	eaffffc4 	b	47ec <__aeabi_fdiv+0x18>
    48d8:	e00c3ba1 	and	r3, ip, r1, lsr #23
    48dc:	e132000c 	teq	r2, ip
    48e0:	1a000005 	bne	48fc <__aeabi_fdiv+0x128>
    48e4:	e1b02480 	lsls	r2, r0, #9
    48e8:	1affffb6 	bne	47c8 <__aeabi_fmul+0x18c>
    48ec:	e133000c 	teq	r3, ip
    48f0:	1affffaf 	bne	47b4 <__aeabi_fmul+0x178>
    48f4:	e1a00001 	mov	r0, r1
    48f8:	eaffffb2 	b	47c8 <__aeabi_fmul+0x18c>
    48fc:	e133000c 	teq	r3, ip
    4900:	1a000003 	bne	4914 <__aeabi_fdiv+0x140>
    4904:	e1b03481 	lsls	r3, r1, #9
    4908:	0affff97 	beq	476c <__aeabi_fmul+0x130>
    490c:	e1a00001 	mov	r0, r1
    4910:	eaffffac 	b	47c8 <__aeabi_fmul+0x18c>
    4914:	e3d0c102 	bics	ip, r0, #-2147483648	; 0x80000000
    4918:	13d1c102 	bicsne	ip, r1, #-2147483648	; 0x80000000
    491c:	1affffde 	bne	489c <__aeabi_fdiv+0xc8>
    4920:	e3d02102 	bics	r2, r0, #-2147483648	; 0x80000000
    4924:	1affffa2 	bne	47b4 <__aeabi_fmul+0x178>
    4928:	e3d13102 	bics	r3, r1, #-2147483648	; 0x80000000
    492c:	1affff8e 	bne	476c <__aeabi_fmul+0x130>
    4930:	eaffffa4 	b	47c8 <__aeabi_fmul+0x18c>

00004934 <__gesf2>:
    4934:	e3e0c000 	mvn	ip, #0
    4938:	ea000002 	b	4948 <__cmpsf2+0x4>

0000493c <__lesf2>:
    493c:	e3a0c001 	mov	ip, #1
    4940:	ea000000 	b	4948 <__cmpsf2+0x4>

00004944 <__cmpsf2>:
    4944:	e3a0c001 	mov	ip, #1
    4948:	e52dc004 	push	{ip}		; (str ip, [sp, #-4]!)
    494c:	e1a02080 	lsl	r2, r0, #1
    4950:	e1a03081 	lsl	r3, r1, #1
    4954:	e1f0cc42 	mvns	ip, r2, asr #24
    4958:	11f0cc43 	mvnsne	ip, r3, asr #24
    495c:	0a000007 	beq	4980 <__cmpsf2+0x3c>
    4960:	e28dd004 	add	sp, sp, #4
    4964:	e192c0a3 	orrs	ip, r2, r3, lsr #1
    4968:	11300001 	teqne	r0, r1
    496c:	50520003 	subspl	r0, r2, r3
    4970:	81a00fc1 	asrhi	r0, r1, #31
    4974:	31e00fc1 	mvncc	r0, r1, asr #31
    4978:	13800001 	orrne	r0, r0, #1
    497c:	e12fff1e 	bx	lr
    4980:	e1f0cc42 	mvns	ip, r2, asr #24
    4984:	1a000001 	bne	4990 <__cmpsf2+0x4c>
    4988:	e1b0c480 	lsls	ip, r0, #9
    498c:	1a000003 	bne	49a0 <__cmpsf2+0x5c>
    4990:	e1f0cc43 	mvns	ip, r3, asr #24
    4994:	1afffff1 	bne	4960 <__cmpsf2+0x1c>
    4998:	e1b0c481 	lsls	ip, r1, #9
    499c:	0affffef 	beq	4960 <__cmpsf2+0x1c>
    49a0:	e49d0004 	pop	{r0}		; (ldr r0, [sp], #4)
    49a4:	e12fff1e 	bx	lr

000049a8 <__aeabi_cfrcmple>:
    49a8:	e1a0c000 	mov	ip, r0
    49ac:	e1a00001 	mov	r0, r1
    49b0:	e1a0100c 	mov	r1, ip
    49b4:	eaffffff 	b	49b8 <__aeabi_cfcmpeq>

000049b8 <__aeabi_cfcmpeq>:
    49b8:	e92d400f 	push	{r0, r1, r2, r3, lr}
    49bc:	ebffffe0 	bl	4944 <__cmpsf2>
    49c0:	e3500000 	cmp	r0, #0
    49c4:	43700000 	cmnmi	r0, #0
    49c8:	e8bd400f 	pop	{r0, r1, r2, r3, lr}
    49cc:	e12fff1e 	bx	lr

000049d0 <__aeabi_fcmpeq>:
    49d0:	e52de008 	str	lr, [sp, #-8]!
    49d4:	ebfffff7 	bl	49b8 <__aeabi_cfcmpeq>
    49d8:	03a00001 	moveq	r0, #1
    49dc:	13a00000 	movne	r0, #0
    49e0:	e49de008 	ldr	lr, [sp], #8
    49e4:	e12fff1e 	bx	lr

000049e8 <__aeabi_fcmplt>:
    49e8:	e52de008 	str	lr, [sp, #-8]!
    49ec:	ebfffff1 	bl	49b8 <__aeabi_cfcmpeq>
    49f0:	33a00001 	movcc	r0, #1
    49f4:	23a00000 	movcs	r0, #0
    49f8:	e49de008 	ldr	lr, [sp], #8
    49fc:	e12fff1e 	bx	lr

00004a00 <__aeabi_fcmple>:
    4a00:	e52de008 	str	lr, [sp, #-8]!
    4a04:	ebffffeb 	bl	49b8 <__aeabi_cfcmpeq>
    4a08:	93a00001 	movls	r0, #1
    4a0c:	83a00000 	movhi	r0, #0
    4a10:	e49de008 	ldr	lr, [sp], #8
    4a14:	e12fff1e 	bx	lr

00004a18 <__aeabi_fcmpge>:
    4a18:	e52de008 	str	lr, [sp, #-8]!
    4a1c:	ebffffe1 	bl	49a8 <__aeabi_cfrcmple>
    4a20:	93a00001 	movls	r0, #1
    4a24:	83a00000 	movhi	r0, #0
    4a28:	e49de008 	ldr	lr, [sp], #8
    4a2c:	e12fff1e 	bx	lr

00004a30 <__aeabi_fcmpgt>:
    4a30:	e52de008 	str	lr, [sp, #-8]!
    4a34:	ebffffdb 	bl	49a8 <__aeabi_cfrcmple>
    4a38:	33a00001 	movcc	r0, #1
    4a3c:	23a00000 	movcs	r0, #0
    4a40:	e49de008 	ldr	lr, [sp], #8
    4a44:	e12fff1e 	bx	lr

00004a48 <__gnu_subda3>:
    4a48:	e0500002 	subs	r0, r0, r2
    4a4c:	e0c11003 	sbc	r1, r1, r3
    4a50:	e12fff1e 	bx	lr

00004a54 <__gnu_mulda3>:
    4a54:	e52de004 	push	{lr}		; (str lr, [sp, #-4]!)
    4a58:	e3a0c000 	mov	ip, #0
    4a5c:	e24dd00c 	sub	sp, sp, #12
    4a60:	e58dc000 	str	ip, [sp]
    4a64:	eb00000f 	bl	4aa8 <__gnu_mulhelperda>
    4a68:	e28dd00c 	add	sp, sp, #12
    4a6c:	e49de004 	pop	{lr}		; (ldr lr, [sp], #4)
    4a70:	e12fff1e 	bx	lr

00004a74 <__gnu_mulusq3>:
    4a74:	e92d4008 	push	{r3, lr}
    4a78:	e3a02000 	mov	r2, #0
    4a7c:	eb000075 	bl	4c58 <__gnu_mulhelperusq>
    4a80:	e8bd4008 	pop	{r3, lr}
    4a84:	e12fff1e 	bx	lr

00004a88 <__gnu_muluda3>:
    4a88:	e52de004 	push	{lr}		; (str lr, [sp, #-4]!)
    4a8c:	e3a0c000 	mov	ip, #0
    4a90:	e24dd00c 	sub	sp, sp, #12
    4a94:	e58dc000 	str	ip, [sp]
    4a98:	eb00007f 	bl	4c9c <__gnu_mulhelperuda>
    4a9c:	e28dd00c 	add	sp, sp, #12
    4aa0:	e49de004 	pop	{lr}		; (ldr lr, [sp], #4)
    4aa4:	e12fff1e 	bx	lr

00004aa8 <__gnu_mulhelperda>:
    4aa8:	e92d4ff0 	push	{r4, r5, r6, r7, r8, r9, sl, fp, lr}
    4aac:	e24dd024 	sub	sp, sp, #36	; 0x24
    4ab0:	e88d0003 	stm	sp, {r0, r1}
    4ab4:	e59d4000 	ldr	r4, [sp]
    4ab8:	e1a0b003 	mov	fp, r3
    4abc:	e59d3004 	ldr	r3, [sp, #4]
    4ac0:	e0876294 	umull	r6, r7, r4, r2
    4ac4:	e0898392 	umull	r8, r9, r2, r3
    4ac8:	e1a0a002 	mov	sl, r2
    4acc:	e3a02000 	mov	r2, #0
    4ad0:	e0960002 	adds	r0, r6, r2
    4ad4:	e0a71008 	adc	r1, r7, r8
    4ad8:	e1a03008 	mov	r3, r8
    4adc:	e59d8004 	ldr	r8, [sp, #4]
    4ae0:	e1510007 	cmp	r1, r7
    4ae4:	01500006 	cmpeq	r0, r6
    4ae8:	e087689b 	umull	r6, r7, fp, r8
    4aec:	e1a0c004 	mov	ip, r4
    4af0:	e0854b9c 	umull	r4, r5, ip, fp
    4af4:	e58d6008 	str	r6, [sp, #8]
    4af8:	e58d700c 	str	r7, [sp, #12]
    4afc:	e1a0c009 	mov	ip, r9
    4b00:	33a08001 	movcc	r8, #1
    4b04:	33a09000 	movcc	r9, #0
    4b08:	3a000004 	bcc	4b20 <__gnu_mulhelperda+0x78>
    4b0c:	e1510003 	cmp	r1, r3
    4b10:	01500002 	cmpeq	r0, r2
    4b14:	23a08000 	movcs	r8, #0
    4b18:	33a08001 	movcc	r8, #1
    4b1c:	e1a09002 	mov	r9, r2
    4b20:	e3a06000 	mov	r6, #0
    4b24:	e1a02000 	mov	r2, r0
    4b28:	e0900006 	adds	r0, r0, r6
    4b2c:	e1a03001 	mov	r3, r1
    4b30:	e0a11004 	adc	r1, r1, r4
    4b34:	e1530001 	cmp	r3, r1
    4b38:	01520000 	cmpeq	r2, r0
    4b3c:	e1a07004 	mov	r7, r4
    4b40:	8a00003a 	bhi	4c30 <__gnu_mulhelperda+0x188>
    4b44:	e1510007 	cmp	r1, r7
    4b48:	01500006 	cmpeq	r0, r6
    4b4c:	3a000037 	bcc	4c30 <__gnu_mulhelperda+0x188>
    4b50:	e28d7008 	add	r7, sp, #8
    4b54:	e89700c0 	ldm	r7, {r6, r7}
    4b58:	e3a03000 	mov	r3, #0
    4b5c:	e096600c 	adds	r6, r6, ip
    4b60:	e0a77003 	adc	r7, r7, r3
    4b64:	e0952006 	adds	r2, r5, r6
    4b68:	e89d0030 	ldm	sp, {r4, r5}
    4b6c:	e0a33007 	adc	r3, r3, r7
    4b70:	e0922008 	adds	r2, r2, r8
    4b74:	e0a33009 	adc	r3, r3, r9
    4b78:	e3540000 	cmp	r4, #0
    4b7c:	e2d55000 	sbcs	r5, r5, #0
    4b80:	ba000031 	blt	4c4c <__gnu_mulhelperda+0x1a4>
    4b84:	e35a0000 	cmp	sl, #0
    4b88:	e2db6000 	sbcs	r6, fp, #0
    4b8c:	ba00002a 	blt	4c3c <__gnu_mulhelperda+0x194>
    4b90:	e2904101 	adds	r4, r0, #1073741824	; 0x40000000
    4b94:	e2a15000 	adc	r5, r1, #0
    4b98:	e1510005 	cmp	r1, r5
    4b9c:	01500004 	cmpeq	r0, r4
    4ba0:	8a00001f 	bhi	4c24 <__gnu_mulhelperda+0x17c>
    4ba4:	e3e00103 	mvn	r0, #-1073741824	; 0xc0000000
    4ba8:	e3a01000 	mov	r1, #0
    4bac:	e1550001 	cmp	r5, r1
    4bb0:	01540000 	cmpeq	r4, r0
    4bb4:	9a00001a 	bls	4c24 <__gnu_mulhelperda+0x17c>
    4bb8:	e1a00fa4 	lsr	r0, r4, #31
    4bbc:	e59d8048 	ldr	r8, [sp, #72]	; 0x48
    4bc0:	e1800085 	orr	r0, r0, r5, lsl #1
    4bc4:	e1a07082 	lsl	r7, r2, #1
    4bc8:	e1a01fa5 	lsr	r1, r5, #31
    4bcc:	e3a06000 	mov	r6, #0
    4bd0:	e1a02fa2 	lsr	r2, r2, #31
    4bd4:	e1580006 	cmp	r8, r6
    4bd8:	e1877001 	orr	r7, r7, r1
    4bdc:	e1866000 	orr	r6, r6, r0
    4be0:	e1822083 	orr	r2, r2, r3, lsl #1
    4be4:	e1a03fc3 	asr	r3, r3, #31
    4be8:	e58d6018 	str	r6, [sp, #24]
    4bec:	e58d701c 	str	r7, [sp, #28]
    4bf0:	e58d2010 	str	r2, [sp, #16]
    4bf4:	e58d3014 	str	r3, [sp, #20]
    4bf8:	01a00006 	moveq	r0, r6
    4bfc:	01a01007 	moveq	r1, r7
    4c00:	0a000004 	beq	4c18 <__gnu_mulhelperda+0x170>
    4c04:	e28d0010 	add	r0, sp, #16
    4c08:	e28d1018 	add	r1, sp, #24
    4c0c:	eb0000a0 	bl	4e94 <__gnu_saturate2da>
    4c10:	e28d0018 	add	r0, sp, #24
    4c14:	e8900003 	ldm	r0, {r0, r1}
    4c18:	e28dd024 	add	sp, sp, #36	; 0x24
    4c1c:	e8bd4ff0 	pop	{r4, r5, r6, r7, r8, r9, sl, fp, lr}
    4c20:	e12fff1e 	bx	lr
    4c24:	e2922001 	adds	r2, r2, #1
    4c28:	e2a33000 	adc	r3, r3, #0
    4c2c:	eaffffe1 	b	4bb8 <__gnu_mulhelperda+0x110>
    4c30:	e2988001 	adds	r8, r8, #1
    4c34:	e2a99000 	adc	r9, r9, #0
    4c38:	eaffffc4 	b	4b50 <__gnu_mulhelperda+0xa8>
    4c3c:	e89d0180 	ldm	sp, {r7, r8}
    4c40:	e0522007 	subs	r2, r2, r7
    4c44:	e0c33008 	sbc	r3, r3, r8
    4c48:	eaffffd0 	b	4b90 <__gnu_mulhelperda+0xe8>
    4c4c:	e052200a 	subs	r2, r2, sl
    4c50:	e0c3300b 	sbc	r3, r3, fp
    4c54:	eaffffca 	b	4b84 <__gnu_mulhelperda+0xdc>

00004c58 <__gnu_mulhelperusq>:
    4c58:	e92d4030 	push	{r4, r5, lr}
    4c5c:	e3a04102 	mov	r4, #-2147483648	; 0x80000000
    4c60:	e3a05000 	mov	r5, #0
    4c64:	e0a54190 	umlal	r4, r5, r0, r1
    4c68:	e24dd00c 	sub	sp, sp, #12
    4c6c:	e3520000 	cmp	r2, #0
    4c70:	e3a03000 	mov	r3, #0
    4c74:	e58d5000 	str	r5, [sp]
    4c78:	e58d3004 	str	r3, [sp, #4]
    4c7c:	01a00005 	moveq	r0, r5
    4c80:	0a000002 	beq	4c90 <__gnu_mulhelperusq+0x38>
    4c84:	e1a0000d 	mov	r0, sp
    4c88:	eb000078 	bl	4e70 <__gnu_saturate1usq>
    4c8c:	e59d0000 	ldr	r0, [sp]
    4c90:	e28dd00c 	add	sp, sp, #12
    4c94:	e8bd4030 	pop	{r4, r5, lr}
    4c98:	e12fff1e 	bx	lr

00004c9c <__gnu_mulhelperuda>:
    4c9c:	e92d4ff0 	push	{r4, r5, r6, r7, r8, r9, sl, fp, lr}
    4ca0:	e0876092 	umull	r6, r7, r2, r0
    4ca4:	e0898291 	umull	r8, r9, r1, r2
    4ca8:	e3a02000 	mov	r2, #0
    4cac:	e0854093 	umull	r4, r5, r3, r0
    4cb0:	e0960002 	adds	r0, r6, r2
    4cb4:	e1a0a003 	mov	sl, r3
    4cb8:	e1a0b001 	mov	fp, r1
    4cbc:	e0a71008 	adc	r1, r7, r8
    4cc0:	e1570001 	cmp	r7, r1
    4cc4:	01560000 	cmpeq	r6, r0
    4cc8:	e0876a9b 	umull	r6, r7, fp, sl
    4ccc:	e24dd01c 	sub	sp, sp, #28
    4cd0:	e1a03008 	mov	r3, r8
    4cd4:	e1a0c009 	mov	ip, r9
    4cd8:	e1a08005 	mov	r8, r5
    4cdc:	e1a09004 	mov	r9, r4
    4ce0:	e88d00c0 	stm	sp, {r6, r7}
    4ce4:	e59da040 	ldr	sl, [sp, #64]	; 0x40
    4ce8:	83a04001 	movhi	r4, #1
    4cec:	83a05000 	movhi	r5, #0
    4cf0:	8a000004 	bhi	4d08 <__gnu_mulhelperuda+0x6c>
    4cf4:	e1530001 	cmp	r3, r1
    4cf8:	01520000 	cmpeq	r2, r0
    4cfc:	93a04000 	movls	r4, #0
    4d00:	83a04001 	movhi	r4, #1
    4d04:	e1a05002 	mov	r5, r2
    4d08:	e3a06000 	mov	r6, #0
    4d0c:	e1a02000 	mov	r2, r0
    4d10:	e0900006 	adds	r0, r0, r6
    4d14:	e1a03001 	mov	r3, r1
    4d18:	e0a11009 	adc	r1, r1, r9
    4d1c:	e1530001 	cmp	r3, r1
    4d20:	01520000 	cmpeq	r2, r0
    4d24:	e1a07009 	mov	r7, r9
    4d28:	8a000031 	bhi	4df4 <__gnu_mulhelperuda+0x158>
    4d2c:	e1570001 	cmp	r7, r1
    4d30:	01560000 	cmpeq	r6, r0
    4d34:	8a00002e 	bhi	4df4 <__gnu_mulhelperuda+0x158>
    4d38:	e89d00c0 	ldm	sp, {r6, r7}
    4d3c:	e098200c 	adds	r2, r8, ip
    4d40:	e3a03000 	mov	r3, #0
    4d44:	e0a33003 	adc	r3, r3, r3
    4d48:	e0922006 	adds	r2, r2, r6
    4d4c:	e0a33007 	adc	r3, r3, r7
    4d50:	e2908102 	adds	r8, r0, #-2147483648	; 0x80000000
    4d54:	e2a19000 	adc	r9, r1, #0
    4d58:	e0944002 	adds	r4, r4, r2
    4d5c:	e0a55003 	adc	r5, r5, r3
    4d60:	e1510009 	cmp	r1, r9
    4d64:	01500008 	cmpeq	r0, r8
    4d68:	8a00001c 	bhi	4de0 <__gnu_mulhelperuda+0x144>
    4d6c:	e3e02102 	mvn	r2, #-2147483648	; 0x80000000
    4d70:	e3a03000 	mov	r3, #0
    4d74:	e1590003 	cmp	r9, r3
    4d78:	01580002 	cmpeq	r8, r2
    4d7c:	81a01004 	movhi	r1, r4
    4d80:	81a0c005 	movhi	ip, r5
    4d84:	9a000015 	bls	4de0 <__gnu_mulhelperuda+0x144>
    4d88:	e3a02000 	mov	r2, #0
    4d8c:	e1a03001 	mov	r3, r1
    4d90:	e15a0002 	cmp	sl, r2
    4d94:	e1824009 	orr	r4, r2, r9
    4d98:	e1835002 	orr	r5, r3, r2
    4d9c:	e1a00009 	mov	r0, r9
    4da0:	e1a01002 	mov	r1, r2
    4da4:	e58dc008 	str	ip, [sp, #8]
    4da8:	e58d200c 	str	r2, [sp, #12]
    4dac:	e58d4010 	str	r4, [sp, #16]
    4db0:	e58d5014 	str	r5, [sp, #20]
    4db4:	01a00004 	moveq	r0, r4
    4db8:	01a01005 	moveq	r1, r5
    4dbc:	0a000004 	beq	4dd4 <__gnu_mulhelperuda+0x138>
    4dc0:	e28d0008 	add	r0, sp, #8
    4dc4:	e28d1010 	add	r1, sp, #16
    4dc8:	eb000057 	bl	4f2c <__gnu_saturate2uda>
    4dcc:	e28d0010 	add	r0, sp, #16
    4dd0:	e8900003 	ldm	r0, {r0, r1}
    4dd4:	e28dd01c 	add	sp, sp, #28
    4dd8:	e8bd4ff0 	pop	{r4, r5, r6, r7, r8, r9, sl, fp, lr}
    4ddc:	e12fff1e 	bx	lr
    4de0:	e2944001 	adds	r4, r4, #1
    4de4:	e2a55000 	adc	r5, r5, #0
    4de8:	e1a01004 	mov	r1, r4
    4dec:	e1a0c005 	mov	ip, r5
    4df0:	eaffffe4 	b	4d88 <__gnu_mulhelperuda+0xec>
    4df4:	e2944001 	adds	r4, r4, #1
    4df8:	e2a55000 	adc	r5, r5, #0
    4dfc:	eaffffcd 	b	4d38 <__gnu_mulhelperuda+0x9c>

00004e00 <__gnu_cmpsa2>:
    4e00:	e1500001 	cmp	r0, r1
    4e04:	ba000004 	blt	4e1c <__gnu_cmpsa2+0x1c>
    4e08:	da000001 	ble	4e14 <__gnu_cmpsa2+0x14>
    4e0c:	e3a00002 	mov	r0, #2
    4e10:	e12fff1e 	bx	lr
    4e14:	e3a00001 	mov	r0, #1
    4e18:	e12fff1e 	bx	lr
    4e1c:	e3a00000 	mov	r0, #0
    4e20:	e12fff1e 	bx	lr

00004e24 <__gnu_cmpda2>:
    4e24:	e1500002 	cmp	r0, r2
    4e28:	e0d1c003 	sbcs	ip, r1, r3
    4e2c:	ba000004 	blt	4e44 <__gnu_cmpda2+0x20>
    4e30:	e1520000 	cmp	r2, r0
    4e34:	e0d3c001 	sbcs	ip, r3, r1
    4e38:	a3a00001 	movge	r0, #1
    4e3c:	b3a00002 	movlt	r0, #2
    4e40:	e12fff1e 	bx	lr
    4e44:	e3a00000 	mov	r0, #0
    4e48:	e12fff1e 	bx	lr

00004e4c <__gnu_cmpusq2>:
    4e4c:	e1500001 	cmp	r0, r1
    4e50:	3a000004 	bcc	4e68 <__gnu_cmpusq2+0x1c>
    4e54:	9a000001 	bls	4e60 <__gnu_cmpusq2+0x14>
    4e58:	e3a00002 	mov	r0, #2
    4e5c:	e12fff1e 	bx	lr
    4e60:	e3a00001 	mov	r0, #1
    4e64:	e12fff1e 	bx	lr
    4e68:	e3a00000 	mov	r0, #0
    4e6c:	e12fff1e 	bx	lr

00004e70 <__gnu_saturate1usq>:
    4e70:	e92d0030 	push	{r4, r5}
    4e74:	e8900030 	ldm	r0, {r4, r5}
    4e78:	e3e02000 	mvn	r2, #0
    4e7c:	e3a03000 	mov	r3, #0
    4e80:	e1550003 	cmp	r5, r3
    4e84:	01540002 	cmpeq	r4, r2
    4e88:	8880000c 	stmhi	r0, {r2, r3}
    4e8c:	e8bd0030 	pop	{r4, r5}
    4e90:	e12fff1e 	bx	lr

00004e94 <__gnu_saturate2da>:
    4e94:	e890000c 	ldm	r0, {r2, r3}
    4e98:	e3520001 	cmp	r2, #1
    4e9c:	e2d3c000 	sbcs	ip, r3, #0
    4ea0:	e92d0030 	push	{r4, r5}
    4ea4:	ba000007 	blt	4ec8 <__gnu_saturate2da+0x34>
    4ea8:	e3a04000 	mov	r4, #0
    4eac:	e3a05000 	mov	r5, #0
    4eb0:	e3e02000 	mvn	r2, #0
    4eb4:	e3e03102 	mvn	r3, #-2147483648	; 0x80000000
    4eb8:	e8800030 	stm	r0, {r4, r5}
    4ebc:	e881000c 	stm	r1, {r2, r3}
    4ec0:	e8bd0030 	pop	{r4, r5}
    4ec4:	e12fff1e 	bx	lr
    4ec8:	e192c003 	orrs	ip, r2, r3
    4ecc:	0a000010 	beq	4f14 <__gnu_saturate2da+0x80>
    4ed0:	e3e04000 	mvn	r4, #0
    4ed4:	e3e05000 	mvn	r5, #0
    4ed8:	e1530005 	cmp	r3, r5
    4edc:	01520004 	cmpeq	r2, r4
    4ee0:	1a000003 	bne	4ef4 <__gnu_saturate2da+0x60>
    4ee4:	e891000c 	ldm	r1, {r2, r3}
    4ee8:	e3530102 	cmp	r3, #-2147483648	; 0x80000000
    4eec:	03520000 	cmpeq	r2, #0
    4ef0:	2afffff2 	bcs	4ec0 <__gnu_saturate2da+0x2c>
    4ef4:	e3e04000 	mvn	r4, #0
    4ef8:	e3e05000 	mvn	r5, #0
    4efc:	e3a02000 	mov	r2, #0
    4f00:	e3a03102 	mov	r3, #-2147483648	; 0x80000000
    4f04:	e8800030 	stm	r0, {r4, r5}
    4f08:	e881000c 	stm	r1, {r2, r3}
    4f0c:	e8bd0030 	pop	{r4, r5}
    4f10:	e12fff1e 	bx	lr
    4f14:	e891000c 	ldm	r1, {r2, r3}
    4f18:	e3520000 	cmp	r2, #0
    4f1c:	e2d3c000 	sbcs	ip, r3, #0
    4f20:	baffffe0 	blt	4ea8 <__gnu_saturate2da+0x14>
    4f24:	e8bd0030 	pop	{r4, r5}
    4f28:	e12fff1e 	bx	lr

00004f2c <__gnu_saturate2uda>:
    4f2c:	e890000c 	ldm	r0, {r2, r3}
    4f30:	e192c003 	orrs	ip, r2, r3
    4f34:	e92d0030 	push	{r4, r5}
    4f38:	0a000005 	beq	4f54 <__gnu_saturate2uda+0x28>
    4f3c:	e3a04000 	mov	r4, #0
    4f40:	e3a05000 	mov	r5, #0
    4f44:	e3e02000 	mvn	r2, #0
    4f48:	e3e03000 	mvn	r3, #0
    4f4c:	e8800030 	stm	r0, {r4, r5}
    4f50:	e881000c 	stm	r1, {r2, r3}
    4f54:	e8bd0030 	pop	{r4, r5}
    4f58:	e12fff1e 	bx	lr

00004f5c <__gnu_divsa3>:
    4f5c:	e92d4008 	push	{r3, lr}
    4f60:	e3a02000 	mov	r2, #0
    4f64:	eb00006d 	bl	5120 <__gnu_divhelpersa>
    4f68:	e8bd4008 	pop	{r3, lr}
    4f6c:	e12fff1e 	bx	lr

00004f70 <__gnu_divda3>:
    4f70:	e52de004 	push	{lr}		; (str lr, [sp, #-4]!)
    4f74:	e3a0c000 	mov	ip, #0
    4f78:	e24dd00c 	sub	sp, sp, #12
    4f7c:	e58dc000 	str	ip, [sp]
    4f80:	eb00007b 	bl	5174 <__gnu_divhelperda>
    4f84:	e28dd00c 	add	sp, sp, #12
    4f88:	e49de004 	pop	{lr}		; (ldr lr, [sp], #4)
    4f8c:	e12fff1e 	bx	lr

00004f90 <__gnu_ashrsa3>:
    4f90:	e1a00150 	asr	r0, r0, r1
    4f94:	e12fff1e 	bx	lr

00004f98 <__gnu_fractsada2>:
    4f98:	e92d0030 	push	{r4, r5}
    4f9c:	e1a05fc0 	asr	r5, r0, #31
    4fa0:	e1a01805 	lsl	r1, r5, #16
    4fa4:	e1813820 	orr	r3, r1, r0, lsr #16
    4fa8:	e1a02800 	lsl	r2, r0, #16
    4fac:	e1a00002 	mov	r0, r2
    4fb0:	e1a01003 	mov	r1, r3
    4fb4:	e8bd0030 	pop	{r4, r5}
    4fb8:	e12fff1e 	bx	lr

00004fbc <__gnu_fractsausq>:
    4fbc:	e1a00880 	lsl	r0, r0, #17
    4fc0:	e12fff1e 	bx	lr

00004fc4 <__gnu_fractsasf>:
    4fc4:	e92d4008 	push	{r3, lr}
    4fc8:	ebfffd64 	bl	4560 <__aeabi_i2f>
    4fcc:	e3a0130e 	mov	r1, #939524096	; 0x38000000
    4fd0:	ebfffd99 	bl	463c <__aeabi_fmul>
    4fd4:	e8bd4008 	pop	{r3, lr}
    4fd8:	e12fff1e 	bx	lr

00004fdc <__gnu_fractdasa2>:
    4fdc:	e1a00820 	lsr	r0, r0, #16
    4fe0:	e1800801 	orr	r0, r0, r1, lsl #16
    4fe4:	e12fff1e 	bx	lr

00004fe8 <__gnu_fractdasi>:
    4fe8:	e3500000 	cmp	r0, #0
    4fec:	e2d13000 	sbcs	r3, r1, #0
    4ff0:	a3a02000 	movge	r2, #0
    4ff4:	aa000002 	bge	5004 <__gnu_fractdasi+0x1c>
    4ff8:	e1b03080 	lsls	r3, r0, #1
    4ffc:	03a02000 	moveq	r2, #0
    5000:	13a02001 	movne	r2, #1
    5004:	e1a03fa0 	lsr	r3, r0, #31
    5008:	e1833081 	orr	r3, r3, r1, lsl #1
    500c:	e0820003 	add	r0, r2, r3
    5010:	e12fff1e 	bx	lr

00005014 <__gnu_fractusqsa>:
    5014:	e1a008a0 	lsr	r0, r0, #17
    5018:	e12fff1e 	bx	lr

0000501c <__gnu_fractusasa>:
    501c:	e1a000a0 	lsr	r0, r0, #1
    5020:	e12fff1e 	bx	lr

00005024 <__gnu_fractudausa2>:
    5024:	e1a00820 	lsr	r0, r0, #16
    5028:	e1800801 	orr	r0, r0, r1, lsl #16
    502c:	e12fff1e 	bx	lr

00005030 <__gnu_fractsisa>:
    5030:	e1a00780 	lsl	r0, r0, #15
    5034:	e12fff1e 	bx	lr

00005038 <__gnu_fractsida>:
    5038:	e92d0030 	push	{r4, r5}
    503c:	e1a05fc0 	asr	r5, r0, #31
    5040:	e1a01f85 	lsl	r1, r5, #31
    5044:	e18130a0 	orr	r3, r1, r0, lsr #1
    5048:	e1a02f80 	lsl	r2, r0, #31
    504c:	e1a00002 	mov	r0, r2
    5050:	e1a01003 	mov	r1, r3
    5054:	e8bd0030 	pop	{r4, r5}
    5058:	e12fff1e 	bx	lr

0000505c <__gnu_fractsfsa>:
    505c:	e92d4008 	push	{r3, lr}
    5060:	e3a01447 	mov	r1, #1191182336	; 0x47000000
    5064:	ebfffd74 	bl	463c <__aeabi_fmul>
    5068:	eb000015 	bl	50c4 <__aeabi_f2iz>
    506c:	e8bd4008 	pop	{r3, lr}
    5070:	e12fff1e 	bx	lr

00005074 <__gnu_fractunssasi>:
    5074:	e3500000 	cmp	r0, #0
    5078:	a3a03000 	movge	r3, #0
    507c:	aa000002 	bge	508c <__gnu_fractunssasi+0x18>
    5080:	e1b03880 	lsls	r3, r0, #17
    5084:	03a03000 	moveq	r3, #0
    5088:	13a03001 	movne	r3, #1
    508c:	e08307c0 	add	r0, r3, r0, asr #15
    5090:	e12fff1e 	bx	lr

00005094 <__gnu_fractunssisa>:
    5094:	e1a00780 	lsl	r0, r0, #15
    5098:	e12fff1e 	bx	lr

0000509c <__gnu_fractunssida>:
    509c:	e1a030a0 	lsr	r3, r0, #1
    50a0:	e1a02f80 	lsl	r2, r0, #31
    50a4:	e1a00002 	mov	r0, r2
    50a8:	e1a01003 	mov	r1, r3
    50ac:	e12fff1e 	bx	lr

000050b0 <__gnu_fractunssiuda>:
    50b0:	e1a03000 	mov	r3, r0
    50b4:	e3a02000 	mov	r2, #0
    50b8:	e1a00002 	mov	r0, r2
    50bc:	e1a01003 	mov	r1, r3
    50c0:	e12fff1e 	bx	lr

000050c4 <__aeabi_f2iz>:
    50c4:	e1a02080 	lsl	r2, r0, #1
    50c8:	e352047f 	cmp	r2, #2130706432	; 0x7f000000
    50cc:	3a000008 	bcc	50f4 <__aeabi_f2iz+0x30>
    50d0:	e3a0309e 	mov	r3, #158	; 0x9e
    50d4:	e0532c22 	subs	r2, r3, r2, lsr #24
    50d8:	9a000007 	bls	50fc <__aeabi_f2iz+0x38>
    50dc:	e1a03400 	lsl	r3, r0, #8
    50e0:	e3833102 	orr	r3, r3, #-2147483648	; 0x80000000
    50e4:	e3100102 	tst	r0, #-2147483648	; 0x80000000
    50e8:	e1a00233 	lsr	r0, r3, r2
    50ec:	12600000 	rsbne	r0, r0, #0
    50f0:	e12fff1e 	bx	lr
    50f4:	e3a00000 	mov	r0, #0
    50f8:	e12fff1e 	bx	lr
    50fc:	e3720061 	cmn	r2, #97	; 0x61
    5100:	1a000001 	bne	510c <__aeabi_f2iz+0x48>
    5104:	e1b02480 	lsls	r2, r0, #9
    5108:	1a000002 	bne	5118 <__aeabi_f2iz+0x54>
    510c:	e2100102 	ands	r0, r0, #-2147483648	; 0x80000000
    5110:	03e00102 	mvneq	r0, #-2147483648	; 0x80000000
    5114:	e12fff1e 	bx	lr
    5118:	e3a00000 	mov	r0, #0
    511c:	e12fff1e 	bx	lr

00005120 <__gnu_divhelpersa>:
    5120:	e92d4070 	push	{r4, r5, r6, lr}
    5124:	e1a05fc0 	asr	r5, r0, #31
    5128:	e1a03785 	lsl	r3, r5, #15
    512c:	e1a04001 	mov	r4, r1
    5130:	e1a05fc1 	asr	r5, r1, #31
    5134:	e24dd008 	sub	sp, sp, #8
    5138:	e18318a0 	orr	r1, r3, r0, lsr #17
    513c:	e1a06002 	mov	r6, r2
    5140:	e1a00780 	lsl	r0, r0, #15
    5144:	e1a02004 	mov	r2, r4
    5148:	e1a03005 	mov	r3, r5
    514c:	eb00007f 	bl	5350 <__aeabi_ldivmod>
    5150:	e3560000 	cmp	r6, #0
    5154:	e88d0003 	stm	sp, {r0, r1}
    5158:	0a000002 	beq	5168 <__gnu_divhelpersa+0x48>
    515c:	e1a0000d 	mov	r0, sp
    5160:	eb00006b 	bl	5314 <__gnu_saturate1sa>
    5164:	e59d0000 	ldr	r0, [sp]
    5168:	e28dd008 	add	sp, sp, #8
    516c:	e8bd4070 	pop	{r4, r5, r6, lr}
    5170:	e12fff1e 	bx	lr

00005174 <__gnu_divhelperda>:
    5174:	e92d4ff0 	push	{r4, r5, r6, r7, r8, r9, sl, fp, lr}
    5178:	e1a0a000 	mov	sl, r0
    517c:	e1a0b001 	mov	fp, r1
    5180:	e35a0000 	cmp	sl, #0
    5184:	e2db1000 	sbcs	r1, fp, #0
    5188:	e24dd01c 	sub	sp, sp, #28
    518c:	e1a06002 	mov	r6, r2
    5190:	e1a07003 	mov	r7, r3
    5194:	a3a08000 	movge	r8, #0
    5198:	ba000054 	blt	52f0 <__gnu_divhelperda+0x17c>
    519c:	e3560000 	cmp	r6, #0
    51a0:	e2d73000 	sbcs	r3, r7, #0
    51a4:	ba00004d 	blt	52e0 <__gnu_divhelperda+0x16c>
    51a8:	e1a0c0cb 	asr	ip, fp, #1
    51ac:	e1a09fcb 	asr	r9, fp, #31
    51b0:	e1a0000c 	mov	r0, ip
    51b4:	e1a02006 	mov	r2, r6
    51b8:	e1a03007 	mov	r3, r7
    51bc:	e1a01009 	mov	r1, r9
    51c0:	e58dc004 	str	ip, [sp, #4]
    51c4:	eb000072 	bl	5394 <__aeabi_uldivmod>
    51c8:	e59dc004 	ldr	ip, [sp, #4]
    51cc:	e1a05f8b 	lsl	r5, fp, #31
    51d0:	e18550aa 	orr	r5, r5, sl, lsr #1
    51d4:	e1a0b001 	mov	fp, r1
    51d8:	e1a04f8a 	lsl	r4, sl, #31
    51dc:	e1a02006 	mov	r2, r6
    51e0:	e1a0a000 	mov	sl, r0
    51e4:	e1a03007 	mov	r3, r7
    51e8:	e1a0000c 	mov	r0, ip
    51ec:	e1a01009 	mov	r1, r9
    51f0:	e58da008 	str	sl, [sp, #8]
    51f4:	e58db00c 	str	fp, [sp, #12]
    51f8:	eb000065 	bl	5394 <__aeabi_uldivmod>
    51fc:	e3a0c040 	mov	ip, #64	; 0x40
    5200:	e1a00002 	mov	r0, r2
    5204:	e1a01003 	mov	r1, r3
    5208:	e3a02000 	mov	r2, #0
    520c:	e3a03000 	mov	r3, #0
    5210:	e58d8000 	str	r8, [sp]
    5214:	ea00000e 	b	5254 <__gnu_divhelperda+0xe0>
    5218:	e0922002 	adds	r2, r2, r2
    521c:	e0a33003 	adc	r3, r3, r3
    5220:	e1570001 	cmp	r7, r1
    5224:	01560000 	cmpeq	r6, r0
    5228:	93899001 	orrls	r9, r9, #1
    522c:	e3590000 	cmp	r9, #0
    5230:	0a000003 	beq	5244 <__gnu_divhelperda+0xd0>
    5234:	e0500006 	subs	r0, r0, r6
    5238:	e0c11007 	sbc	r1, r1, r7
    523c:	e2922001 	adds	r2, r2, #1
    5240:	e2a33000 	adc	r3, r3, #0
    5244:	e0944004 	adds	r4, r4, r4
    5248:	e0a55005 	adc	r5, r5, r5
    524c:	e25cc001 	subs	ip, ip, #1
    5250:	0a000008 	beq	5278 <__gnu_divhelperda+0x104>
    5254:	e0900000 	adds	r0, r0, r0
    5258:	e1a09fa1 	lsr	r9, r1, #31
    525c:	e0a11001 	adc	r1, r1, r1
    5260:	e3540000 	cmp	r4, #0
    5264:	e2d58000 	sbcs	r8, r5, #0
    5268:	aaffffea 	bge	5218 <__gnu_divhelperda+0xa4>
    526c:	e2900001 	adds	r0, r0, #1
    5270:	e2a11000 	adc	r1, r1, #0
    5274:	eaffffe7 	b	5218 <__gnu_divhelperda+0xa4>
    5278:	e59d8000 	ldr	r8, [sp]
    527c:	e3580001 	cmp	r8, #1
    5280:	e58d2010 	str	r2, [sp, #16]
    5284:	e58d3014 	str	r3, [sp, #20]
    5288:	0a000009 	beq	52b4 <__gnu_divhelperda+0x140>
    528c:	e59d8040 	ldr	r8, [sp, #64]	; 0x40
    5290:	e3580000 	cmp	r8, #0
    5294:	128d0008 	addne	r0, sp, #8
    5298:	128d1010 	addne	r1, sp, #16
    529c:	1bfffefc 	blne	4e94 <__gnu_saturate2da>
    52a0:	e28d1010 	add	r1, sp, #16
    52a4:	e8910003 	ldm	r1, {r0, r1}
    52a8:	e28dd01c 	add	sp, sp, #28
    52ac:	e8bd4ff0 	pop	{r4, r5, r6, r7, r8, r9, sl, fp, lr}
    52b0:	e12fff1e 	bx	lr
    52b4:	e2722000 	rsbs	r2, r2, #0
    52b8:	e2e33000 	rsc	r3, r3, #0
    52bc:	e1921003 	orrs	r1, r2, r3
    52c0:	e58d2010 	str	r2, [sp, #16]
    52c4:	e58d3014 	str	r3, [sp, #20]
    52c8:	1a00000c 	bne	5300 <__gnu_divhelperda+0x18c>
    52cc:	e27aa000 	rsbs	sl, sl, #0
    52d0:	e2ebb000 	rsc	fp, fp, #0
    52d4:	e58da008 	str	sl, [sp, #8]
    52d8:	e58db00c 	str	fp, [sp, #12]
    52dc:	eaffffea 	b	528c <__gnu_divhelperda+0x118>
    52e0:	e2766000 	rsbs	r6, r6, #0
    52e4:	e2e77000 	rsc	r7, r7, #0
    52e8:	e2888001 	add	r8, r8, #1
    52ec:	eaffffad 	b	51a8 <__gnu_divhelperda+0x34>
    52f0:	e27aa000 	rsbs	sl, sl, #0
    52f4:	e2ebb000 	rsc	fp, fp, #0
    52f8:	e3a08001 	mov	r8, #1
    52fc:	eaffffa6 	b	519c <__gnu_divhelperda+0x28>
    5300:	e1e0a00a 	mvn	sl, sl
    5304:	e1e0b00b 	mvn	fp, fp
    5308:	e58da008 	str	sl, [sp, #8]
    530c:	e58db00c 	str	fp, [sp, #12]
    5310:	eaffffdd 	b	528c <__gnu_divhelperda+0x118>

00005314 <__gnu_saturate1sa>:
    5314:	e890000c 	ldm	r0, {r2, r3}
    5318:	e92d0030 	push	{r4, r5}
    531c:	e3e04102 	mvn	r4, #-2147483648	; 0x80000000
    5320:	e3a05000 	mov	r5, #0
    5324:	e1540002 	cmp	r4, r2
    5328:	e0d51003 	sbcs	r1, r5, r3
    532c:	ba000004 	blt	5344 <__gnu_saturate1sa+0x30>
    5330:	e3a04102 	mov	r4, #-2147483648	; 0x80000000
    5334:	e3e05000 	mvn	r5, #0
    5338:	e1520004 	cmp	r2, r4
    533c:	e0d31005 	sbcs	r1, r3, r5
    5340:	aa000000 	bge	5348 <__gnu_saturate1sa+0x34>
    5344:	e8800030 	stm	r0, {r4, r5}
    5348:	e8bd0030 	pop	{r4, r5}
    534c:	e12fff1e 	bx	lr

00005350 <__aeabi_ldivmod>:
    5350:	e3530000 	cmp	r3, #0
    5354:	03520000 	cmpeq	r2, #0
    5358:	1a000006 	bne	5378 <__aeabi_ldivmod+0x28>
    535c:	e3510000 	cmp	r1, #0
    5360:	03500000 	cmpeq	r0, #0
    5364:	b3a01102 	movlt	r1, #-2147483648	; 0x80000000
    5368:	b3a00000 	movlt	r0, #0
    536c:	c3e01102 	mvngt	r1, #-2147483648	; 0x80000000
    5370:	c3e00000 	mvngt	r0, #0
    5374:	ea000036 	b	5454 <__aeabi_idiv0>
    5378:	e24dd008 	sub	sp, sp, #8
    537c:	e92d6000 	push	{sp, lr}
    5380:	eb000012 	bl	53d0 <__gnu_ldivmod_helper>
    5384:	e59de004 	ldr	lr, [sp, #4]
    5388:	e28dd008 	add	sp, sp, #8
    538c:	e8bd000c 	pop	{r2, r3}
    5390:	e12fff1e 	bx	lr

00005394 <__aeabi_uldivmod>:
    5394:	e3530000 	cmp	r3, #0
    5398:	03520000 	cmpeq	r2, #0
    539c:	1a000004 	bne	53b4 <__aeabi_uldivmod+0x20>
    53a0:	e3510000 	cmp	r1, #0
    53a4:	03500000 	cmpeq	r0, #0
    53a8:	13e01000 	mvnne	r1, #0
    53ac:	13e00000 	mvnne	r0, #0
    53b0:	ea000027 	b	5454 <__aeabi_idiv0>
    53b4:	e24dd008 	sub	sp, sp, #8
    53b8:	e92d6000 	push	{sp, lr}
    53bc:	eb000014 	bl	5414 <__gnu_uldivmod_helper>
    53c0:	e59de004 	ldr	lr, [sp, #4]
    53c4:	e28dd008 	add	sp, sp, #8
    53c8:	e8bd000c 	pop	{r2, r3}
    53cc:	e12fff1e 	bx	lr

000053d0 <__gnu_ldivmod_helper>:
    53d0:	e92d47f0 	push	{r4, r5, r6, r7, r8, r9, sl, lr}
    53d4:	e59d9020 	ldr	r9, [sp, #32]
    53d8:	e1a08002 	mov	r8, r2
    53dc:	e1a0a003 	mov	sl, r3
    53e0:	e1a06000 	mov	r6, r0
    53e4:	e1a07001 	mov	r7, r1
    53e8:	eb00001a 	bl	5458 <__divdi3>
    53ec:	e0030198 	mul	r3, r8, r1
    53f0:	e1a02000 	mov	r2, r0
    53f4:	e0854098 	umull	r4, r5, r8, r0
    53f8:	e022329a 	mla	r2, sl, r2, r3
    53fc:	e0825005 	add	r5, r2, r5
    5400:	e0564004 	subs	r4, r6, r4
    5404:	e0c75005 	sbc	r5, r7, r5
    5408:	e8890030 	stm	r9, {r4, r5}
    540c:	e8bd47f0 	pop	{r4, r5, r6, r7, r8, r9, sl, lr}
    5410:	e12fff1e 	bx	lr

00005414 <__gnu_uldivmod_helper>:
    5414:	e92d43f8 	push	{r3, r4, r5, r6, r7, r8, r9, lr}
    5418:	e59d9020 	ldr	r9, [sp, #32]
    541c:	e1a06000 	mov	r6, r0
    5420:	e1a07001 	mov	r7, r1
    5424:	e1a08002 	mov	r8, r2
    5428:	e1a04003 	mov	r4, r3
    542c:	eb00013d 	bl	5928 <__udivdi3>
    5430:	e0030490 	mul	r3, r0, r4
    5434:	e0854890 	umull	r4, r5, r0, r8
    5438:	e0283891 	mla	r8, r1, r8, r3
    543c:	e0885005 	add	r5, r8, r5
    5440:	e0564004 	subs	r4, r6, r4
    5444:	e0c75005 	sbc	r5, r7, r5
    5448:	e8890030 	stm	r9, {r4, r5}
    544c:	e8bd43f8 	pop	{r3, r4, r5, r6, r7, r8, r9, lr}
    5450:	e12fff1e 	bx	lr

00005454 <__aeabi_idiv0>:
    5454:	e12fff1e 	bx	lr

00005458 <__divdi3>:
    5458:	e92d4ff0 	push	{r4, r5, r6, r7, r8, r9, sl, fp, lr}
    545c:	e2704000 	rsbs	r4, r0, #0
    5460:	e2e15000 	rsc	r5, r1, #0
    5464:	e3510000 	cmp	r1, #0
    5468:	e3e06000 	mvn	r6, #0
    546c:	a1a04000 	movge	r4, r0
    5470:	a1a05001 	movge	r5, r1
    5474:	a3a06000 	movge	r6, #0
    5478:	e3530000 	cmp	r3, #0
    547c:	e24dd014 	sub	sp, sp, #20
    5480:	ba000098 	blt	56e8 <__divdi3+0x290>
    5484:	e3530000 	cmp	r3, #0
    5488:	e1a0c004 	mov	ip, r4
    548c:	e1a0b005 	mov	fp, r5
    5490:	e1a0a002 	mov	sl, r2
    5494:	e1a01003 	mov	r1, r3
    5498:	e1a08002 	mov	r8, r2
    549c:	e1a07004 	mov	r7, r4
    54a0:	e1a09005 	mov	r9, r5
    54a4:	1a000040 	bne	55ac <__divdi3+0x154>
    54a8:	e1520005 	cmp	r2, r5
    54ac:	9a000052 	bls	55fc <__divdi3+0x1a4>
    54b0:	e1a00002 	mov	r0, r2
    54b4:	eb00027c 	bl	5eac <__clzsi2>
    54b8:	e3500000 	cmp	r0, #0
    54bc:	12603020 	rsbne	r3, r0, #32
    54c0:	11a03334 	lsrne	r3, r4, r3
    54c4:	11a0801a 	lslne	r8, sl, r0
    54c8:	11839015 	orrne	r9, r3, r5, lsl r0
    54cc:	11a07014 	lslne	r7, r4, r0
    54d0:	e1a04828 	lsr	r4, r8, #16
    54d4:	e1a01004 	mov	r1, r4
    54d8:	e1a00009 	mov	r0, r9
    54dc:	eb00022d 	bl	5d98 <__aeabi_uidiv>
    54e0:	e1a01004 	mov	r1, r4
    54e4:	e1a0b000 	mov	fp, r0
    54e8:	e1a00009 	mov	r0, r9
    54ec:	eb000266 	bl	5e8c <__aeabi_uidivmod>
    54f0:	e1a0a808 	lsl	sl, r8, #16
    54f4:	e1a0a82a 	lsr	sl, sl, #16
    54f8:	e0000b9a 	mul	r0, sl, fp
    54fc:	e1a02827 	lsr	r2, r7, #16
    5500:	e1821801 	orr	r1, r2, r1, lsl #16
    5504:	e1500001 	cmp	r0, r1
    5508:	9a000007 	bls	552c <__divdi3+0xd4>
    550c:	e0911008 	adds	r1, r1, r8
    5510:	e24b3001 	sub	r3, fp, #1
    5514:	2a000003 	bcs	5528 <__divdi3+0xd0>
    5518:	e1500001 	cmp	r0, r1
    551c:	824bb002 	subhi	fp, fp, #2
    5520:	80811008 	addhi	r1, r1, r8
    5524:	8a000000 	bhi	552c <__divdi3+0xd4>
    5528:	e1a0b003 	mov	fp, r3
    552c:	e0609001 	rsb	r9, r0, r1
    5530:	e1a00009 	mov	r0, r9
    5534:	e1a01004 	mov	r1, r4
    5538:	eb000216 	bl	5d98 <__aeabi_uidiv>
    553c:	e1a01004 	mov	r1, r4
    5540:	e1a05000 	mov	r5, r0
    5544:	e1a00009 	mov	r0, r9
    5548:	eb00024f 	bl	5e8c <__aeabi_uidivmod>
    554c:	e00a0a95 	mul	sl, r5, sl
    5550:	e1a07807 	lsl	r7, r7, #16
    5554:	e1a07827 	lsr	r7, r7, #16
    5558:	e1871801 	orr	r1, r7, r1, lsl #16
    555c:	e15a0001 	cmp	sl, r1
    5560:	9a000006 	bls	5580 <__divdi3+0x128>
    5564:	e0918008 	adds	r8, r1, r8
    5568:	e2453001 	sub	r3, r5, #1
    556c:	2a000002 	bcs	557c <__divdi3+0x124>
    5570:	e15a0008 	cmp	sl, r8
    5574:	82455002 	subhi	r5, r5, #2
    5578:	8a000000 	bhi	5580 <__divdi3+0x128>
    557c:	e1a05003 	mov	r5, r3
    5580:	e185380b 	orr	r3, r5, fp, lsl #16
    5584:	e3a04000 	mov	r4, #0
    5588:	e3560000 	cmp	r6, #0
    558c:	e1a00003 	mov	r0, r3
    5590:	e1a01004 	mov	r1, r4
    5594:	0a000001 	beq	55a0 <__divdi3+0x148>
    5598:	e2700000 	rsbs	r0, r0, #0
    559c:	e2e11000 	rsc	r1, r1, #0
    55a0:	e28dd014 	add	sp, sp, #20
    55a4:	e8bd4ff0 	pop	{r4, r5, r6, r7, r8, r9, sl, fp, lr}
    55a8:	e12fff1e 	bx	lr
    55ac:	e1530005 	cmp	r3, r5
    55b0:	83a04000 	movhi	r4, #0
    55b4:	81a03004 	movhi	r3, r4
    55b8:	8afffff2 	bhi	5588 <__divdi3+0x130>
    55bc:	e1a00003 	mov	r0, r3
    55c0:	e58d100c 	str	r1, [sp, #12]
    55c4:	e58dc008 	str	ip, [sp, #8]
    55c8:	eb000237 	bl	5eac <__clzsi2>
    55cc:	e2505000 	subs	r5, r0, #0
    55d0:	e59d100c 	ldr	r1, [sp, #12]
    55d4:	e59dc008 	ldr	ip, [sp, #8]
    55d8:	1a00007f 	bne	57dc <__divdi3+0x384>
    55dc:	e151000b 	cmp	r1, fp
    55e0:	215a000c 	cmpcs	sl, ip
    55e4:	83a04000 	movhi	r4, #0
    55e8:	93a04001 	movls	r4, #1
    55ec:	93a03001 	movls	r3, #1
    55f0:	91a04005 	movls	r4, r5
    55f4:	81a03004 	movhi	r3, r4
    55f8:	eaffffe2 	b	5588 <__divdi3+0x130>
    55fc:	e3520000 	cmp	r2, #0
    5600:	1a000003 	bne	5614 <__divdi3+0x1bc>
    5604:	e1a01002 	mov	r1, r2
    5608:	e3a00001 	mov	r0, #1
    560c:	eb0001e1 	bl	5d98 <__aeabi_uidiv>
    5610:	e1a08000 	mov	r8, r0
    5614:	e1a00008 	mov	r0, r8
    5618:	eb000223 	bl	5eac <__clzsi2>
    561c:	e2503000 	subs	r3, r0, #0
    5620:	1a000034 	bne	56f8 <__divdi3+0x2a0>
    5624:	e1a0a808 	lsl	sl, r8, #16
    5628:	e0689009 	rsb	r9, r8, r9
    562c:	e1a0a82a 	lsr	sl, sl, #16
    5630:	e1a05828 	lsr	r5, r8, #16
    5634:	e3a04001 	mov	r4, #1
    5638:	e1a01005 	mov	r1, r5
    563c:	e1a00009 	mov	r0, r9
    5640:	eb0001d4 	bl	5d98 <__aeabi_uidiv>
    5644:	e1a01005 	mov	r1, r5
    5648:	e1a0b000 	mov	fp, r0
    564c:	e1a00009 	mov	r0, r9
    5650:	eb00020d 	bl	5e8c <__aeabi_uidivmod>
    5654:	e0000b9a 	mul	r0, sl, fp
    5658:	e1a02827 	lsr	r2, r7, #16
    565c:	e1821801 	orr	r1, r2, r1, lsl #16
    5660:	e1500001 	cmp	r0, r1
    5664:	9a000006 	bls	5684 <__divdi3+0x22c>
    5668:	e0911008 	adds	r1, r1, r8
    566c:	e24b3001 	sub	r3, fp, #1
    5670:	2a0000a4 	bcs	5908 <__divdi3+0x4b0>
    5674:	e1500001 	cmp	r0, r1
    5678:	824bb002 	subhi	fp, fp, #2
    567c:	80811008 	addhi	r1, r1, r8
    5680:	9a0000a0 	bls	5908 <__divdi3+0x4b0>
    5684:	e0602001 	rsb	r2, r0, r1
    5688:	e1a00002 	mov	r0, r2
    568c:	e1a01005 	mov	r1, r5
    5690:	e58d200c 	str	r2, [sp, #12]
    5694:	eb0001bf 	bl	5d98 <__aeabi_uidiv>
    5698:	e59d200c 	ldr	r2, [sp, #12]
    569c:	e1a09000 	mov	r9, r0
    56a0:	e1a01005 	mov	r1, r5
    56a4:	e1a00002 	mov	r0, r2
    56a8:	eb0001f7 	bl	5e8c <__aeabi_uidivmod>
    56ac:	e00a0a99 	mul	sl, r9, sl
    56b0:	e1a07807 	lsl	r7, r7, #16
    56b4:	e1a07827 	lsr	r7, r7, #16
    56b8:	e1871801 	orr	r1, r7, r1, lsl #16
    56bc:	e15a0001 	cmp	sl, r1
    56c0:	9a000006 	bls	56e0 <__divdi3+0x288>
    56c4:	e0918008 	adds	r8, r1, r8
    56c8:	e2493001 	sub	r3, r9, #1
    56cc:	2a000002 	bcs	56dc <__divdi3+0x284>
    56d0:	e15a0008 	cmp	sl, r8
    56d4:	82499002 	subhi	r9, r9, #2
    56d8:	8a000000 	bhi	56e0 <__divdi3+0x288>
    56dc:	e1a09003 	mov	r9, r3
    56e0:	e189380b 	orr	r3, r9, fp, lsl #16
    56e4:	eaffffa7 	b	5588 <__divdi3+0x130>
    56e8:	e1e06006 	mvn	r6, r6
    56ec:	e2722000 	rsbs	r2, r2, #0
    56f0:	e2e33000 	rsc	r3, r3, #0
    56f4:	eaffff62 	b	5484 <__divdi3+0x2c>
    56f8:	e1a08318 	lsl	r8, r8, r3
    56fc:	e263b020 	rsb	fp, r3, #32
    5700:	e1a04b39 	lsr	r4, r9, fp
    5704:	e1a0bb37 	lsr	fp, r7, fp
    5708:	e1a05828 	lsr	r5, r8, #16
    570c:	e1a01005 	mov	r1, r5
    5710:	e1a00004 	mov	r0, r4
    5714:	e18bb319 	orr	fp, fp, r9, lsl r3
    5718:	e1a07317 	lsl	r7, r7, r3
    571c:	eb00019d 	bl	5d98 <__aeabi_uidiv>
    5720:	e1a01005 	mov	r1, r5
    5724:	e1a03000 	mov	r3, r0
    5728:	e1a00004 	mov	r0, r4
    572c:	e58d3004 	str	r3, [sp, #4]
    5730:	eb0001d5 	bl	5e8c <__aeabi_uidivmod>
    5734:	e1a0a808 	lsl	sl, r8, #16
    5738:	e59d3004 	ldr	r3, [sp, #4]
    573c:	e1a0a82a 	lsr	sl, sl, #16
    5740:	e000039a 	mul	r0, sl, r3
    5744:	e1a0282b 	lsr	r2, fp, #16
    5748:	e1821801 	orr	r1, r2, r1, lsl #16
    574c:	e1500001 	cmp	r0, r1
    5750:	9a000006 	bls	5770 <__divdi3+0x318>
    5754:	e0911008 	adds	r1, r1, r8
    5758:	e2432001 	sub	r2, r3, #1
    575c:	2a00006f 	bcs	5920 <__divdi3+0x4c8>
    5760:	e1500001 	cmp	r0, r1
    5764:	82433002 	subhi	r3, r3, #2
    5768:	80811008 	addhi	r1, r1, r8
    576c:	9a00006b 	bls	5920 <__divdi3+0x4c8>
    5770:	e0609001 	rsb	r9, r0, r1
    5774:	e1a00009 	mov	r0, r9
    5778:	e1a01005 	mov	r1, r5
    577c:	e58d3004 	str	r3, [sp, #4]
    5780:	eb000184 	bl	5d98 <__aeabi_uidiv>
    5784:	e1a01005 	mov	r1, r5
    5788:	e1a04000 	mov	r4, r0
    578c:	e1a00009 	mov	r0, r9
    5790:	eb0001bd 	bl	5e8c <__aeabi_uidivmod>
    5794:	e009049a 	mul	r9, sl, r4
    5798:	e1a0b80b 	lsl	fp, fp, #16
    579c:	e1a0b82b 	lsr	fp, fp, #16
    57a0:	e18b1801 	orr	r1, fp, r1, lsl #16
    57a4:	e1590001 	cmp	r9, r1
    57a8:	e59d3004 	ldr	r3, [sp, #4]
    57ac:	9a000007 	bls	57d0 <__divdi3+0x378>
    57b0:	e0911008 	adds	r1, r1, r8
    57b4:	e2442001 	sub	r2, r4, #1
    57b8:	2a000003 	bcs	57cc <__divdi3+0x374>
    57bc:	e1590001 	cmp	r9, r1
    57c0:	82444002 	subhi	r4, r4, #2
    57c4:	80811008 	addhi	r1, r1, r8
    57c8:	8a000000 	bhi	57d0 <__divdi3+0x378>
    57cc:	e1a04002 	mov	r4, r2
    57d0:	e0699001 	rsb	r9, r9, r1
    57d4:	e1844803 	orr	r4, r4, r3, lsl #16
    57d8:	eaffff96 	b	5638 <__divdi3+0x1e0>
    57dc:	e2653020 	rsb	r3, r5, #32
    57e0:	e1a0833a 	lsr	r8, sl, r3
    57e4:	e1888511 	orr	r8, r8, r1, lsl r5
    57e8:	e1a0233b 	lsr	r2, fp, r3
    57ec:	e1a03337 	lsr	r3, r7, r3
    57f0:	e1a09828 	lsr	r9, r8, #16
    57f4:	e1a01009 	mov	r1, r9
    57f8:	e1a00002 	mov	r0, r2
    57fc:	e183b51b 	orr	fp, r3, fp, lsl r5
    5800:	e58d200c 	str	r2, [sp, #12]
    5804:	eb000163 	bl	5d98 <__aeabi_uidiv>
    5808:	e59d200c 	ldr	r2, [sp, #12]
    580c:	e1a03000 	mov	r3, r0
    5810:	e1a01009 	mov	r1, r9
    5814:	e1a00002 	mov	r0, r2
    5818:	e58d3004 	str	r3, [sp, #4]
    581c:	eb00019a 	bl	5e8c <__aeabi_uidivmod>
    5820:	e1a04808 	lsl	r4, r8, #16
    5824:	e59d3004 	ldr	r3, [sp, #4]
    5828:	e1a04824 	lsr	r4, r4, #16
    582c:	e0000394 	mul	r0, r4, r3
    5830:	e1a0282b 	lsr	r2, fp, #16
    5834:	e1821801 	orr	r1, r2, r1, lsl #16
    5838:	e1500001 	cmp	r0, r1
    583c:	e1a0a51a 	lsl	sl, sl, r5
    5840:	9a000006 	bls	5860 <__divdi3+0x408>
    5844:	e0911008 	adds	r1, r1, r8
    5848:	e2432001 	sub	r2, r3, #1
    584c:	2a000031 	bcs	5918 <__divdi3+0x4c0>
    5850:	e1500001 	cmp	r0, r1
    5854:	82433002 	subhi	r3, r3, #2
    5858:	80811008 	addhi	r1, r1, r8
    585c:	9a00002d 	bls	5918 <__divdi3+0x4c0>
    5860:	e060c001 	rsb	ip, r0, r1
    5864:	e1a0000c 	mov	r0, ip
    5868:	e1a01009 	mov	r1, r9
    586c:	e98d1008 	stmib	sp, {r3, ip}
    5870:	eb000148 	bl	5d98 <__aeabi_uidiv>
    5874:	e59dc008 	ldr	ip, [sp, #8]
    5878:	e1a02000 	mov	r2, r0
    587c:	e1a01009 	mov	r1, r9
    5880:	e1a0000c 	mov	r0, ip
    5884:	e58d200c 	str	r2, [sp, #12]
    5888:	eb00017f 	bl	5e8c <__aeabi_uidivmod>
    588c:	e59d200c 	ldr	r2, [sp, #12]
    5890:	e0040492 	mul	r4, r2, r4
    5894:	e1a0b80b 	lsl	fp, fp, #16
    5898:	e1a0c82b 	lsr	ip, fp, #16
    589c:	e18cc801 	orr	ip, ip, r1, lsl #16
    58a0:	e154000c 	cmp	r4, ip
    58a4:	e59d3004 	ldr	r3, [sp, #4]
    58a8:	9a000006 	bls	58c8 <__divdi3+0x470>
    58ac:	e09cc008 	adds	ip, ip, r8
    58b0:	e2421001 	sub	r1, r2, #1
    58b4:	2a000015 	bcs	5910 <__divdi3+0x4b8>
    58b8:	e154000c 	cmp	r4, ip
    58bc:	82422002 	subhi	r2, r2, #2
    58c0:	808cc008 	addhi	ip, ip, r8
    58c4:	9a000011 	bls	5910 <__divdi3+0x4b8>
    58c8:	e1821803 	orr	r1, r2, r3, lsl #16
    58cc:	e0832a91 	umull	r2, r3, r1, sl
    58d0:	e064400c 	rsb	r4, r4, ip
    58d4:	e1540003 	cmp	r4, r3
    58d8:	3a000007 	bcc	58fc <__divdi3+0x4a4>
    58dc:	13a04000 	movne	r4, #0
    58e0:	03a04001 	moveq	r4, #1
    58e4:	e1520517 	cmp	r2, r7, lsl r5
    58e8:	93a04000 	movls	r4, #0
    58ec:	82044001 	andhi	r4, r4, #1
    58f0:	e3540000 	cmp	r4, #0
    58f4:	01a03001 	moveq	r3, r1
    58f8:	0affff22 	beq	5588 <__divdi3+0x130>
    58fc:	e2413001 	sub	r3, r1, #1
    5900:	e3a04000 	mov	r4, #0
    5904:	eaffff1f 	b	5588 <__divdi3+0x130>
    5908:	e1a0b003 	mov	fp, r3
    590c:	eaffff5c 	b	5684 <__divdi3+0x22c>
    5910:	e1a02001 	mov	r2, r1
    5914:	eaffffeb 	b	58c8 <__divdi3+0x470>
    5918:	e1a03002 	mov	r3, r2
    591c:	eaffffcf 	b	5860 <__divdi3+0x408>
    5920:	e1a03002 	mov	r3, r2
    5924:	eaffff91 	b	5770 <__divdi3+0x318>

00005928 <__udivdi3>:
    5928:	e92d4ff0 	push	{r4, r5, r6, r7, r8, r9, sl, fp, lr}
    592c:	e3530000 	cmp	r3, #0
    5930:	e24dd00c 	sub	sp, sp, #12
    5934:	e1a07003 	mov	r7, r3
    5938:	e1a08000 	mov	r8, r0
    593c:	e1a05001 	mov	r5, r1
    5940:	e1a06002 	mov	r6, r2
    5944:	e1a04002 	mov	r4, r2
    5948:	e1a09000 	mov	r9, r0
    594c:	e1a0a001 	mov	sl, r1
    5950:	1a00003a 	bne	5a40 <__udivdi3+0x118>
    5954:	e1520001 	cmp	r2, r1
    5958:	9a000048 	bls	5a80 <__udivdi3+0x158>
    595c:	e1a00002 	mov	r0, r2
    5960:	eb000151 	bl	5eac <__clzsi2>
    5964:	e3500000 	cmp	r0, #0
    5968:	1260a020 	rsbne	sl, r0, #32
    596c:	11a0aa38 	lsrne	sl, r8, sl
    5970:	11a04016 	lslne	r4, r6, r0
    5974:	118aa015 	orrne	sl, sl, r5, lsl r0
    5978:	e1a05824 	lsr	r5, r4, #16
    597c:	11a09018 	lslne	r9, r8, r0
    5980:	e1a01005 	mov	r1, r5
    5984:	e1a0000a 	mov	r0, sl
    5988:	eb000102 	bl	5d98 <__aeabi_uidiv>
    598c:	e1a01005 	mov	r1, r5
    5990:	e1a07000 	mov	r7, r0
    5994:	e1a0000a 	mov	r0, sl
    5998:	eb00013b 	bl	5e8c <__aeabi_uidivmod>
    599c:	e1a08804 	lsl	r8, r4, #16
    59a0:	e1a08828 	lsr	r8, r8, #16
    59a4:	e0000798 	mul	r0, r8, r7
    59a8:	e1a03829 	lsr	r3, r9, #16
    59ac:	e1831801 	orr	r1, r3, r1, lsl #16
    59b0:	e1500001 	cmp	r0, r1
    59b4:	9a000007 	bls	59d8 <__udivdi3+0xb0>
    59b8:	e0911004 	adds	r1, r1, r4
    59bc:	e2472001 	sub	r2, r7, #1
    59c0:	2a000003 	bcs	59d4 <__udivdi3+0xac>
    59c4:	e1500001 	cmp	r0, r1
    59c8:	82477002 	subhi	r7, r7, #2
    59cc:	80811004 	addhi	r1, r1, r4
    59d0:	8a000000 	bhi	59d8 <__udivdi3+0xb0>
    59d4:	e1a07002 	mov	r7, r2
    59d8:	e060a001 	rsb	sl, r0, r1
    59dc:	e1a0000a 	mov	r0, sl
    59e0:	e1a01005 	mov	r1, r5
    59e4:	eb0000eb 	bl	5d98 <__aeabi_uidiv>
    59e8:	e1a01005 	mov	r1, r5
    59ec:	e1a06000 	mov	r6, r0
    59f0:	e1a0000a 	mov	r0, sl
    59f4:	eb000124 	bl	5e8c <__aeabi_uidivmod>
    59f8:	e0080896 	mul	r8, r6, r8
    59fc:	e1a09809 	lsl	r9, r9, #16
    5a00:	e1a09829 	lsr	r9, r9, #16
    5a04:	e1891801 	orr	r1, r9, r1, lsl #16
    5a08:	e1580001 	cmp	r8, r1
    5a0c:	9a000005 	bls	5a28 <__udivdi3+0x100>
    5a10:	e0914004 	adds	r4, r1, r4
    5a14:	e2463001 	sub	r3, r6, #1
    5a18:	2a0000cc 	bcs	5d50 <__udivdi3+0x428>
    5a1c:	e1580004 	cmp	r8, r4
    5a20:	82466002 	subhi	r6, r6, #2
    5a24:	9a0000c9 	bls	5d50 <__udivdi3+0x428>
    5a28:	e1860807 	orr	r0, r6, r7, lsl #16
    5a2c:	e3a06000 	mov	r6, #0
    5a30:	e1a01006 	mov	r1, r6
    5a34:	e28dd00c 	add	sp, sp, #12
    5a38:	e8bd4ff0 	pop	{r4, r5, r6, r7, r8, r9, sl, fp, lr}
    5a3c:	e12fff1e 	bx	lr
    5a40:	e1530001 	cmp	r3, r1
    5a44:	83a06000 	movhi	r6, #0
    5a48:	81a00006 	movhi	r0, r6
    5a4c:	8afffff7 	bhi	5a30 <__udivdi3+0x108>
    5a50:	e1a00003 	mov	r0, r3
    5a54:	eb000114 	bl	5eac <__clzsi2>
    5a58:	e2509000 	subs	r9, r0, #0
    5a5c:	1a000042 	bne	5b6c <__udivdi3+0x244>
    5a60:	e1570005 	cmp	r7, r5
    5a64:	21560008 	cmpcs	r6, r8
    5a68:	83a06000 	movhi	r6, #0
    5a6c:	93a06001 	movls	r6, #1
    5a70:	93a00001 	movls	r0, #1
    5a74:	91a06009 	movls	r6, r9
    5a78:	81a00006 	movhi	r0, r6
    5a7c:	eaffffeb 	b	5a30 <__udivdi3+0x108>
    5a80:	e3520000 	cmp	r2, #0
    5a84:	1a000003 	bne	5a98 <__udivdi3+0x170>
    5a88:	e1a01002 	mov	r1, r2
    5a8c:	e3a00001 	mov	r0, #1
    5a90:	eb0000c0 	bl	5d98 <__aeabi_uidiv>
    5a94:	e1a04000 	mov	r4, r0
    5a98:	e1a00004 	mov	r0, r4
    5a9c:	eb000102 	bl	5eac <__clzsi2>
    5aa0:	e2503000 	subs	r3, r0, #0
    5aa4:	1a000074 	bne	5c7c <__udivdi3+0x354>
    5aa8:	e1a0a804 	lsl	sl, r4, #16
    5aac:	e0645005 	rsb	r5, r4, r5
    5ab0:	e1a0a82a 	lsr	sl, sl, #16
    5ab4:	e1a07824 	lsr	r7, r4, #16
    5ab8:	e3a06001 	mov	r6, #1
    5abc:	e1a01007 	mov	r1, r7
    5ac0:	e1a00005 	mov	r0, r5
    5ac4:	eb0000b3 	bl	5d98 <__aeabi_uidiv>
    5ac8:	e1a01007 	mov	r1, r7
    5acc:	e1a08000 	mov	r8, r0
    5ad0:	e1a00005 	mov	r0, r5
    5ad4:	eb0000ec 	bl	5e8c <__aeabi_uidivmod>
    5ad8:	e000089a 	mul	r0, sl, r8
    5adc:	e1a03829 	lsr	r3, r9, #16
    5ae0:	e1831801 	orr	r1, r3, r1, lsl #16
    5ae4:	e1500001 	cmp	r0, r1
    5ae8:	9a000006 	bls	5b08 <__udivdi3+0x1e0>
    5aec:	e0911004 	adds	r1, r1, r4
    5af0:	e2482001 	sub	r2, r8, #1
    5af4:	2a000097 	bcs	5d58 <__udivdi3+0x430>
    5af8:	e1500001 	cmp	r0, r1
    5afc:	82488002 	subhi	r8, r8, #2
    5b00:	80811004 	addhi	r1, r1, r4
    5b04:	9a000093 	bls	5d58 <__udivdi3+0x430>
    5b08:	e060b001 	rsb	fp, r0, r1
    5b0c:	e1a0000b 	mov	r0, fp
    5b10:	e1a01007 	mov	r1, r7
    5b14:	eb00009f 	bl	5d98 <__aeabi_uidiv>
    5b18:	e1a01007 	mov	r1, r7
    5b1c:	e1a05000 	mov	r5, r0
    5b20:	e1a0000b 	mov	r0, fp
    5b24:	eb0000d8 	bl	5e8c <__aeabi_uidivmod>
    5b28:	e00a0a95 	mul	sl, r5, sl
    5b2c:	e1a09809 	lsl	r9, r9, #16
    5b30:	e1a09829 	lsr	r9, r9, #16
    5b34:	e1891801 	orr	r1, r9, r1, lsl #16
    5b38:	e15a0001 	cmp	sl, r1
    5b3c:	9a000005 	bls	5b58 <__udivdi3+0x230>
    5b40:	e0914004 	adds	r4, r1, r4
    5b44:	e2453001 	sub	r3, r5, #1
    5b48:	2a000084 	bcs	5d60 <__udivdi3+0x438>
    5b4c:	e15a0004 	cmp	sl, r4
    5b50:	82455002 	subhi	r5, r5, #2
    5b54:	9a000081 	bls	5d60 <__udivdi3+0x438>
    5b58:	e1850808 	orr	r0, r5, r8, lsl #16
    5b5c:	e1a01006 	mov	r1, r6
    5b60:	e28dd00c 	add	sp, sp, #12
    5b64:	e8bd4ff0 	pop	{r4, r5, r6, r7, r8, r9, sl, fp, lr}
    5b68:	e12fff1e 	bx	lr
    5b6c:	e2693020 	rsb	r3, r9, #32
    5b70:	e1a02336 	lsr	r2, r6, r3
    5b74:	e1827917 	orr	r7, r2, r7, lsl r9
    5b78:	e1a02335 	lsr	r2, r5, r3
    5b7c:	e1a03338 	lsr	r3, r8, r3
    5b80:	e1a04827 	lsr	r4, r7, #16
    5b84:	e1a01004 	mov	r1, r4
    5b88:	e1a00002 	mov	r0, r2
    5b8c:	e1835915 	orr	r5, r3, r5, lsl r9
    5b90:	e58d2004 	str	r2, [sp, #4]
    5b94:	eb00007f 	bl	5d98 <__aeabi_uidiv>
    5b98:	e59d2004 	ldr	r2, [sp, #4]
    5b9c:	e1a0b000 	mov	fp, r0
    5ba0:	e1a01004 	mov	r1, r4
    5ba4:	e1a00002 	mov	r0, r2
    5ba8:	eb0000b7 	bl	5e8c <__aeabi_uidivmod>
    5bac:	e1a0a807 	lsl	sl, r7, #16
    5bb0:	e1a0a82a 	lsr	sl, sl, #16
    5bb4:	e0000b9a 	mul	r0, sl, fp
    5bb8:	e1a03825 	lsr	r3, r5, #16
    5bbc:	e1831801 	orr	r1, r3, r1, lsl #16
    5bc0:	e1500001 	cmp	r0, r1
    5bc4:	e1a06916 	lsl	r6, r6, r9
    5bc8:	9a000003 	bls	5bdc <__udivdi3+0x2b4>
    5bcc:	e0911007 	adds	r1, r1, r7
    5bd0:	e24b2001 	sub	r2, fp, #1
    5bd4:	3a000068 	bcc	5d7c <__udivdi3+0x454>
    5bd8:	e1a0b002 	mov	fp, r2
    5bdc:	e0603001 	rsb	r3, r0, r1
    5be0:	e1a00003 	mov	r0, r3
    5be4:	e1a01004 	mov	r1, r4
    5be8:	e58d3004 	str	r3, [sp, #4]
    5bec:	eb000069 	bl	5d98 <__aeabi_uidiv>
    5bf0:	e59d3004 	ldr	r3, [sp, #4]
    5bf4:	e1a02000 	mov	r2, r0
    5bf8:	e1a01004 	mov	r1, r4
    5bfc:	e1a00003 	mov	r0, r3
    5c00:	e58d2004 	str	r2, [sp, #4]
    5c04:	eb0000a0 	bl	5e8c <__aeabi_uidivmod>
    5c08:	e59d2004 	ldr	r2, [sp, #4]
    5c0c:	e00a0a92 	mul	sl, r2, sl
    5c10:	e1a05805 	lsl	r5, r5, #16
    5c14:	e1a05825 	lsr	r5, r5, #16
    5c18:	e1851801 	orr	r1, r5, r1, lsl #16
    5c1c:	e15a0001 	cmp	sl, r1
    5c20:	9a000003 	bls	5c34 <__udivdi3+0x30c>
    5c24:	e0911007 	adds	r1, r1, r7
    5c28:	e2423001 	sub	r3, r2, #1
    5c2c:	3a00004d 	bcc	5d68 <__udivdi3+0x440>
    5c30:	e1a02003 	mov	r2, r3
    5c34:	e182080b 	orr	r0, r2, fp, lsl #16
    5c38:	e0854690 	umull	r4, r5, r0, r6
    5c3c:	e06aa001 	rsb	sl, sl, r1
    5c40:	e15a0005 	cmp	sl, r5
    5c44:	3a000006 	bcc	5c64 <__udivdi3+0x33c>
    5c48:	13a06000 	movne	r6, #0
    5c4c:	03a06001 	moveq	r6, #1
    5c50:	e1540918 	cmp	r4, r8, lsl r9
    5c54:	93a06000 	movls	r6, #0
    5c58:	82066001 	andhi	r6, r6, #1
    5c5c:	e3560000 	cmp	r6, #0
    5c60:	0affff72 	beq	5a30 <__udivdi3+0x108>
    5c64:	e3a06000 	mov	r6, #0
    5c68:	e2400001 	sub	r0, r0, #1
    5c6c:	e1a01006 	mov	r1, r6
    5c70:	e28dd00c 	add	sp, sp, #12
    5c74:	e8bd4ff0 	pop	{r4, r5, r6, r7, r8, r9, sl, fp, lr}
    5c78:	e12fff1e 	bx	lr
    5c7c:	e1a04314 	lsl	r4, r4, r3
    5c80:	e263b020 	rsb	fp, r3, #32
    5c84:	e1a06b35 	lsr	r6, r5, fp
    5c88:	e1a0bb38 	lsr	fp, r8, fp
    5c8c:	e1a07824 	lsr	r7, r4, #16
    5c90:	e1a01007 	mov	r1, r7
    5c94:	e1a00006 	mov	r0, r6
    5c98:	e1a09318 	lsl	r9, r8, r3
    5c9c:	e18bb315 	orr	fp, fp, r5, lsl r3
    5ca0:	eb00003c 	bl	5d98 <__aeabi_uidiv>
    5ca4:	e1a01007 	mov	r1, r7
    5ca8:	e1a08000 	mov	r8, r0
    5cac:	e1a00006 	mov	r0, r6
    5cb0:	eb000075 	bl	5e8c <__aeabi_uidivmod>
    5cb4:	e1a0a804 	lsl	sl, r4, #16
    5cb8:	e1a0a82a 	lsr	sl, sl, #16
    5cbc:	e000089a 	mul	r0, sl, r8
    5cc0:	e1a0382b 	lsr	r3, fp, #16
    5cc4:	e1831801 	orr	r1, r3, r1, lsl #16
    5cc8:	e1500001 	cmp	r0, r1
    5ccc:	9a000006 	bls	5cec <__udivdi3+0x3c4>
    5cd0:	e0911004 	adds	r1, r1, r4
    5cd4:	e2483001 	sub	r3, r8, #1
    5cd8:	2a00002c 	bcs	5d90 <__udivdi3+0x468>
    5cdc:	e1500001 	cmp	r0, r1
    5ce0:	82488002 	subhi	r8, r8, #2
    5ce4:	80811004 	addhi	r1, r1, r4
    5ce8:	9a000028 	bls	5d90 <__udivdi3+0x468>
    5cec:	e0605001 	rsb	r5, r0, r1
    5cf0:	e1a00005 	mov	r0, r5
    5cf4:	e1a01007 	mov	r1, r7
    5cf8:	eb000026 	bl	5d98 <__aeabi_uidiv>
    5cfc:	e1a01007 	mov	r1, r7
    5d00:	e1a06000 	mov	r6, r0
    5d04:	e1a00005 	mov	r0, r5
    5d08:	eb00005f 	bl	5e8c <__aeabi_uidivmod>
    5d0c:	e005069a 	mul	r5, sl, r6
    5d10:	e1a0b80b 	lsl	fp, fp, #16
    5d14:	e1a0b82b 	lsr	fp, fp, #16
    5d18:	e18b1801 	orr	r1, fp, r1, lsl #16
    5d1c:	e1550001 	cmp	r5, r1
    5d20:	9a000007 	bls	5d44 <__udivdi3+0x41c>
    5d24:	e0911004 	adds	r1, r1, r4
    5d28:	e2463001 	sub	r3, r6, #1
    5d2c:	2a000003 	bcs	5d40 <__udivdi3+0x418>
    5d30:	e1550001 	cmp	r5, r1
    5d34:	82466002 	subhi	r6, r6, #2
    5d38:	80811004 	addhi	r1, r1, r4
    5d3c:	8a000000 	bhi	5d44 <__udivdi3+0x41c>
    5d40:	e1a06003 	mov	r6, r3
    5d44:	e0655001 	rsb	r5, r5, r1
    5d48:	e1866808 	orr	r6, r6, r8, lsl #16
    5d4c:	eaffff5a 	b	5abc <__udivdi3+0x194>
    5d50:	e1a06003 	mov	r6, r3
    5d54:	eaffff33 	b	5a28 <__udivdi3+0x100>
    5d58:	e1a08002 	mov	r8, r2
    5d5c:	eaffff69 	b	5b08 <__udivdi3+0x1e0>
    5d60:	e1a05003 	mov	r5, r3
    5d64:	eaffff7b 	b	5b58 <__udivdi3+0x230>
    5d68:	e15a0001 	cmp	sl, r1
    5d6c:	82422002 	subhi	r2, r2, #2
    5d70:	80811007 	addhi	r1, r1, r7
    5d74:	8affffae 	bhi	5c34 <__udivdi3+0x30c>
    5d78:	eaffffac 	b	5c30 <__udivdi3+0x308>
    5d7c:	e1500001 	cmp	r0, r1
    5d80:	824bb002 	subhi	fp, fp, #2
    5d84:	80811007 	addhi	r1, r1, r7
    5d88:	8affff93 	bhi	5bdc <__udivdi3+0x2b4>
    5d8c:	eaffff91 	b	5bd8 <__udivdi3+0x2b0>
    5d90:	e1a08003 	mov	r8, r3
    5d94:	eaffffd4 	b	5cec <__udivdi3+0x3c4>

00005d98 <__aeabi_uidiv>:
    5d98:	e2512001 	subs	r2, r1, #1
    5d9c:	012fff1e 	bxeq	lr
    5da0:	3a000036 	bcc	5e80 <__aeabi_uidiv+0xe8>
    5da4:	e1500001 	cmp	r0, r1
    5da8:	9a000022 	bls	5e38 <__aeabi_uidiv+0xa0>
    5dac:	e1110002 	tst	r1, r2
    5db0:	0a000023 	beq	5e44 <__aeabi_uidiv+0xac>
    5db4:	e311020e 	tst	r1, #-536870912	; 0xe0000000
    5db8:	01a01181 	lsleq	r1, r1, #3
    5dbc:	03a03008 	moveq	r3, #8
    5dc0:	13a03001 	movne	r3, #1
    5dc4:	e3510201 	cmp	r1, #268435456	; 0x10000000
    5dc8:	31510000 	cmpcc	r1, r0
    5dcc:	31a01201 	lslcc	r1, r1, #4
    5dd0:	31a03203 	lslcc	r3, r3, #4
    5dd4:	3afffffa 	bcc	5dc4 <__aeabi_uidiv+0x2c>
    5dd8:	e3510102 	cmp	r1, #-2147483648	; 0x80000000
    5ddc:	31510000 	cmpcc	r1, r0
    5de0:	31a01081 	lslcc	r1, r1, #1
    5de4:	31a03083 	lslcc	r3, r3, #1
    5de8:	3afffffa 	bcc	5dd8 <__aeabi_uidiv+0x40>
    5dec:	e3a02000 	mov	r2, #0
    5df0:	e1500001 	cmp	r0, r1
    5df4:	20400001 	subcs	r0, r0, r1
    5df8:	21822003 	orrcs	r2, r2, r3
    5dfc:	e15000a1 	cmp	r0, r1, lsr #1
    5e00:	204000a1 	subcs	r0, r0, r1, lsr #1
    5e04:	218220a3 	orrcs	r2, r2, r3, lsr #1
    5e08:	e1500121 	cmp	r0, r1, lsr #2
    5e0c:	20400121 	subcs	r0, r0, r1, lsr #2
    5e10:	21822123 	orrcs	r2, r2, r3, lsr #2
    5e14:	e15001a1 	cmp	r0, r1, lsr #3
    5e18:	204001a1 	subcs	r0, r0, r1, lsr #3
    5e1c:	218221a3 	orrcs	r2, r2, r3, lsr #3
    5e20:	e3500000 	cmp	r0, #0
    5e24:	11b03223 	lsrsne	r3, r3, #4
    5e28:	11a01221 	lsrne	r1, r1, #4
    5e2c:	1affffef 	bne	5df0 <__aeabi_uidiv+0x58>
    5e30:	e1a00002 	mov	r0, r2
    5e34:	e12fff1e 	bx	lr
    5e38:	03a00001 	moveq	r0, #1
    5e3c:	13a00000 	movne	r0, #0
    5e40:	e12fff1e 	bx	lr
    5e44:	e3510801 	cmp	r1, #65536	; 0x10000
    5e48:	21a01821 	lsrcs	r1, r1, #16
    5e4c:	23a02010 	movcs	r2, #16
    5e50:	33a02000 	movcc	r2, #0
    5e54:	e3510c01 	cmp	r1, #256	; 0x100
    5e58:	21a01421 	lsrcs	r1, r1, #8
    5e5c:	22822008 	addcs	r2, r2, #8
    5e60:	e3510010 	cmp	r1, #16
    5e64:	21a01221 	lsrcs	r1, r1, #4
    5e68:	22822004 	addcs	r2, r2, #4
    5e6c:	e3510004 	cmp	r1, #4
    5e70:	82822003 	addhi	r2, r2, #3
    5e74:	908220a1 	addls	r2, r2, r1, lsr #1
    5e78:	e1a00230 	lsr	r0, r0, r2
    5e7c:	e12fff1e 	bx	lr
    5e80:	e3500000 	cmp	r0, #0
    5e84:	13e00000 	mvnne	r0, #0
    5e88:	eafffd71 	b	5454 <__aeabi_idiv0>

00005e8c <__aeabi_uidivmod>:
    5e8c:	e3510000 	cmp	r1, #0
    5e90:	0afffffa 	beq	5e80 <__aeabi_uidiv+0xe8>
    5e94:	e92d4003 	push	{r0, r1, lr}
    5e98:	ebffffbe 	bl	5d98 <__aeabi_uidiv>
    5e9c:	e8bd4006 	pop	{r1, r2, lr}
    5ea0:	e0030092 	mul	r3, r2, r0
    5ea4:	e0411003 	sub	r1, r1, r3
    5ea8:	e12fff1e 	bx	lr

00005eac <__clzsi2>:
    5eac:	e3a0101c 	mov	r1, #28
    5eb0:	e3500801 	cmp	r0, #65536	; 0x10000
    5eb4:	21a00820 	lsrcs	r0, r0, #16
    5eb8:	22411010 	subcs	r1, r1, #16
    5ebc:	e3500c01 	cmp	r0, #256	; 0x100
    5ec0:	21a00420 	lsrcs	r0, r0, #8
    5ec4:	22411008 	subcs	r1, r1, #8
    5ec8:	e3500010 	cmp	r0, #16
    5ecc:	21a00220 	lsrcs	r0, r0, #4
    5ed0:	22411004 	subcs	r1, r1, #4
    5ed4:	e28f2008 	add	r2, pc, #8
    5ed8:	e7d20000 	ldrb	r0, [r2, r0]
    5edc:	e0800001 	add	r0, r0, r1
    5ee0:	e12fff1e 	bx	lr
    5ee4:	02020304 	.word	0x02020304
    5ee8:	01010101 	.word	0x01010101
	...

00005ef4 <__errno>:
    5ef4:	e59f3004 	ldr	r3, [pc, #4]	; 5f00 <__errno+0xc>
    5ef8:	e5930000 	ldr	r0, [r3]
    5efc:	e12fff1e 	bx	lr
    5f00:	00400470 	.word	0x00400470

00005f04 <memcpy>:
    5f04:	e352000f 	cmp	r2, #15
    5f08:	e92d00f0 	push	{r4, r5, r6, r7}
    5f0c:	9a00002a 	bls	5fbc <memcpy+0xb8>
    5f10:	e1803001 	orr	r3, r0, r1
    5f14:	e3130003 	tst	r3, #3
    5f18:	1a000031 	bne	5fe4 <memcpy+0xe0>
    5f1c:	e2426010 	sub	r6, r2, #16
    5f20:	e1a06226 	lsr	r6, r6, #4
    5f24:	e0805206 	add	r5, r0, r6, lsl #4
    5f28:	e2855010 	add	r5, r5, #16
    5f2c:	e1a0c001 	mov	ip, r1
    5f30:	e1a03000 	mov	r3, r0
    5f34:	e59c4000 	ldr	r4, [ip]
    5f38:	e5834000 	str	r4, [r3]
    5f3c:	e59c4004 	ldr	r4, [ip, #4]
    5f40:	e5834004 	str	r4, [r3, #4]
    5f44:	e59c4008 	ldr	r4, [ip, #8]
    5f48:	e5834008 	str	r4, [r3, #8]
    5f4c:	e59c400c 	ldr	r4, [ip, #12]
    5f50:	e2833010 	add	r3, r3, #16
    5f54:	e5034004 	str	r4, [r3, #-4]
    5f58:	e1530005 	cmp	r3, r5
    5f5c:	e28cc010 	add	ip, ip, #16
    5f60:	1afffff3 	bne	5f34 <memcpy+0x30>
    5f64:	e2863001 	add	r3, r6, #1
    5f68:	e202700f 	and	r7, r2, #15
    5f6c:	e1a03203 	lsl	r3, r3, #4
    5f70:	e3570003 	cmp	r7, #3
    5f74:	e0811003 	add	r1, r1, r3
    5f78:	e0803003 	add	r3, r0, r3
    5f7c:	9a00001a 	bls	5fec <memcpy+0xe8>
    5f80:	e1a05001 	mov	r5, r1
    5f84:	e1a04003 	mov	r4, r3
    5f88:	e1a0c007 	mov	ip, r7
    5f8c:	e24cc004 	sub	ip, ip, #4
    5f90:	e4956004 	ldr	r6, [r5], #4
    5f94:	e35c0003 	cmp	ip, #3
    5f98:	e4846004 	str	r6, [r4], #4
    5f9c:	8afffffa 	bhi	5f8c <memcpy+0x88>
    5fa0:	e247c004 	sub	ip, r7, #4
    5fa4:	e3ccc003 	bic	ip, ip, #3
    5fa8:	e28cc004 	add	ip, ip, #4
    5fac:	e083300c 	add	r3, r3, ip
    5fb0:	e081100c 	add	r1, r1, ip
    5fb4:	e2022003 	and	r2, r2, #3
    5fb8:	ea000000 	b	5fc0 <memcpy+0xbc>
    5fbc:	e1a03000 	mov	r3, r0
    5fc0:	e3520000 	cmp	r2, #0
    5fc4:	0a000004 	beq	5fdc <memcpy+0xd8>
    5fc8:	e0812002 	add	r2, r1, r2
    5fcc:	e4d1c001 	ldrb	ip, [r1], #1
    5fd0:	e1510002 	cmp	r1, r2
    5fd4:	e4c3c001 	strb	ip, [r3], #1
    5fd8:	1afffffb 	bne	5fcc <memcpy+0xc8>
    5fdc:	e8bd00f0 	pop	{r4, r5, r6, r7}
    5fe0:	e12fff1e 	bx	lr
    5fe4:	e1a03000 	mov	r3, r0
    5fe8:	eafffff6 	b	5fc8 <memcpy+0xc4>
    5fec:	e1a02007 	mov	r2, r7
    5ff0:	eafffff2 	b	5fc0 <memcpy+0xbc>
    5ff4:	00000000 	andeq	r0, r0, r0

00005ff8 <__spin1_callback_off_from_arm>:
    5ff8:	e51ff004 	ldr	pc, [pc, #-4]	; 5ffc <__spin1_callback_off_from_arm+0x4>
    5ffc:	00002ab9 	.word	0x00002ab9

00006000 <__exp_hi>:
    6000:	000025ec 00000000 00006715 00000000     .%.......g......
    6010:	00011835 00000000 0002f9af 00000000     5...............
    6020:	00081679 00000000 0015fc21 00000000     y.......!.......
    6030:	003bc2d7 00000000 00a27290 00000000     ..;......r......
    6040:	01b993fe 00000000 04b0556e 00000000     ........nU......
    6050:	0cbed866 00000000 22a55547 00000000     f.......GU."....
    6060:	5e2d58d9 00000000 00000000 00000001     .X-^............
    6070:	b7e15163 00000002 63992e35 00000007     cQ......5..c....
    6080:	15e5bf70 00000014 99205c4e 00000036     p.......N\ .6...
    6090:	69c4cb82 00000094 6dc5690c 00000193     ...i.....i.m....
    60a0:	a216abb7 00000448 f53ea386 00000ba4     ....H.....>.....
    60b0:	157c4710 00001fa7 773e5415 0000560a     .G|......T>w.V..
    60c0:	2447727c 0000e9e2 ca9a6f93 00027bc2     |rG$.....o...{..

000060d0 <__expm1_mid>:
    60d0:	00000000 0f82a022 1e14aed9 2bc4bf6a     ....".......j..+
    60e0:	38a0830b 44b4d690 500dcf51 5ab6c736     ...8...DQ..P6..Z
    60f0:	64ba681d 6e22b67a 76f91b66 7f466e01     .h.dz."nf..v.nF.
    6100:	8712fc50 8e669388 954887db 9bbfbbd0     P.....f...H.....

00006110 <build_date>:
    6110:	54ec8085                                ...T

00006114 <build_name>:
    6114:	6b697073 6f735f65 65637275 0065725f     spike_source_re.
    6124:	4b524153 6970532f 6b614e4e 30007265              SARK/SpiNNaker.

00006133 <hex>:
    6133:	33323130 37363534 62613938 66656463     0123456789abcdef
    6143:	5b090900 5f697061 75626564 52205d67     ...[api_debug] R
    6153:	6d205254 20202063 61702020 74656b63     TR mc     packet
    6163:	25203a73 09000a64 70615b09 65645f69     s: %d....[api_de
    6173:	5d677562 52545220 64706420 20636d20     bug] RTR dpd mc 
    6183:	6b636170 3a737465 0a642520 5b090900     packets: %d....[
    6193:	5f697061 75626564 49205d67 74205253     api_debug] ISR t
    61a3:	776f7268 6170206e 74656b63 25203a73     hrown packets: %
    61b3:	09000a64 70615b09 65645f69 5d677562     d....[api_debug]
    61c3:	414d4420 72756220 3a737473 64252020      DMA bursts:  %d
    61d3:	0909000a 6970615b 7261775f 77205d6e     ....[api_warn] w
    61e3:	696e7261 203a676e 6b736174 65757120     arning: task que
    61f3:	66206575 206c6c75 29752528 0909000a     ue full (%u)....
    6203:	6970615b 7261775f 77205d6e 696e7261     [api_warn] warni
    6213:	203a676e 20414d44 75657571 75662065     ng: DMA queue fu
    6223:	28206c6c 0a297525 5b090900 5f697061     ll (%u)....[api_
    6233:	6e726177 6177205d 6e696e72 70203a67     warn] warning: p
    6243:	656b6361 75712074 20657565 6c6c7566     acket queue full
    6253:	75252820 00000a29 676f6c00 00000066      (%u)....logf...
    6263:	72717300 00006674 00004300 000f7000              .sqrtf...C...
