
IF_curr_exp_stdp_trace_pair.elf:     file format elf32-littlearm
IF_curr_exp_stdp_trace_pair.elf
architecture: armv5te, flags 0x00000112:
EXEC_P, HAS_SYMS, D_PAGED
start address 0x00000000

Program Header:
    LOAD off    0x00008000 vaddr 0x00000000 paddr 0x00000000 align 2**15
         filesz 0x00004162 memsz 0x00004162 flags r-x
    LOAD off    0x00010000 vaddr 0x00400000 paddr 0x00400000 align 2**15
         filesz 0x00000010 memsz 0x00005cc0 flags rw-
private flags = 5000200: [Version5 EABI] [soft-float ABI]

Sections:
Idx Name          Size      VMA       LMA       File off  Algn
  0 RO_DATA       00004162  00000000  00000000  00008000  2**3
                  CONTENTS, ALLOC, LOAD, READONLY, CODE
  1 RW_DATA       00000010  00400000  00400000  00010000  2**2
                  CONTENTS, ALLOC, LOAD, DATA
  2 ZI_DATA       00005cb0  00400010  00400010  00010010  2**2
                  ALLOC
  3 .comment      0000004f  00000000  00000000  00010010  2**0
                  CONTENTS, READONLY
  4 .ARM.attributes 00000029  00000000  00000000  0001005f  2**0
                  CONTENTS, READONLY
  5 .debug_frame  00000078  00000000  00000000  00010088  2**2
                  CONTENTS, READONLY, DEBUGGING
  6 .debug_line   00000306  00000000  00000000  00010100  2**0
                  CONTENTS, READONLY, DEBUGGING
  7 .debug_info   00000370  00000000  00000000  00010406  2**0
                  CONTENTS, READONLY, DEBUGGING
  8 .debug_abbrev 00000172  00000000  00000000  00010776  2**0
                  CONTENTS, READONLY, DEBUGGING
  9 .debug_aranges 00000080  00000000  00000000  000108e8  2**3
                  CONTENTS, READONLY, DEBUGGING
 10 .debug_loc    00000336  00000000  00000000  00010968  2**0
                  CONTENTS, READONLY, DEBUGGING
 11 .debug_ranges 00000020  00000000  00000000  00010c9e  2**0
                  CONTENTS, READONLY, DEBUGGING
 12 .debug_str    000001eb  00000000  00000000  00010cbe  2**0
                  CONTENTS, READONLY, DEBUGGING
SYMBOL TABLE:
00000000 l    d  RO_DATA	00000000 RO_DATA
00400000 l    d  RW_DATA	00000000 RW_DATA
00400010 l    d  ZI_DATA	00000000 ZI_DATA
00000000 l    d  .comment	00000000 .comment
00000000 l    d  .ARM.attributes	00000000 .ARM.attributes
00000000 l    d  .debug_frame	00000000 .debug_frame
00000000 l    d  .debug_line	00000000 .debug_line
00000000 l    d  .debug_info	00000000 .debug_info
00000000 l    d  .debug_abbrev	00000000 .debug_abbrev
00000000 l    d  .debug_aranges	00000000 .debug_aranges
00000000 l    d  .debug_loc	00000000 .debug_loc
00000000 l    d  .debug_ranges	00000000 .debug_ranges
00000000 l    d  .debug_str	00000000 .debug_str
00000000 l    df *ABS*	00000000 sark_alib.o
00000001 l       *ABS*	00000000 GNU
00000000 l       *ABS*	00000000 NULL
80000000 l       *ABS*	00000000 BIT_31
00000001 l       *ABS*	00000000 BUF_WRITE
00000012 l       *ABS*	00000000 NUM_CPUS
00000006 l       *ABS*	00000000 NUM_LINKS
00000000 l       *ABS*	00000000 ITCM_BASE
00008000 l       *ABS*	00000000 ITCM_SIZE
00008000 l       *ABS*	00000000 ITCM_TOP
00400000 l       *ABS*	00000000 DTCM_BASE
00010000 l       *ABS*	00000000 DTCM_SIZE
00410000 l       *ABS*	00000000 DTCM_TOP
70000000 l       *ABS*	00000000 SDRAM_BASE_UNBUF
60000000 l       *ABS*	00000000 SDRAM_BASE_BUF
60000000 l       *ABS*	00000000 SDRAM_BASE
08000000 l       *ABS*	00000000 SDRAM_SIZE
68000000 l       *ABS*	00000000 SDRAM_TOP
f5000000 l       *ABS*	00000000 SYSRAM_BASE_UNBUF
e5000000 l       *ABS*	00000000 SYSRAM_BASE_BUF
e5000000 l       *ABS*	00000000 SYSRAM_BASE
00008000 l       *ABS*	00000000 SYSRAM_SIZE
e5008000 l       *ABS*	00000000 SYSRAM_TOP
f6000000 l       *ABS*	00000000 ROM_BASE
00008000 l       *ABS*	00000000 ROM_SIZE
f6008000 l       *ABS*	00000000 ROM_TOP
10000000 l       *ABS*	00000000 CC_BASE_UNBUF
20000000 l       *ABS*	00000000 CC_BASE_BUF
20000000 l       *ABS*	00000000 CC_BASE
00000000 l       *ABS*	00000000 CC_TCR
00000004 l       *ABS*	00000000 CC_TXDATA
00000008 l       *ABS*	00000000 CC_TXKEY
0000000c l       *ABS*	00000000 CC_RSR
00000010 l       *ABS*	00000000 CC_RXDATA
00000014 l       *ABS*	00000000 CC_RXKEY
00000018 l       *ABS*	00000000 CC_SAR
0000001c l       *ABS*	00000000 CC_TEST
11000000 l       *ABS*	00000000 TIMER_BASE_UNBUF
21000000 l       *ABS*	00000000 TIMER_BASE_BUF
21000000 l       *ABS*	00000000 TIMER_BASE
00000020 l       *ABS*	00000000 TIMER_OFFSET
21000000 l       *ABS*	00000000 TIMER1_BASE
21000020 l       *ABS*	00000000 TIMER2_BASE
00000000 l       *ABS*	00000000 TC_LOAD
00000004 l       *ABS*	00000000 TC_COUNT
00000008 l       *ABS*	00000000 TC_CONTROL
0000000c l       *ABS*	00000000 TC_INT_CLR
00000010 l       *ABS*	00000000 TC_RAW_INT
00000014 l       *ABS*	00000000 TC_MASK_INT
00000018 l       *ABS*	00000000 TC_BG_LOAD
00000000 l       *ABS*	00000000 T1_LOAD
00000004 l       *ABS*	00000000 T1_COUNT
00000008 l       *ABS*	00000000 T1_CONTROL
0000000c l       *ABS*	00000000 T1_INT_CLR
00000010 l       *ABS*	00000000 T1_RAW_INT
00000014 l       *ABS*	00000000 T1_MASK_INT
00000018 l       *ABS*	00000000 T1_BG_LOAD
00000020 l       *ABS*	00000000 T2_LOAD
00000024 l       *ABS*	00000000 T2_COUNT
00000028 l       *ABS*	00000000 T2_CONTROL
0000002c l       *ABS*	00000000 T2_INT_CLR
00000030 l       *ABS*	00000000 T2_RAW_INT
00000034 l       *ABS*	00000000 T2_MASK_INT
00000038 l       *ABS*	00000000 T2_BG_LOAD
1f000000 l       *ABS*	00000000 VIC_BASE_UNBUF
2f000000 l       *ABS*	00000000 VIC_BASE_BUF
2f000000 l       *ABS*	00000000 VIC_BASE
00000000 l       *ABS*	00000000 VIC_IRQST
00000004 l       *ABS*	00000000 VIC_FIQST
00000008 l       *ABS*	00000000 VIC_RAW
0000000c l       *ABS*	00000000 VIC_SELECT
00000010 l       *ABS*	00000000 VIC_ENABLE
00000014 l       *ABS*	00000000 VIC_DISABLE
00000018 l       *ABS*	00000000 VIC_SOFT_SET
0000001c l       *ABS*	00000000 VIC_SOFT_CLR
00000020 l       *ABS*	00000000 VIC_PROTECT
00000030 l       *ABS*	00000000 VIC_VADDR
00000034 l       *ABS*	00000000 VIC_DEFADDR
00000100 l       *ABS*	00000000 VIC_ADDR
00000100 l       *ABS*	00000000 VIC_ADDR0
00000104 l       *ABS*	00000000 VIC_ADDR1
00000108 l       *ABS*	00000000 VIC_ADDR2
0000010c l       *ABS*	00000000 VIC_ADDR3
00000110 l       *ABS*	00000000 VIC_ADDR4
00000114 l       *ABS*	00000000 VIC_ADDR5
00000118 l       *ABS*	00000000 VIC_ADDR6
0000011c l       *ABS*	00000000 VIC_ADDR7
00000120 l       *ABS*	00000000 VIC_ADDR8
00000124 l       *ABS*	00000000 VIC_ADDR9
00000128 l       *ABS*	00000000 VIC_ADDR10
0000012c l       *ABS*	00000000 VIC_ADDR11
00000130 l       *ABS*	00000000 VIC_ADDR12
00000134 l       *ABS*	00000000 VIC_ADDR13
00000138 l       *ABS*	00000000 VIC_ADDR14
0000013c l       *ABS*	00000000 VIC_ADDR15
00000200 l       *ABS*	00000000 VIC_CNTL
00000200 l       *ABS*	00000000 VIC_CNTL0
00000204 l       *ABS*	00000000 VIC_CNTL1
00000208 l       *ABS*	00000000 VIC_CNTL2
0000020c l       *ABS*	00000000 VIC_CNTL3
00000210 l       *ABS*	00000000 VIC_CNTL4
00000214 l       *ABS*	00000000 VIC_CNTL5
00000218 l       *ABS*	00000000 VIC_CNTL6
0000021c l       *ABS*	00000000 VIC_CNTL7
00000220 l       *ABS*	00000000 VIC_CNTL8
00000224 l       *ABS*	00000000 VIC_CNTL9
00000228 l       *ABS*	00000000 VIC_CNTL10
0000022c l       *ABS*	00000000 VIC_CNTL11
00000230 l       *ABS*	00000000 VIC_CNTL12
00000234 l       *ABS*	00000000 VIC_CNTL13
00000238 l       *ABS*	00000000 VIC_CNTL14
0000023c l       *ABS*	00000000 VIC_CNTL15
00000000 l       *ABS*	00000000 WDOG_INT
00000001 l       *ABS*	00000000 SOFTWARE_INT
00000002 l       *ABS*	00000000 COMM_RX_INT
00000003 l       *ABS*	00000000 COMM_TX_INT
00000004 l       *ABS*	00000000 TIMER1_INT
00000005 l       *ABS*	00000000 TIMER2_INT
00000006 l       *ABS*	00000000 CC_RDY_INT
00000007 l       *ABS*	00000000 CC_RPE_INT
00000008 l       *ABS*	00000000 CC_RFE_INT
00000009 l       *ABS*	00000000 CC_TFL_INT
0000000a l       *ABS*	00000000 CC_TOV_INT
0000000b l       *ABS*	00000000 CC_TMT_INT
0000000c l       *ABS*	00000000 DMA_DONE_INT
0000000d l       *ABS*	00000000 DMA_ERR_INT
0000000e l       *ABS*	00000000 DMA_TO_INT
0000000f l       *ABS*	00000000 RTR_DIAG_INT
00000010 l       *ABS*	00000000 RTR_DUMP_INT
00000011 l       *ABS*	00000000 RTR_ERR_INT
00000012 l       *ABS*	00000000 CPU_INT
00000013 l       *ABS*	00000000 ETH_TX_INT
00000014 l       *ABS*	00000000 ETH_RX_INT
00000015 l       *ABS*	00000000 ETH_PHY_INT
00000016 l       *ABS*	00000000 SLOW_CLK_INT
00000017 l       *ABS*	00000000 CC_TNF_INT
00000018 l       *ABS*	00000000 CC_MC_INT
00000019 l       *ABS*	00000000 CC_P2P_INT
0000001a l       *ABS*	00000000 CC_NN_INT
0000001b l       *ABS*	00000000 CC_FR_INT
0000001c l       *ABS*	00000000 INT0_INT
0000001d l       *ABS*	00000000 INT1_INT
0000001e l       *ABS*	00000000 GPIO8_INT
0000001f l       *ABS*	00000000 GPIO9_INT
30000000 l       *ABS*	00000000 DMA_BASE_UNBUF
40000000 l       *ABS*	00000000 DMA_BASE_BUF
40000000 l       *ABS*	00000000 DMA_BASE
00000004 l       *ABS*	00000000 DMA_ADRS
00000008 l       *ABS*	00000000 DMA_ADRT
0000000c l       *ABS*	00000000 DMA_DESC
00000010 l       *ABS*	00000000 DMA_CTRL
00000014 l       *ABS*	00000000 DMA_STAT
00000018 l       *ABS*	00000000 DMA_GCTL
0000001c l       *ABS*	00000000 DMA_CRCC
00000020 l       *ABS*	00000000 DMA_CRCR
00000024 l       *ABS*	00000000 DMA_TMTV
00000028 l       *ABS*	00000000 DMA_SCTL
00000040 l       *ABS*	00000000 DMA_STAT0
00000044 l       *ABS*	00000000 DMA_STAT1
00000048 l       *ABS*	00000000 DMA_STAT2
0000004c l       *ABS*	00000000 DMA_STAT3
00000050 l       *ABS*	00000000 DMA_STAT4
00000054 l       *ABS*	00000000 DMA_STAT5
00000058 l       *ABS*	00000000 DMA_STAT6
0000005c l       *ABS*	00000000 DMA_STAT7
00000104 l       *ABS*	00000000 DMA_AD2S
00000108 l       *ABS*	00000000 DMA_AD2T
0000010c l       *ABS*	00000000 DMA_DES2
00000180 l       *ABS*	00000000 DMA_CRCT
f0000000 l       *ABS*	00000000 PL340_BASE_UNBUF
e0000000 l       *ABS*	00000000 PL340_BASE_BUF
e0000000 l       *ABS*	00000000 PL340_BASE
00000000 l       *ABS*	00000000 MC_STAT
00000004 l       *ABS*	00000000 MC_CMD
00000008 l       *ABS*	00000000 MC_DIRC
0000000c l       *ABS*	00000000 MC_MCFG
00000010 l       *ABS*	00000000 MC_REFP
00000014 l       *ABS*	00000000 MC_CASL
00000018 l       *ABS*	00000000 MC_DQSS
0000001c l       *ABS*	00000000 MC_MRD
00000020 l       *ABS*	00000000 MC_RAS
00000024 l       *ABS*	00000000 MC_RC
00000028 l       *ABS*	00000000 MC_RCD
0000002c l       *ABS*	00000000 MC_RFC
00000030 l       *ABS*	00000000 MC_RP
00000034 l       *ABS*	00000000 MC_RRD
00000038 l       *ABS*	00000000 MC_WR
0000003c l       *ABS*	00000000 MC_WTR
00000040 l       *ABS*	00000000 MC_XP
00000044 l       *ABS*	00000000 MC_XSR
00000048 l       *ABS*	00000000 MC_ESR
0000004c l       *ABS*	00000000 MC_MCFG2
00000050 l       *ABS*	00000000 MC_MCFG3
00000100 l       *ABS*	00000000 MC_QOS0
00000104 l       *ABS*	00000000 MC_QOS1
00000108 l       *ABS*	00000000 MC_QOS2
0000010c l       *ABS*	00000000 MC_QOS3
00000110 l       *ABS*	00000000 MC_QOS4
00000114 l       *ABS*	00000000 MC_QOS5
00000118 l       *ABS*	00000000 MC_QOS6
0000011c l       *ABS*	00000000 MC_QOS7
00000120 l       *ABS*	00000000 MC_QOS8
00000124 l       *ABS*	00000000 MC_QOS9
00000128 l       *ABS*	00000000 MC_QOS10
0000012c l       *ABS*	00000000 MC_QOS11
00000130 l       *ABS*	00000000 MC_QOS12
00000134 l       *ABS*	00000000 MC_QOS13
00000138 l       *ABS*	00000000 MC_QOS14
0000013c l       *ABS*	00000000 MC_QOS15
00000200 l       *ABS*	00000000 MC_CCFG0
00000204 l       *ABS*	00000000 MC_CCFG1
00000208 l       *ABS*	00000000 MC_CCFG2
0000020c l       *ABS*	00000000 MC_CCFG3
00000300 l       *ABS*	00000000 DLL_STATUS
00000304 l       *ABS*	00000000 DLL_CONFIG0
00000308 l       *ABS*	00000000 DLL_CONFIG1
f1000000 l       *ABS*	00000000 RTR_BASE_UNBUF
e1000000 l       *ABS*	00000000 RTR_BASE_BUF
e1000000 l       *ABS*	00000000 RTR_BASE
00000000 l       *ABS*	00000000 RTR_CONTROL
00000004 l       *ABS*	00000000 RTR_STATUS
00000008 l       *ABS*	00000000 RTR_EHDR
0000000c l       *ABS*	00000000 RTR_EKEY
00000010 l       *ABS*	00000000 RTR_EDAT
00000014 l       *ABS*	00000000 RTR_ESTAT
00000018 l       *ABS*	00000000 RTR_DHDR
0000001c l       *ABS*	00000000 RTR_DKEY
00000020 l       *ABS*	00000000 RTR_DDAT
00000024 l       *ABS*	00000000 RTR_DLINK
00000028 l       *ABS*	00000000 RTR_DSTAT
0000002c l       *ABS*	00000000 RTR_DGEN
00000200 l       *ABS*	00000000 RTR_DGF0
00000204 l       *ABS*	00000000 RTR_DGF1
00000208 l       *ABS*	00000000 RTR_DGF2
0000020c l       *ABS*	00000000 RTR_DGF3
00000210 l       *ABS*	00000000 RTR_DGF4
00000214 l       *ABS*	00000000 RTR_DGF5
00000218 l       *ABS*	00000000 RTR_DGF6
0000021c l       *ABS*	00000000 RTR_DGF7
00000220 l       *ABS*	00000000 RTR_DGF8
00000224 l       *ABS*	00000000 RTR_DGF9
00000228 l       *ABS*	00000000 RTR_DGF10
0000022c l       *ABS*	00000000 RTR_DGF11
00000230 l       *ABS*	00000000 RTR_DGF12
00000234 l       *ABS*	00000000 RTR_DGF13
00000238 l       *ABS*	00000000 RTR_DGF14
0000023c l       *ABS*	00000000 RTR_DGF15
00000300 l       *ABS*	00000000 RTR_DGC0
00000304 l       *ABS*	00000000 RTR_DGC1
00000308 l       *ABS*	00000000 RTR_DGC2
0000030c l       *ABS*	00000000 RTR_DGC3
00000310 l       *ABS*	00000000 RTR_DGC4
00000314 l       *ABS*	00000000 RTR_DGC5
00000318 l       *ABS*	00000000 RTR_DGC6
0000031c l       *ABS*	00000000 RTR_DGC7
00000320 l       *ABS*	00000000 RTR_DGC8
00000324 l       *ABS*	00000000 RTR_DGC9
00000328 l       *ABS*	00000000 RTR_DGC10
0000032c l       *ABS*	00000000 RTR_DGC11
00000330 l       *ABS*	00000000 RTR_DGC12
00000334 l       *ABS*	00000000 RTR_DGC13
00000338 l       *ABS*	00000000 RTR_DGC14
0000033c l       *ABS*	00000000 RTR_DGC15
00000f00 l       *ABS*	00000000 RTR_TST1
00000f04 l       *ABS*	00000000 RTR_TST2
00002000 l       *ABS*	00000000 P2P_TABLE_SIZE
00000400 l       *ABS*	00000000 MC_TABLE_SIZE
00000018 l       *ABS*	00000000 MC_RAM_WIDTH
00ffffff l       *ABS*	00000000 MC_RAM_MASK
00000008 l       *ABS*	00000000 P2P_EPW
00000003 l       *ABS*	00000000 P2P_LOG_EPW
00000007 l       *ABS*	00000000 P2P_EMASK
00000003 l       *ABS*	00000000 P2P_BPE
00000007 l       *ABS*	00000000 P2P_BMASK
00db6db6 l       *ABS*	00000000 P2P_INIT
e1004000 l       *ABS*	00000000 RTR_MCRAM_BASE
e1005000 l       *ABS*	00000000 RTR_MCRAM_TOP
e1008000 l       *ABS*	00000000 RTR_MCKEY_BASE
e1009000 l       *ABS*	00000000 RTR_MCKEY_TOP
e100c000 l       *ABS*	00000000 RTR_MCMASK_BASE
e100d000 l       *ABS*	00000000 RTR_MCMASK_TOP
e1010000 l       *ABS*	00000000 RTR_P2P_BASE
e1018000 l       *ABS*	00000000 RTR_P2P_TOP
00000020 l       *ABS*	00000000 MC_CAM_WIDTH
f2000000 l       *ABS*	00000000 SYSCTL_BASE_UNBUF
e2000000 l       *ABS*	00000000 SYSCTL_BASE_BUF
e2000000 l       *ABS*	00000000 SYSCTL_BASE
5ec00000 l       *ABS*	00000000 SC_CODE
59111012 l       *ABS*	00000000 CHIP_ID_CODE
00000000 l       *ABS*	00000000 SC_CHIP_ID
00000004 l       *ABS*	00000000 SC_CPU_DIS
00000008 l       *ABS*	00000000 SC_SET_IRQ
0000000c l       *ABS*	00000000 SC_CLR_IRQ
00000010 l       *ABS*	00000000 SC_SET_OK
00000010 l       *ABS*	00000000 SC_CPU_OK
00000014 l       *ABS*	00000000 SC_CLR_OK
00000018 l       *ABS*	00000000 SC_SOFT_RST_L
0000001c l       *ABS*	00000000 SC_HARD_RST_L
00000020 l       *ABS*	00000000 SC_SUBS_RST_L
00000024 l       *ABS*	00000000 SC_SOFT_RST_P
00000028 l       *ABS*	00000000 SC_HARD_RST_P
0000002c l       *ABS*	00000000 SC_SUBS_RST_P
00000030 l       *ABS*	00000000 SC_RST_CODE
00000034 l       *ABS*	00000000 SC_MON_ID
00000038 l       *ABS*	00000000 SC_MISC_CTRL
0000003c l       *ABS*	00000000 GPIO_RES
00000040 l       *ABS*	00000000 GPIO_PORT
00000044 l       *ABS*	00000000 GPIO_DIR
00000048 l       *ABS*	00000000 GPIO_SET
0000004c l       *ABS*	00000000 GPIO_CLR
00000048 l       *ABS*	00000000 GPIO_READ
00000050 l       *ABS*	00000000 SC_PLL1
00000054 l       *ABS*	00000000 SC_PLL2
00000058 l       *ABS*	00000000 SC_FLAG
00000058 l       *ABS*	00000000 SC_SETFLAG
0000005c l       *ABS*	00000000 SC_CLRFLAG
00000060 l       *ABS*	00000000 SC_CLKMUX
00000064 l       *ABS*	00000000 SC_SLEEP
00000068 l       *ABS*	00000000 SC_TS0
0000006c l       *ABS*	00000000 SC_TS1
00000070 l       *ABS*	00000000 SC_TS2
00000080 l       *ABS*	00000000 SC_ARB0
00000100 l       *ABS*	00000000 SC_TAS0
00000180 l       *ABS*	00000000 SC_TAC0
00000200 l       *ABS*	00000000 SC_LINK_DIS
00000000 l       *ABS*	00000000 RST_POR
00000001 l       *ABS*	00000000 RST_WDT
00000002 l       *ABS*	00000000 RST_USER
00000003 l       *ABS*	00000000 RST_SW
00000004 l       *ABS*	00000000 RST_WDI
f3000000 l       *ABS*	00000000 WDOG_BASE_UNBUF
e3000000 l       *ABS*	00000000 WDOG_BASE_BUF
e3000000 l       *ABS*	00000000 WDOG_BASE
00000000 l       *ABS*	00000000 WD_LOAD
00000004 l       *ABS*	00000000 WD_COUNT
00000008 l       *ABS*	00000000 WD_CTRL
0000000c l       *ABS*	00000000 WD_INTCLR
00000010 l       *ABS*	00000000 WD_RAWINT
00000014 l       *ABS*	00000000 WD_MSKINT
00000c00 l       *ABS*	00000000 WD_LOCK
1acce551 l       *ABS*	00000000 WD_CODE
00000001 l       *ABS*	00000000 WD_INT_B
00000002 l       *ABS*	00000000 WD_RST_B
f4000000 l       *ABS*	00000000 ETH_BASE_UNBUF
e4000000 l       *ABS*	00000000 ETH_BASE_BUF
e4000000 l       *ABS*	00000000 ETH_BASE
e4000000 l       *ABS*	00000000 ETH_TX_BASE
00000600 l       *ABS*	00000000 ETH_TX_SIZE
e4000600 l       *ABS*	00000000 ETH_TX_TOP
e4004000 l       *ABS*	00000000 ETH_RX_BASE
00000c00 l       *ABS*	00000000 ETH_RX_SIZE
e4004c00 l       *ABS*	00000000 ETH_RX_TOP
e4008000 l       *ABS*	00000000 ETH_RX_DESC_RAM
e400c000 l       *ABS*	00000000 ETH_REGS
00000000 l       *ABS*	00000000 ETH_CONTROL
00000004 l       *ABS*	00000000 ETH_STATUS
00000008 l       *ABS*	00000000 ETH_TX_LEN
0000000c l       *ABS*	00000000 ETH_TX_CMD
00000010 l       *ABS*	00000000 ETH_RX_CMD
00000014 l       *ABS*	00000000 ETH_MAC_LO
00000018 l       *ABS*	00000000 ETH_MAC_HI
0000001c l       *ABS*	00000000 ETH_PHY_CTRL
00000020 l       *ABS*	00000000 ETH_INT_CLR
00000024 l       *ABS*	00000000 ETH_RX_BUF_RP
0000002c l       *ABS*	00000000 ETH_RX_DESC_RP
00000001 l       *ABS*	00000000 ETH_TX_CLR
00000010 l       *ABS*	00000000 ETH_RX_CLR
00000001 l       *ABS*	00000000 PHY_CTRL_NRST
00000002 l       *ABS*	00000000 PHY_CTRL_DIN
00000004 l       *ABS*	00000000 PHY_CTRL_DOUT
00000008 l       *ABS*	00000000 PHY_CTRL_OE
00000010 l       *ABS*	00000000 PHY_CTRL_CLK
00000000 l       *ABS*	00000000 PKT_MC
00400000 l       *ABS*	00000000 PKT_P2P
00800000 l       *ABS*	00000000 PKT_NN
00a00000 l       *ABS*	00000000 PKT_NND
00c00000 l       *ABS*	00000000 PKT_FR
00020000 l       *ABS*	00000000 PKT_PL
00020000 l       *ABS*	00000000 PKT_MC_PL
00420000 l       *ABS*	00000000 PKT_P2P_PL
00820000 l       *ABS*	00000000 PKT_NN_PL
00c20000 l       *ABS*	00000000 PKT_FR_PL
0000000a l       *ABS*	00000000 CLK_XTAL_MHZ
0007011a l       *ABS*	00000000 PLL_260
0007011e l       *ABS*	00000000 PLL_300
00070121 l       *ABS*	00000000 PLL_330
00070128 l       *ABS*	00000000 PLL_400
00000050 l       *ABS*	00000000 PLL_LOCK_TIME
809488a5 l       *ABS*	00000000 PLL_CLK_SEL
00000020 l       *ABS*	00000000 SERIAL_NCS
00000010 l       *ABS*	00000000 SERIAL_CLK
00000008 l       *ABS*	00000000 SERIAL_SI
00000004 l       *ABS*	00000000 SERIAL_SO
00000038 l       *ABS*	00000000 SERIAL_OE
80000000 l       *ABS*	00000000 SDRAM_TQ
40000000 l       *ABS*	00000000 SDRAM_DPD
20000000 l       *ABS*	00000000 SDRAM_HERE
00000001 l       *ABS*	00000000 LED_0
00000010 l       *ABS*	00000000 MODE_USER
00000011 l       *ABS*	00000000 MODE_FIQ
00000012 l       *ABS*	00000000 MODE_IRQ
00000013 l       *ABS*	00000000 MODE_SVC
00000017 l       *ABS*	00000000 MODE_ABT
0000001b l       *ABS*	00000000 MODE_UND
0000001f l       *ABS*	00000000 MODE_SYS
00000020 l       *ABS*	00000000 THUMB_BIT
00000080 l       *ABS*	00000000 IMASK_IRQ
00000040 l       *ABS*	00000000 IMASK_FIQ
000000c0 l       *ABS*	00000000 IMASK_ALL
00000001 l       *ABS*	00000000 SARK_EVENT
00000180 l       *ABS*	00000000 SVC_STACK
00000100 l       *ABS*	00000000 IRQ_STACK
00000100 l       *ABS*	00000000 FIQ_STACK
00000004 l       *ABS*	00000000 NUM_SDP_MSGS
0000000f l       *ABS*	00000000 SARK_SLOT
00000010 l       *ABS*	00000000 INIT_EVENTS
deaddead l       *ABS*	00000000 DEAD_WORD
00000001 l       *ABS*	00000000 APLX_ACOPY
00000002 l       *ABS*	00000000 APLX_RCOPY
00000003 l       *ABS*	00000000 APLX_FILL
00000004 l       *ABS*	00000000 APLX_EXEC
000000ff l       *ABS*	00000000 APLX_END
00000010 l       *ABS*	00000000 APLX_ENTRY_SIZE
00000040 l       *ABS*	00000000 APLX_BUF_SIZE
00007fc0 l       *ABS*	00000000 APLX_BUFFER
000000ff l       *ABS*	00000000 TAG_NONE
00000000 l       *ABS*	00000000 TAG_HOST
00000001 l       *ABS*	00000000 RTR_ALLOC_FIRST
00000400 l       *ABS*	00000000 RTR_ALLOC_LAST
000003ff l       *ABS*	00000000 RTR_ALLOC_MAX
00000001 l       *ABS*	00000000 ALLOC_LOCK
00000002 l       *ABS*	00000000 ALLOC_ID
00000005 l       *ABS*	00000000 A_LOCK_SEMA
00000001 l       *ABS*	00000000 A_RTE_RESET
00000002 l       *ABS*	00000000 A_RTE_UNDEF
00000003 l       *ABS*	00000000 A_RTE_SVC
00000004 l       *ABS*	00000000 A_RTE_PABT
00000005 l       *ABS*	00000000 A_RTE_DABT
00000006 l       *ABS*	00000000 A_RTE_IRQ
00000007 l       *ABS*	00000000 A_RTE_FIQ
00000008 l       *ABS*	00000000 A_RTE_VIC
00000002 l       *ABS*	00000000 A_STATE_RTE
00000006 l       *ABS*	00000000 EVENT_COUNT
00000000 l       *ABS*	00000000 CMD_VER
00000001 l       *ABS*	00000000 CMD_RUN
00000002 l       *ABS*	00000000 CMD_READ
00000003 l       *ABS*	00000000 CMD_WRITE
00000004 l       *ABS*	00000000 CMD_APLX
00000005 l       *ABS*	00000000 CMD_FILL
00000010 l       *ABS*	00000000 CMD_REMAP
00000011 l       *ABS*	00000000 CMD_LINK_READ
00000012 l       *ABS*	00000000 CMD_LINK_WRITE
00000013 l       *ABS*	00000000 CMD_AR
00000014 l       *ABS*	00000000 CMD_NNP
00000015 l       *ABS*	00000000 CMD_P2PC
00000016 l       *ABS*	00000000 CMD_SIG
00000017 l       *ABS*	00000000 CMD_FFD
00000018 l       *ABS*	00000000 CMD_AS
00000019 l       *ABS*	00000000 CMD_LED
0000001a l       *ABS*	00000000 CMD_IPTAG
0000001b l       *ABS*	00000000 CMD_SROM
0000001c l       *ABS*	00000000 CMD_ALLOC
0000001d l       *ABS*	00000000 CMD_RTR
00000040 l       *ABS*	00000000 CMD_TUBE
00000080 l       *ABS*	00000000 RC_OK
00000081 l       *ABS*	00000000 RC_LEN
00000082 l       *ABS*	00000000 RC_SUM
00000083 l       *ABS*	00000000 RC_CMD
00000084 l       *ABS*	00000000 RC_ARG
00000085 l       *ABS*	00000000 RC_PORT
00000086 l       *ABS*	00000000 RC_TIMEOUT
00000087 l       *ABS*	00000000 RC_ROUTE
00000088 l       *ABS*	00000000 RC_CPU
00000089 l       *ABS*	00000000 RC_DEAD
0000008a l       *ABS*	00000000 RC_BUF
0000008b l       *ABS*	00000000 RC_P2P_NOREPLY
0000008c l       *ABS*	00000000 RC_P2P_REJECT
0000008d l       *ABS*	00000000 RC_P2P_BUSY
0000008e l       *ABS*	00000000 RC_P2P_TIMEOUT
0000008f l       *ABS*	00000000 RC_PKT_TX
00000000 l       *ABS*	00000000 TYPE_BYTE
00000001 l       *ABS*	00000000 TYPE_HALF
00000002 l       *ABS*	00000000 TYPE_WORD
00000005 l       *ABS*	00000000 PORT_SHIFT
000000e0 l       *ABS*	00000000 PORT_MASK
0000001f l       *ABS*	00000000 CPU_MASK
000000ff l       *ABS*	00000000 PORT_ETH
00000100 l       *ABS*	00000000 SDP_BUF_SIZE
00000080 l       *ABS*	00000000 VCPU_SIZE
0000002c l       *ABS*	00000000 VCPU_RT_CODE
0000002d l       *ABS*	00000000 VCPU_CPU_FLAGS
0000002e l       *ABS*	00000000 VCPU_CPU_STATE
0000002f l       *ABS*	00000000 VCPU_APP_ID
0000001c l       *ABS*	00000000 SARK_MSG_INT
0000001d l       *ABS*	00000000 SARK_SIG_INT
00000000 l       *ABS*	00000000 SARK_VIRT_CPU
00000008 l       *ABS*	00000000 SARK_RANDOM
00000030 l       *ABS*	00000000 SARK_CPU_CLK
00000020 l       *ABS*	00000000 SV_SSIZE
00000060 l       *ABS*	00000000 SV_USIZE
00000080 l       *ABS*	00000000 SV_ISIZE
00000020 l       *ABS*	00000000 SV_VSIZE
00000040 l       *ABS*	00000000 SV_RSIZE
00001000 l       *ABS*	00000000 SV_SIZE
e5007fe0 l       *ABS*	00000000 SV_SROM
e5007f80 l       *ABS*	00000000 SV_UBASE
e5007f00 l       *ABS*	00000000 SV_IBASE
e5007f00 l       *ABS*	00000000 SV_SV
00000100 l       *ABS*	00000000 SYS_BOOT
e5007000 l       *ABS*	00000000 SYS_USER_TOP
e5000100 l       *ABS*	00000000 SYS_USER_BASE
e5007ee0 l       *ABS*	00000000 SV_VECTORS
e5007ea0 l       *ABS*	00000000 SV_RANDOM
e5007000 l       *ABS*	00000000 SV_VCPU
e5007900 l       *ABS*	00000000 SV_SPARE
000005a0 l       *ABS*	00000000 SPARE_SIZE
e5007fe0 l       *ABS*	00000000 SROM_FLAG_BASE
e5007f80 l       *ABS*	00000000 STATUS_MAP_BASE
e5007ee0 l       *ABS*	00000000 RST_BLOCK_BASE
00008000 l       *ABS*	00000000 SRF_PRESENT
000000f0 l       *ABS*	00000000 SRF_HW_VER
00000008 l       *ABS*	00000000 SRF_PHY_INIT
00000004 l       *ABS*	00000000 SRF_PHY_RST
00000002 l       *ABS*	00000000 SRF_PHY_WAIT
00000001 l       *ABS*	00000000 SRF_ETH
00000000 l       *ABS*	00000000 SRF_NONE
00000020 l       RO_DATA	00000000 reset_vec
00000004 l       RO_DATA	00000000 undef
00000024 l       RO_DATA	00000000 undef_vec
00000028 l       RO_DATA	00000000 svc_vec
0000002c l       RO_DATA	00000000 pabt_vec
00000030 l       RO_DATA	00000000 dabt_vec
0000003c l       RO_DATA	00000000 fiq_vec
00000078 l       RO_DATA	00000000 reset_entry
000000d8 l       RO_DATA	00000000 undef_error
000000e0 l       RO_DATA	00000000 svc_error
000000e8 l       RO_DATA	00000000 pabt_error
000000f0 l       RO_DATA	00000000 dabt_error
00000034 l       RO_DATA	00000000 aplx_proc
00000038 l       RO_DATA	00000000 irq_vec
000000f8 l       RO_DATA	00000000 irq_error
00000100 l       RO_DATA	00000000 fiq_error
00000040 l       RO_DATA	00000000 svc_stack
00000042 l       RO_DATA	00000000 irq_stack
00000044 l       RO_DATA	00000000 fiq_stack
00000046 l       RO_DATA	00000000 stack_size
00000048 l       RO_DATA	00000000 code_top
0000004c l       RO_DATA	00000000 heap_base
00000050 l       RO_DATA	00000000 stack_top
00000054 l       RO_DATA	00000000 stack_fill
00000058 l       RO_DATA	00000000 num_msgs
00000059 l       RO_DATA	00000000 sark_slot
0000005a l       RO_DATA	00000000 num_events
0000005b l       RO_DATA	00000000 api
0000005c l       RO_DATA	00000000 app_id
0000005d l       RO_DATA	00000000 app_flags
0000005e l       RO_DATA	00000000 __PAD
00000060 l       RO_DATA	00000000 event_vec
000000d0 l       RO_DATA	00000000 reset_error
00000114 l       RO_DATA	00000000 exc_error
00000138 l       RO_DATA	00000000 cc_error
000001fc l       RO_DATA	00000000 lg1
00000238 l       RO_DATA	00000000 ws1
00000298 l       RO_DATA	00000000 wc2
00000280 l       RO_DATA	00000000 wc1
000002c4 l       RO_DATA	00000000 delay1
0000038c l       RO_DATA	00000000 aplx_buffer
00000390 l       RO_DATA	00000000 aplx_loader
0000037c l       RO_DATA	00000000 aplx_l0
000003a8 l       RO_DATA	00000000 aplx_copy
000003a4 l       RO_DATA	00000000 aplx_rcopy
000003b6 l       RO_DATA	00000000 aplx_fill
000003c6 l       RO_DATA	00000000 aplx_exec
000003bc l       RO_DATA	00000000 aplx_l1
00000000 l    df *ABS*	00000000 sark_base.c
00000000 l    df *ABS*	00000000 sark_event.c
00000000 l    df *ABS*	00000000 sark_timer.c
00000000 l    df *ABS*	00000000 sark_hw.c
00000000 l    df *ABS*	00000000 sark_isr.c
00000000 l    df *ABS*	00000000 sark_alloc.c
00000000 l    df *ABS*	00000000 sark_io.c
00002bfc l     F RO_DATA	00000040 io_buf_init
00002d30 l     F RO_DATA	000000c2 io_put_fixed
004051d4 l     O ZI_DATA	00000004 io_msg
0000403b l     O RO_DATA	00000011 hex
004051d8 l     O ZI_DATA	00000004 io_buf
004051dc l     O ZI_DATA	00000004 buf_ptr
004051e0 l     O ZI_DATA	00000004 sp_ptr
00000000 l    df *ABS*	00000000 sark_pkt.c
00000000 l    df *ABS*	00000000 
00000000 l    df *ABS*	00000000 bit_field.c
00000000 l    df *ABS*	00000000 spikes.c
00400010 l     O ZI_DATA	00000004 output
00400014 l     O ZI_DATA	00000004 input
00400018 l     O ZI_DATA	00000004 buffer_size
0040001c l     O ZI_DATA	00000004 buffer
00400020 l     O ZI_DATA	00000004 overflows
00400024 l     O ZI_DATA	00000004 underflows
00000000 l    df *ABS*	00000000 out_spikes.c
00400028 l     O ZI_DATA	00000004 out_spikes_size
00000000 l    df *ABS*	00000000 configuration.c
00000000 l    df *ABS*	00000000 recording.c
00400034 l     O ZI_DATA	00000030 g_recording_channels
00000000 l    df *ABS*	00000000 c_main.c
00000000 l    df *ABS*	00000000 synapses.c
00400064 l     O ZI_DATA	00004000 ring_buffer
00404064 l     O ZI_DATA	00000900 master_population
00404964 l     O ZI_DATA	00000020 row_size_table
00404984 l     O ZI_DATA	00000004 synaptic_row_base
00000000 l    df *ABS*	00000000 neuron.c
00000000 l    df *ABS*	00000000 lif_curr.c
00400000 l     O RW_DATA	00000004 refractory_time_update
00404988 l     O ZI_DATA	00000004 input_this_timestep
00000000 l    df *ABS*	00000000 stdp_trace.c
00000000 l    df *ABS*	00000000 stdp_trace_pair.c
00000000 l    df *ABS*	00000000 events.c
00000000 l    df *ABS*	00000000 maths.c
00000000 l    df *ABS*	00000000 spin1-api-harness.c
00003f9c l     O RO_DATA	00000008 dma_buffer
00404db8 l     O ZI_DATA	00000414 dma_buffer1
004049a4 l     O ZI_DATA	00000414 dma_buffer2
0040499c l     O ZI_DATA	00000004 dma_index
004049a0 l     O ZI_DATA	00000004 dma_busy
00000000 l    df *ABS*	00000000 spin1-api-configuration.c
00000000 l    df *ABS*	00000000 spin-neuron-configuration.c
00000000 l    df *ABS*	00000000 spin1_api.c
004051e4 l     O ZI_DATA	00000004 warnings
00400004 l     O RW_DATA	00000004 dma_id
004051e8 l     O ZI_DATA	00000004 fullq
004051ec l     O ZI_DATA	00000004 timer_tick
004051f0 l     O ZI_DATA	00000004 pfull
004051f4 l     O ZI_DATA	00000004 dfull
004051fc l     O ZI_DATA	00000004 exit_val
00405200 l     O ZI_DATA	00000320 task_queue
00405520 l     O ZI_DATA	00000004 run
00000000 l    df *ABS*	00000000 spin1_isr.c
00000000 l    df *ABS*	00000000 _udivsi3.o
00003b7c l       RO_DATA	00000000 .udivsi3_skip_div0_test
00000000 l    df *ABS*	00000000 _dvmd_tls.o
00000000 l    df *ABS*	00000000 memcpy-stub.c
00000000 l    df *ABS*	00000000 memset.c
00000000 l    df *ABS*	00000000 sark_build.c
00000000 l    df *ABS*	00000000 
00000040 l       *ABS*	00000000 RO_FROM
00000010 l       *ABS*	00000000 APLX_ENTRY
00004194 l       *ABS*	00000000 RW_FROM
00400000 l       *ABS*	00000000 DTCM_BASE
00400000 l       *ABS*	00000000 RW_BASE
00000010 l       *ABS*	00000000 RW_LENGTH
00000040 l       *ABS*	00000000 APLX_SIZE
00400010 l       *ABS*	00000000 ZI_BASE
00000000 l       *ABS*	00000000 RO_BASE
00000000 l       *ABS*	00000000 ITCM_BASE
00005cb0 l       *ABS*	00000000 ZI_LENGTH
00003e78 l     F RO_DATA	00000008 __io_printf_from_arm
00000ea8 g     F RO_DATA	00000018 master_population_table_filled
00405a34 g     O ZI_DATA	00000004 old_vector
00003468 g     F RO_DATA	000000f0 spin1_start
000001e8 g     F RO_DATA	00000000 sark_lock_get
000037b4 g     F RO_DATA	0000002c sark_pre_main
00000ed4 g     F RO_DATA	00000060 synaptic_current_data_filled
00002230 g     F RO_DATA	00000034 sark_shmsg_get
00000f3c g     F RO_DATA	00000004 print_row_size_table
00003700 g     F RO_DATA	0000000c spin1_get_core_id
0000044c g     F RO_DATA	00000064 add_spike
000001b8 g     F RO_DATA	00000000 spin1_int_enable
00000800 g       *ABS*	00000000 STACK_SIZE
00000362 g     F RO_DATA	00000000 sark_bx
00000f48 g     F RO_DATA	00000004 print_currents
00001148 g     F RO_DATA	00000014 neuron_discrete_changes
000032ac g     F RO_DATA	00000058 spin1_callback_on
00000520 g     F RO_DATA	00000060 get_next_spike_if_equals
00002bb8 g     F RO_DATA	00000044 rtr_free_id
00000258 g     F RO_DATA	00000000 sark_msg_cpy
00003780 g     F RO_DATA	00000034 spin1_trigger_user_event
00000878 g     F RO_DATA	00000038 equal_vector
00002774 g     F RO_DATA	0000003c event_alloc
0000076c g     F RO_DATA	00000038 system_data_filled
00003334 g     F RO_DATA	0000006c clean_up
000021c0 g     F RO_DATA	0000001e sark_block_init
00003a2c g     F RO_DATA	00000058 timer1_isr
00001ec8 g     F RO_DATA	00000094 feed_dma_pipeline
00002984 g     F RO_DATA	00000028 sark_fiq_han
00002210 g     F RO_DATA	00000020 sark_msg_free
00001384 g     F RO_DATA	00000108 plasticity_process_post_synaptic_event
00405550 g     O ZI_DATA	00000010 plasticity_region_data
00000410 g     F RO_DATA	0000003c initialize_spike_buffer
00001a24 g     F RO_DATA	00000050 plasticity_region_filled
00003ac4 g     F RO_DATA	00000068 soft_int_isr
00003610 g     F RO_DATA	000000f0 spin1_send_mc_packet
00001204 g     F RO_DATA	0000000c neuron_set_state
00002b1c g     F RO_DATA	0000009c rtr_free
00405524 g     O ZI_DATA	00000004 out_spikes
000030a8 g     F RO_DATA	00000028 configure_dma_controller
00000a50 g     F RO_DATA	000000d0 c_main
00002560 g     F RO_DATA	00000174 sark_int
00000a18 g     F RO_DATA	00000038 initialize_buffers
00003100 g     F RO_DATA	00000130 configure_vic
00000300 g     F RO_DATA	00000000 sark_int_han
000026d4 g     F RO_DATA	0000005c event_wait
000003e0 g     F RO_DATA	00000004 print_bit_field
0040498c g     O ZI_DATA	00000004 post_synaptic_event_history_start_index
00003c94 g     F RO_DATA	000000f0 memcpy
0000254c g     F RO_DATA	00000012 sark_wait
000001d8 g     F RO_DATA	00000000 spin1_mode_restore
00001b58 g     F RO_DATA	00000138 timer_callback
000006a8 g     F RO_DATA	00000060 nonempty_out_spikes
000001a8 g     F RO_DATA	00000000 spin1_irq_disable
0000253c g     F RO_DATA	00000010 sark_cmd_fill
00002944 g     F RO_DATA	00000040 rtr_mc_load
00000b20 g     F RO_DATA	00000038 initialize_current_buffer
00405534 g     O ZI_DATA	00000004 neuron_array
000027b0 g     F RO_DATA	00000050 sark_vic_init
00001034 g     F RO_DATA	0000001c constant_vector
000039b4 g     F RO_DATA	00000078 dma_done_fiqsr
00003b7c g     F RO_DATA	000000f4 .hidden __udivsi3
0000016c g     F RO_DATA	00000000 cpu_shutdown
00400008 g     O RW_DATA	00000004 pkt_prio
000001d8 g     F RO_DATA	00000000 cpu_int_restore
00405a38 g     O ZI_DATA	0000002c diagnostics
00001380 g     F RO_DATA	00000004 plasticity_process_teaching_synaptic_event
00410000 g       *ABS*	00000000 STACK_TOP
00001d74 g     F RO_DATA	00000104 dma_callback
00405cc0 g       ZI_DATA	00000000 HEAP_BASE
000029ac g     F RO_DATA	000000c8 sark_xalloc
00405a64 g     O ZI_DATA	00000004 old_enable
00000ec0 g     F RO_DATA	00000014 synaptic_data_filled
000030d0 g     F RO_DATA	00000030 configure_timer1
00405560 g     O ZI_DATA	00000200 stdp_trace_tau_minus_lookup
00000998 g     F RO_DATA	00000080 recording_finalise
00000364 g     F RO_DATA	00000000 __gnu_thumb1_case_uqi
00001b18 g     F RO_DATA	00000028 copy_int16_lut
000010fc g     F RO_DATA	0000004c lif_neuron_closed_form
00405a68 g     O ZI_DATA	00000004 user_arg1
00002264 g     F RO_DATA	00000024 sark_shmsg_free
00001f94 g     F RO_DATA	0000004c system_lead_app_configured
000007c0 g     F RO_DATA	0000001c check_deadbeef
00000334 g     F RO_DATA	00000000 schedule
00002014 g     F RO_DATA	00000008 system_data_extracted
0000389c g     F RO_DATA	0000008c cc_tx_empty_isr
0000201c g     F RO_DATA	0000016c system_load_dtcm
00000654 g     F RO_DATA	00000054 empty_out_spikes
0000012c g       RO_DATA	00000000 rt_error
00404998 g     O ZI_DATA	00000004 post_synaptic_event_history_traces
00002874 g     F RO_DATA	0000005c rtr_mc_clear
00000580 g     F RO_DATA	00000010 buffer_overflows
00003864 g     F RO_DATA	00000038 cc_rx_ready_fiqsr
00000f40 g     F RO_DATA	00000004 print_synaptic_rows
00001210 g     F RO_DATA	00000008 neuron_get_state
00000850 g     F RO_DATA	00000028 byte_vector_copied
0000219c g     F RO_DATA	00000010 sark_cpu_state
00001c90 g     F RO_DATA	00000094 set_up_and_request_synaptic_dma_read
004051f8 g     O ZI_DATA	00000001 user_pending
000007dc g     F RO_DATA	0000001c check_magic_number
000007a4 g     F RO_DATA	0000001c system_data_test_bit
00000e24 g     F RO_DATA	00000084 row_size_table_filled
00000e10 g     F RO_DATA	00000014 reset_ring_buffer
000037e0 g     F RO_DATA	0000000a sark_post_main
00405538 g     O ZI_DATA	00000004 num_neurons
000001a8 g     F RO_DATA	00000000 cpu_irq_disable
00000000 g       RO_DATA	00000000 cpu_reset
00001050 g     F RO_DATA	0000008c neural_data_filled
000002d0 g     F RO_DATA	00000000 sark_div10
00000f34 g     F RO_DATA	00000004 print_ring_buffers
00000108 g       RO_DATA	00000000 vic_error
000003cc g     F RO_DATA	00000010 get_bit_field_size
00000f4c g     F RO_DATA	000000e8 neuron
00000cdc g     F RO_DATA	00000080 synaptic_row
00000f38 g     F RO_DATA	00000004 print_master_population
00003558 g     F RO_DATA	00000008 spin1_delay_us
00002848 g     F RO_DATA	0000002c v2p_mask
00000618 g     F RO_DATA	0000003c record_out_spikes
00405528 g     O ZI_DATA	00000008 neuron_synapse_params
0000401c g     O RO_DATA	00000010 build_name
00000360  w    F RO_DATA	00000000 sark_config
00000f44 g     F RO_DATA	00000004 print_synaptic_row
00405530 g     O ZI_DATA	00000004 current
00000d5c g     F RO_DATA	000000b4 process_synaptic_row
00002730 g     F RO_DATA	0000002c event_pause
00004018 g     O RO_DATA	00000004 build_date
0000020c g     F RO_DATA	00000000 sark_lock_free
00002a74 g     F RO_DATA	00000018 sark_alloc
000008d4 g     F RO_DATA	00000068 recording_data_filled
0000115c g     F RO_DATA	000000a8 neuron_state_update
00003b2c g     F RO_DATA	00000050 soft_int_fiqsr
00003230 g     F RO_DATA	0000007c dispatch
00000190 g     F RO_DATA	00000000 cpu_init_mode
00000268 g     F RO_DATA	00000000 sark_word_cpy
00405760 g     O ZI_DATA	00000200 stdp_trace_tau_plus_lookup
0000017c g     F RO_DATA	00000000 cpu_sleep
00003c90  w    F RO_DATA	00000004 .hidden __aeabi_ldiv0
0040000c g     O RW_DATA	00000004 fiq_event
00405a6c g     O ZI_DATA	00000001 leadAp
00405960 g     O ZI_DATA	0000003c sark
00001368 g     F RO_DATA	00000014 neuron_get_info
00003328 g     F RO_DATA	0000000c spin1_set_timer_tick
00002384 g     F RO_DATA	000000a8 sark_msg_send
00001f5c g     F RO_DATA	00000038 system_load_sram
000001e0 g     F RO_DATA	00000000 spin1_wfi
0000242c g     F RO_DATA	00000040 sark_cmd_ver
004051d0 g     O ZI_DATA	00000004 simulation_rtr_entry
00000738 g     F RO_DATA	00000034 system_header_filled
0040553c g     O ZI_DATA	00000004 ring_buffer_to_input_left_shift
000001e0 g     F RO_DATA	00000000 cpu_wfi
00003d84 g     F RO_DATA	000000f4 memset
0000275c g     F RO_DATA	00000018 event_stop
000001c8 g     F RO_DATA	00000000 cpu_int_disable
00002800 g     F RO_DATA	00000048 sark_vic_set
00400030 g     O ZI_DATA	00000004 system_word
00405a70 g     O ZI_DATA	00000004 thrown
00002a8c g     F RO_DATA	00000018 sark_heap_init
00003b7c g     F RO_DATA	00000000 .hidden __aeabi_uidiv
00003304 g     F RO_DATA	00000024 spin1_exit
000008c4 g     F RO_DATA	00000010 configuration_reader_offset
0040599c g     O ZI_DATA	00000098 event
00405540 g     O ZI_DATA	00000004 time
000024d2 g     F RO_DATA	0000006a sark_cmd_write
000037ec g     F RO_DATA	00000078 cc_rx_ready_isr
0000370c g     F RO_DATA	0000000a spin1_malloc
00405544 g     O ZI_DATA	00000004 key
00001d24 g     F RO_DATA	00000050 set_up_and_request_synaptic_dma_write
00002288  w    F RO_DATA	000000fc sark_init
00002188  w    F RO_DATA	0000000c rte_handler
00000374 g     F RO_DATA	00000000 sark_aplx
000033a0 g     F RO_DATA	0000006c report_debug
00000734 g     F RO_DATA	00000004 print_out_spikes
00002df4 g     F RO_DATA	000002b4 io_printf
00405a74 g     O ZI_DATA	00000148 dma_queue
00000234 g     F RO_DATA	00000000 sark_word_set
00405bbc g     O ZI_DATA	00000004 old_select
0000340c g     F RO_DATA	0000005c report_warns
00000824 g     F RO_DATA	0000002c half_word_vector_copied
00404990 g     O ZI_DATA	00000004 post_synaptic_event_history_count
00003928 g     F RO_DATA	0000008c dma_done_isr
00405bc0 g     O ZI_DATA	00000004 ticks
00405548 g     O ZI_DATA	00000004 h
00000b58 g     F RO_DATA	00000184 ring_buffer_transfer
00000590 g     F RO_DATA	00000010 buffer_underflows
00000330 g     F RO_DATA	00000000 null_int_han
00003560 g     F RO_DATA	000000b0 spin1_dma_transfer
00001364 g     F RO_DATA	00000004 neuron_print
00003718 g     F RO_DATA	00000068 schedule_sysmode
00002aa4 g     F RO_DATA	00000078 rtr_alloc_id
000010dc g     F RO_DATA	00000020 provide_machine_timestep
00000708 g     F RO_DATA	0000002c out_spike_test
00001a74 g     F RO_DATA	000000a4 initialise_post_synaptic_event_buffers
00003a84 g     F RO_DATA	00000040 timer1_fiqsr
0000137c g     F RO_DATA	00000004 initialise_plasticity_buffers
000003dc g     F RO_DATA	00000004 print_bit_field_bits
00000220 g     F RO_DATA	00000000 sark_str_cpy
00003c70 g     F RO_DATA	00000020 .hidden __aeabi_uidivmod
000028d0 g     F RO_DATA	00000074 rtr_mc_set
000001b8 g     F RO_DATA	00000000 cpu_int_enable
00405bc4 g     O ZI_DATA	00000004 user_arg0
000003e8 g     F RO_DATA	00000028 n_spikes_in_buffer
000021ac g     F RO_DATA	00000014 sark_app_lead
000007f8 g     F RO_DATA	0000002c vector_copied
0040554c g     O ZI_DATA	00000004 num_params
0000093c g     F RO_DATA	0000005c recording_record
00001e78 g     F RO_DATA	00000050 incoming_spike_callback
00003c90  w    F RO_DATA	00000004 .hidden __aeabi_idiv0
000005cc g     F RO_DATA	0000004c initialize_out_spikes
00405bc8 g     O ZI_DATA	00000030 callback
00404994 g     O ZI_DATA	00000004 post_synaptic_event_history_times
00001b40 g     F RO_DATA	00000018 initialise_dma_buffers
00002c3c g     F RO_DATA	000000f4 io_put_char
0000148c g     F RO_DATA	00000598 process_plastic_synapses
000005a0 g     F RO_DATA	0000002c reset_out_spikes
000003e4 g     F RO_DATA	00000004 random_bit_field
0040002c g     O ZI_DATA	00000004 timer_period
00001218 g     F RO_DATA	0000014c create_lif_neuron
00001fe0 g     F RO_DATA	00000034 system_runs_to_completion
000008b0 g     F RO_DATA	00000014 region_start
000001c8 g     F RO_DATA	00000000 spin1_int_disable
000004b0 g     F RO_DATA	00000070 next_spike
0000246c g     F RO_DATA	00000066 sark_cmd_read
00004164 g       *ABS*	00000000 RO_LENGTH
00002194 g     F RO_DATA	00000006 sark_app_id
000021e0 g     F RO_DATA	00000030 sark_msg_get
004051cc g     O ZI_DATA	00000004 simulation_ticks
000002bc g     F RO_DATA	00000000 sark_delay_us
00405bf8 g     O ZI_DATA	000000c8 tx_packet_queue



Disassembly of section RO_DATA:

00000000 <cpu_reset>:
       0:	e59ff018 	ldr	pc, [pc, #24]	; 20 <reset_vec>

00000004 <undef>:
       4:	e59ff018 	ldr	pc, [pc, #24]	; 24 <undef_vec>
       8:	e59ff018 	ldr	pc, [pc, #24]	; 28 <svc_vec>
       c:	e59ff018 	ldr	pc, [pc, #24]	; 2c <pabt_vec>
      10:	e59ff018 	ldr	pc, [pc, #24]	; 30 <dabt_vec>
      14:	ebfffffa 	bl	4 <undef>
      18:	e51ffff0 	ldr	pc, [pc, #-4080]	; fffff030 <ROM_TOP+0x9ff7030>
      1c:	e59ff018 	ldr	pc, [pc, #24]	; 3c <fiq_vec>

00000020 <reset_vec>:
      20:	00000078 	.word	0x00000078

00000024 <undef_vec>:
      24:	000000d8 	.word	0x000000d8

00000028 <svc_vec>:
      28:	000000e0 	.word	0x000000e0

0000002c <pabt_vec>:
      2c:	000000e8 	.word	0x000000e8

00000030 <dabt_vec>:
      30:	000000f0 	.word	0x000000f0

00000034 <aplx_proc>:
      34:	00000375 	.word	0x00000375

00000038 <irq_vec>:
      38:	000000f8 	.word	0x000000f8

0000003c <fiq_vec>:
      3c:	00000100 	.word	0x00000100

00000040 <svc_stack>:
      40:	0060      	.short	0x0060

00000042 <irq_stack>:
      42:	0040      	.short	0x0040

00000044 <fiq_stack>:
      44:	0040      	.short	0x0040

00000046 <stack_size>:
      46:	0800      	.short	0x0800

00000048 <code_top>:
      48:	00004164 	.word	0x00004164

0000004c <heap_base>:
      4c:	00405cc0 	.word	0x00405cc0

00000050 <stack_top>:
      50:	00410000 	.word	0x00410000

00000054 <stack_fill>:
      54:	deaddead 	.word	0xdeaddead

00000058 <num_msgs>:
      58:	04          	.byte	0x04

00000059 <sark_slot>:
      59:	0f          	.byte	0x0f

0000005a <num_events>:
      5a:	10          	.byte	0x10

0000005b <api>:
	...

0000005c <app_id>:
	...

0000005d <app_flags>:
	...

0000005e <__PAD>:
	...

00000060 <event_vec>:
	...

00000078 <reset_entry>:
      78:	e24f1060 	sub	r1, pc, #96	; 0x60
      7c:	e1c103bc 	strh	r0, [r1, #60]	; 0x3c
      80:	e28f0048 	add	r0, pc, #72	; 0x48
      84:	e5810000 	str	r0, [r1]
      88:	e59f00f4 	ldr	r0, [pc, #244]	; 184 <DMA_CRCT+0x4>
      8c:	ee010f10 	mcr	15, 0, r0, cr1, cr0, {0}
      90:	e321f0d3 	msr	CPSR_c, #211	; 0xd3
      94:	e3a0d902 	mov	sp, #32768	; 0x8000
      98:	fa0000b0 	blx	360 <sark_config>
      9c:	e51fd054 	ldr	sp, [pc, #-84]	; 50 <stack_top>
      a0:	e15f26b2 	ldrh	r2, [pc, #-98]	; 46 <stack_size>
      a4:	e51f1058 	ldr	r1, [pc, #-88]	; 54 <stack_fill>
      a8:	e04d0002 	sub	r0, sp, r2
      ac:	eb000060 	bl	234 <sark_word_set>
      b0:	e1a0000d 	mov	r0, sp
      b4:	fa000873 	blx	2288 <sark_init>
      b8:	e121f000 	msr	CPSR_c, r0
      bc:	fa000922 	blx	254c <sark_wait>
      c0:	fa000dbb 	blx	37b4 <sark_pre_main>
      c4:	eb000261 	bl	a50 <c_main>
      c8:	fa000dc4 	blx	37e0 <sark_post_main>
      cc:	eb00002a 	bl	17c <cpu_sleep>

000000d0 <reset_error>:
      d0:	e3a00001 	mov	r0, #1
      d4:	ea000014 	b	12c <rt_error>

000000d8 <undef_error>:
      d8:	e3a0b002 	mov	fp, #2
      dc:	ea00000c 	b	114 <exc_error>

000000e0 <svc_error>:
      e0:	e3a0b003 	mov	fp, #3
      e4:	ea00000a 	b	114 <exc_error>

000000e8 <pabt_error>:
      e8:	e3a0b004 	mov	fp, #4
      ec:	ea000008 	b	114 <exc_error>

000000f0 <dabt_error>:
      f0:	e3a0b005 	mov	fp, #5
      f4:	ea000006 	b	114 <exc_error>

000000f8 <irq_error>:
      f8:	e3a0b006 	mov	fp, #6
      fc:	ea000004 	b	114 <exc_error>

00000100 <fiq_error>:
     100:	e3a0b007 	mov	fp, #7
     104:	ea000002 	b	114 <exc_error>

00000108 <vic_error>:
     108:	e3a0b008 	mov	fp, #8
     10c:	e3a0042f 	mov	r0, #788529152	; 0x2f000000
     110:	e5900030 	ldr	r0, [r0, #48]	; 0x30

00000114 <exc_error>:
     114:	e1a0a00e 	mov	sl, lr
     118:	e14f8000 	mrs	r8, SPSR
     11c:	e38890c0 	orr	r9, r8, #192	; 0xc0
     120:	e3c99020 	bic	r9, r9, #32
     124:	e12ff009 	msr	CPSR_fsxc, r9
     128:	ea000002 	b	138 <cc_error>

0000012c <rt_error>:
     12c:	e1a0b000 	mov	fp, r0
     130:	e10f8000 	mrs	r8, CPSR
     134:	e1a0a00e 	mov	sl, lr

00000138 <cc_error>:
     138:	e59fc048 	ldr	ip, [pc, #72]	; 188 <DMA_CRCT+0x8>
     13c:	e59cc000 	ldr	ip, [ip]
     140:	e3a09080 	mov	r9, #128	; 0x80
     144:	e59fe040 	ldr	lr, [pc, #64]	; 18c <DMA_CRCT+0xc>
     148:	e02ee99c 	mla	lr, ip, r9, lr
     14c:	e1a0900d 	mov	r9, sp
     150:	e88e07ff 	stm	lr, {r0, r1, r2, r3, r4, r5, r6, r7, r8, r9, sl}
     154:	e5ceb02c 	strb	fp, [lr, #44]	; 0x2c
     158:	e3a08002 	mov	r8, #2
     15c:	e5ce802e 	strb	r8, [lr, #46]	; 0x2e
     160:	e1a0000b 	mov	r0, fp
     164:	e321f0d3 	msr	CPSR_c, #211	; 0xd3
     168:	fa000806 	blx	2188 <rte_handler>

0000016c <cpu_shutdown>:
     16c:	e321f0d3 	msr	CPSR_c, #211	; 0xd3
     170:	e3a0042f 	mov	r0, #788529152	; 0x2f000000
     174:	e3e01000 	mvn	r1, #0
     178:	e5801014 	str	r1, [r0, #20]

0000017c <cpu_sleep>:
     17c:	ee070f90 	mcr	15, 0, r0, cr7, cr0, {4}
     180:	eafffffd 	b	17c <cpu_sleep>
     184:	00001f7e 	.word	0x00001f7e
     188:	00405960 	.word	0x00405960
     18c:	e5007000 	.word	0xe5007000

00000190 <cpu_init_mode>:
     190:	e10f3000 	mrs	r3, CPSR
     194:	e121f001 	msr	CPSR_c, r1
     198:	e1a0d000 	mov	sp, r0
     19c:	e12ff003 	msr	CPSR_fsxc, r3
     1a0:	e0400102 	sub	r0, r0, r2, lsl #2
     1a4:	e12fff1e 	bx	lr

000001a8 <cpu_irq_disable>:
     1a8:	e10f0000 	mrs	r0, CPSR
     1ac:	e3801080 	orr	r1, r0, #128	; 0x80
     1b0:	e121f001 	msr	CPSR_c, r1
     1b4:	e12fff1e 	bx	lr

000001b8 <cpu_int_enable>:
     1b8:	e10f0000 	mrs	r0, CPSR
     1bc:	e3c010c0 	bic	r1, r0, #192	; 0xc0
     1c0:	e121f001 	msr	CPSR_c, r1
     1c4:	e12fff1e 	bx	lr

000001c8 <cpu_int_disable>:
     1c8:	e10f0000 	mrs	r0, CPSR
     1cc:	e38010c0 	orr	r1, r0, #192	; 0xc0
     1d0:	e121f001 	msr	CPSR_c, r1
     1d4:	e12fff1e 	bx	lr

000001d8 <cpu_int_restore>:
     1d8:	e12ff000 	msr	CPSR_fsxc, r0
     1dc:	e12fff1e 	bx	lr

000001e0 <cpu_wfi>:
     1e0:	ee070f90 	mcr	15, 0, r0, cr7, cr0, {4}
     1e4:	e12fff1e 	bx	lr

000001e8 <sark_lock_get>:
     1e8:	e3a0c4e2 	mov	ip, #-503316480	; 0xe2000000
     1ec:	e08cc100 	add	ip, ip, r0, lsl #2
     1f0:	e10f0000 	mrs	r0, CPSR
     1f4:	e38010c0 	orr	r1, r0, #192	; 0xc0
     1f8:	e121f001 	msr	CPSR_c, r1

000001fc <lg1>:
     1fc:	e59c1100 	ldr	r1, [ip, #256]	; 0x100
     200:	e3110102 	tst	r1, #-2147483648	; 0x80000000
     204:	1afffffc 	bne	1fc <lg1>
     208:	e12fff1e 	bx	lr

0000020c <sark_lock_free>:
     20c:	e3a0c4e2 	mov	ip, #-503316480	; 0xe2000000
     210:	e08c1101 	add	r1, ip, r1, lsl #2
     214:	e5911180 	ldr	r1, [r1, #384]	; 0x180
     218:	e121f000 	msr	CPSR_c, r0
     21c:	e12fff1e 	bx	lr

00000220 <sark_str_cpy>:
     220:	e4d12001 	ldrb	r2, [r1], #1
     224:	e3520000 	cmp	r2, #0
     228:	e4c02001 	strb	r2, [r0], #1
     22c:	1afffffb 	bne	220 <sark_str_cpy>
     230:	e12fff1e 	bx	lr

00000234 <sark_word_set>:
     234:	e1a03001 	mov	r3, r1

00000238 <ws1>:
     238:	e2522010 	subs	r2, r2, #16
     23c:	28a0000a 	stmiacs	r0!, {r1, r3}
     240:	28a0000a 	stmiacs	r0!, {r1, r3}
     244:	2afffffb 	bcs	238 <ws1>
     248:	e1b02e82 	lsls	r2, r2, #29
     24c:	28a0000a 	stmiacs	r0!, {r1, r3}
     250:	48a00002 	stmiami	r0!, {r1}
     254:	e12fff1e 	bx	lr

00000258 <sark_msg_cpy>:
     258:	e2800004 	add	r0, r0, #4
     25c:	e2811004 	add	r1, r1, #4
     260:	e1d120b0 	ldrh	r2, [r1]
     264:	e2822004 	add	r2, r2, #4

00000268 <sark_word_cpy>:
     268:	e3120003 	tst	r2, #3
     26c:	13c22003 	bicne	r2, r2, #3
     270:	12822004 	addne	r2, r2, #4
     274:	e92d4010 	push	{r4, lr}
     278:	e2522020 	subs	r2, r2, #32
     27c:	3a000005 	bcc	298 <wc2>

00000280 <wc1>:
     280:	e8b15018 	ldm	r1!, {r3, r4, ip, lr}
     284:	e8a05018 	stmia	r0!, {r3, r4, ip, lr}
     288:	e8b15018 	ldm	r1!, {r3, r4, ip, lr}
     28c:	e8a05018 	stmia	r0!, {r3, r4, ip, lr}
     290:	e2522020 	subs	r2, r2, #32
     294:	2afffff9 	bcs	280 <wc1>

00000298 <wc2>:
     298:	e1b0ce02 	lsls	ip, r2, #28
     29c:	28b15018 	ldmcs	r1!, {r3, r4, ip, lr}
     2a0:	28a05018 	stmiacs	r0!, {r3, r4, ip, lr}
     2a4:	48b10018 	ldmmi	r1!, {r3, r4}
     2a8:	48a00018 	stmiami	r0!, {r3, r4}
     2ac:	e1b0cf02 	lsls	ip, r2, #30
     2b0:	24913004 	ldrcs	r3, [r1], #4
     2b4:	24803004 	strcs	r3, [r0], #4
     2b8:	e8bd8010 	pop	{r4, pc}

000002bc <sark_delay_us>:
     2bc:	4903      	ldr	r1, [pc, #12]	; (2cc <delay1+0x8>)
     2be:	8809      	ldrh	r1, [r1, #0]
     2c0:	4341      	muls	r1, r0
     2c2:	0888      	lsrs	r0, r1, #2

000002c4 <delay1>:
     2c4:	3801      	subs	r0, #1
     2c6:	d2fd      	bcs.n	2c4 <delay1>
     2c8:	4770      	bx	lr
     2ca:	0000      	.short	0x0000
     2cc:	00405990 	.word	0x00405990

000002d0 <sark_div10>:
     2d0:	e241200a 	sub	r2, r1, #10
     2d4:	e0411121 	sub	r1, r1, r1, lsr #2
     2d8:	e0811221 	add	r1, r1, r1, lsr #4
     2dc:	e0811421 	add	r1, r1, r1, lsr #8
     2e0:	e0811821 	add	r1, r1, r1, lsr #16
     2e4:	e1a011a1 	lsr	r1, r1, #3
     2e8:	e0813101 	add	r3, r1, r1, lsl #2
     2ec:	e0522083 	subs	r2, r2, r3, lsl #1
     2f0:	52811001 	addpl	r1, r1, #1
     2f4:	4282200a 	addmi	r2, r2, #10
     2f8:	e8800006 	stm	r0, {r1, r2}
     2fc:	e12fff1e 	bx	lr

00000300 <sark_int_han>:
     300:	e92d500f 	push	{r0, r1, r2, r3, ip, lr}
     304:	e24e0004 	sub	r0, lr, #4
     308:	e14fc000 	mrs	ip, SPSR
     30c:	e321f01f 	msr	CPSR_c, #31
     310:	e92d5000 	push	{ip, lr}
     314:	fa000891 	blx	2560 <sark_int>
     318:	e8bd5000 	pop	{ip, lr}
     31c:	e321f092 	msr	CPSR_c, #146	; 0x92
     320:	e16ff00c 	msr	SPSR_fsxc, ip
     324:	e3a0042f 	mov	r0, #788529152	; 0x2f000000
     328:	e5800030 	str	r0, [r0, #48]	; 0x30
     32c:	e8bd500f 	pop	{r0, r1, r2, r3, ip, lr}

00000330 <null_int_han>:
     330:	e25ef004 	subs	pc, lr, #4

00000334 <schedule>:
     334:	e92d5000 	push	{ip, lr}
     338:	e10fc000 	mrs	ip, CPSR
     33c:	e3cce01f 	bic	lr, ip, #31
     340:	e38ee01f 	orr	lr, lr, #31
     344:	e121f00e 	msr	CPSR_c, lr
     348:	e92d5000 	push	{ip, lr}
     34c:	fa000cf1 	blx	3718 <schedule_sysmode>
     350:	e8bd5000 	pop	{ip, lr}
     354:	e121f00c 	msr	CPSR_c, ip
     358:	e8bd5000 	pop	{ip, lr}
     35c:	e12fff1e 	bx	lr

00000360 <sark_config>:
     360:	4770      	bx	lr

00000362 <sark_bx>:
     362:	4700      	bx	r0

00000364 <__gnu_thumb1_case_uqi>:
     364:	468c      	mov	ip, r1
     366:	4671      	mov	r1, lr
     368:	3901      	subs	r1, #1
     36a:	5c09      	ldrb	r1, [r1, r0]
     36c:	0049      	lsls	r1, r1, #1
     36e:	448e      	add	lr, r1
     370:	4661      	mov	r1, ip
     372:	4770      	bx	lr

00000374 <sark_aplx>:
     374:	b5f2      	push	{r1, r4, r5, r6, r7, lr}
     376:	4905      	ldr	r1, [pc, #20]	; (38c <aplx_buffer>)
     378:	a605      	add	r6, pc, #20	; (adr r6, 390 <aplx_loader>)
     37a:	2740      	movs	r7, #64	; 0x40

0000037c <aplx_l0>:
     37c:	ce3c      	ldmia	r6!, {r2, r3, r4, r5}
     37e:	c13c      	stmia	r1!, {r2, r3, r4, r5}
     380:	3f10      	subs	r7, #16
     382:	d1fb      	bne.n	37c <aplx_l0>
     384:	1c04      	adds	r4, r0, #0
     386:	393f      	subs	r1, #63	; 0x3f
     388:	4708      	bx	r1
	...

0000038c <aplx_buffer>:
     38c:	00007fc0 	.word	0x00007fc0

00000390 <aplx_loader>:
     390:	cc0f      	ldmia	r4!, {r0, r1, r2, r3}
     392:	2801      	cmp	r0, #1
     394:	d008      	beq.n	3a8 <aplx_copy>
     396:	2802      	cmp	r0, #2
     398:	d004      	beq.n	3a4 <aplx_rcopy>
     39a:	2803      	cmp	r0, #3
     39c:	d00b      	beq.n	3b6 <aplx_fill>
     39e:	2804      	cmp	r0, #4
     3a0:	d011      	beq.n	3c6 <aplx_exec>
     3a2:	bdf2      	pop	{r1, r4, r5, r6, r7, pc}

000003a4 <aplx_rcopy>:
     3a4:	1912      	adds	r2, r2, r4
     3a6:	3a10      	subs	r2, #16

000003a8 <aplx_copy>:
     3a8:	cae1      	ldmia	r2!, {r0, r5, r6, r7}
     3aa:	c1e1      	stmia	r1!, {r0, r5, r6, r7}
     3ac:	cae1      	ldmia	r2!, {r0, r5, r6, r7}
     3ae:	c1e1      	stmia	r1!, {r0, r5, r6, r7}
     3b0:	3b20      	subs	r3, #32
     3b2:	d8f9      	bhi.n	3a8 <aplx_copy>
     3b4:	e7ec      	b.n	390 <aplx_loader>

000003b6 <aplx_fill>:
     3b6:	1c1d      	adds	r5, r3, #0
     3b8:	1c1e      	adds	r6, r3, #0
     3ba:	1c1f      	adds	r7, r3, #0

000003bc <aplx_l1>:
     3bc:	c1e8      	stmia	r1!, {r3, r5, r6, r7}
     3be:	c1e8      	stmia	r1!, {r3, r5, r6, r7}
     3c0:	3a20      	subs	r2, #32
     3c2:	d8fb      	bhi.n	3bc <aplx_l1>
     3c4:	e7e4      	b.n	390 <aplx_loader>

000003c6 <aplx_exec>:
     3c6:	9800      	ldr	r0, [sp, #0]
     3c8:	4788      	blx	r1
     3ca:	e7e1      	b.n	390 <aplx_loader>

000003cc <get_bit_field_size>:
     3cc:	e310001f 	tst	r0, #31
     3d0:	e1a002a0 	lsr	r0, r0, #5
     3d4:	12800001 	addne	r0, r0, #1
     3d8:	e12fff1e 	bx	lr

000003dc <print_bit_field_bits>:
     3dc:	e12fff1e 	bx	lr

000003e0 <print_bit_field>:
     3e0:	e12fff1e 	bx	lr

000003e4 <random_bit_field>:
     3e4:	e12fff1e 	bx	lr

000003e8 <n_spikes_in_buffer>:
     3e8:	e92d4008 	push	{r3, lr}
     3ec:	e59f3018 	ldr	r3, [pc, #24]	; 40c <MC_TABLE_SIZE+0xc>
     3f0:	e8930005 	ldm	r3, {r0, r2}
     3f4:	e5931008 	ldr	r1, [r3, #8]
     3f8:	e2400001 	sub	r0, r0, #1
     3fc:	e0620000 	rsb	r0, r2, r0
     400:	eb000e1a 	bl	3c70 <__aeabi_uidivmod>
     404:	e1a00001 	mov	r0, r1
     408:	e8bd8008 	pop	{r3, pc}
     40c:	00400010 	.word	0x00400010

00000410 <initialize_spike_buffer>:
     410:	e1a01100 	lsl	r1, r0, #2
     414:	e92d4010 	push	{r4, lr}
     418:	e1a04000 	mov	r4, r0
     41c:	e3a00001 	mov	r0, #1
     420:	fa000993 	blx	2a74 <sark_alloc>
     424:	e59f301c 	ldr	r3, [pc, #28]	; 448 <initialize_spike_buffer+0x38>
     428:	e3a02000 	mov	r2, #0
     42c:	e2441001 	sub	r1, r4, #1
     430:	e9830012 	stmib	r3, {r1, r4}
     434:	e5832000 	str	r2, [r3]
     438:	e5832010 	str	r2, [r3, #16]
     43c:	e5832014 	str	r2, [r3, #20]
     440:	e583000c 	str	r0, [r3, #12]
     444:	e8bd8010 	pop	{r4, pc}
     448:	00400010 	.word	0x00400010

0000044c <add_spike>:
     44c:	e92d41f0 	push	{r4, r5, r6, r7, r8, lr}
     450:	e59f4054 	ldr	r4, [pc, #84]	; 4ac <add_spike+0x60>
     454:	e1a08000 	mov	r8, r0
     458:	e89400c1 	ldm	r4, {r0, r6, r7}
     45c:	e0600006 	rsb	r0, r0, r6
     460:	e1a01007 	mov	r1, r7
     464:	eb000e01 	bl	3c70 <__aeabi_uidivmod>
     468:	e2915000 	adds	r5, r1, #0
     46c:	13a05001 	movne	r5, #1
     470:	e3550000 	cmp	r5, #0
     474:	1a000004 	bne	48c <add_spike+0x40>
     478:	e5943010 	ldr	r3, [r4, #16]
     47c:	e1a00005 	mov	r0, r5
     480:	e2833001 	add	r3, r3, #1
     484:	e5843010 	str	r3, [r4, #16]
     488:	e8bd81f0 	pop	{r4, r5, r6, r7, r8, pc}
     48c:	e594300c 	ldr	r3, [r4, #12]
     490:	e1a01007 	mov	r1, r7
     494:	e7838106 	str	r8, [r3, r6, lsl #2]
     498:	e2460001 	sub	r0, r6, #1
     49c:	eb000df3 	bl	3c70 <__aeabi_uidivmod>
     4a0:	e1a00005 	mov	r0, r5
     4a4:	e5841004 	str	r1, [r4, #4]
     4a8:	e8bd81f0 	pop	{r4, r5, r6, r7, r8, pc}
     4ac:	00400010 	.word	0x00400010

000004b0 <next_spike>:
     4b0:	e92d41f0 	push	{r4, r5, r6, r7, r8, lr}
     4b4:	e59f4060 	ldr	r4, [pc, #96]	; 51c <next_spike+0x6c>
     4b8:	e1a08000 	mov	r8, r0
     4bc:	e5947000 	ldr	r7, [r4]
     4c0:	e9940041 	ldmib	r4, {r0, r6}
     4c4:	e2477001 	sub	r7, r7, #1
     4c8:	e0600007 	rsb	r0, r0, r7
     4cc:	e1a01006 	mov	r1, r6
     4d0:	eb000de6 	bl	3c70 <__aeabi_uidivmod>
     4d4:	e2915000 	adds	r5, r1, #0
     4d8:	13a05001 	movne	r5, #1
     4dc:	e3550000 	cmp	r5, #0
     4e0:	1a000004 	bne	4f8 <next_spike+0x48>
     4e4:	e5943014 	ldr	r3, [r4, #20]
     4e8:	e1a00005 	mov	r0, r5
     4ec:	e2833001 	add	r3, r3, #1
     4f0:	e5843014 	str	r3, [r4, #20]
     4f4:	e8bd81f0 	pop	{r4, r5, r6, r7, r8, pc}
     4f8:	e1a00007 	mov	r0, r7
     4fc:	e1a01006 	mov	r1, r6
     500:	eb000dda 	bl	3c70 <__aeabi_uidivmod>
     504:	e594300c 	ldr	r3, [r4, #12]
     508:	e1a00005 	mov	r0, r5
     50c:	e7933101 	ldr	r3, [r3, r1, lsl #2]
     510:	e5841000 	str	r1, [r4]
     514:	e5883000 	str	r3, [r8]
     518:	e8bd81f0 	pop	{r4, r5, r6, r7, r8, pc}
     51c:	00400010 	.word	0x00400010

00000520 <get_next_spike_if_equals>:
     520:	e92d40f8 	push	{r3, r4, r5, r6, r7, lr}
     524:	e59f4050 	ldr	r4, [pc, #80]	; 57c <get_next_spike_if_equals+0x5c>
     528:	e1a07000 	mov	r7, r0
     52c:	e5946000 	ldr	r6, [r4]
     530:	e9940021 	ldmib	r4, {r0, r5}
     534:	e2466001 	sub	r6, r6, #1
     538:	e0600006 	rsb	r0, r0, r6
     53c:	e1a01005 	mov	r1, r5
     540:	eb000dca 	bl	3c70 <__aeabi_uidivmod>
     544:	e3510000 	cmp	r1, #0
     548:	0a000006 	beq	568 <get_next_spike_if_equals+0x48>
     54c:	e1a00006 	mov	r0, r6
     550:	e1a01005 	mov	r1, r5
     554:	eb000dc5 	bl	3c70 <__aeabi_uidivmod>
     558:	e594300c 	ldr	r3, [r4, #12]
     55c:	e7933101 	ldr	r3, [r3, r1, lsl #2]
     560:	e1530007 	cmp	r3, r7
     564:	0a000001 	beq	570 <get_next_spike_if_equals+0x50>
     568:	e3a00000 	mov	r0, #0
     56c:	e8bd80f8 	pop	{r3, r4, r5, r6, r7, pc}
     570:	e5841000 	str	r1, [r4]
     574:	e3a00001 	mov	r0, #1
     578:	e8bd80f8 	pop	{r3, r4, r5, r6, r7, pc}
     57c:	00400010 	.word	0x00400010

00000580 <buffer_overflows>:
     580:	e59f3004 	ldr	r3, [pc, #4]	; 58c <buffer_overflows+0xc>
     584:	e5930010 	ldr	r0, [r3, #16]
     588:	e12fff1e 	bx	lr
     58c:	00400010 	.word	0x00400010

00000590 <buffer_underflows>:
     590:	e59f3004 	ldr	r3, [pc, #4]	; 59c <buffer_underflows+0xc>
     594:	e5930014 	ldr	r0, [r3, #20]
     598:	e12fff1e 	bx	lr
     59c:	00400010 	.word	0x00400010

000005a0 <reset_out_spikes>:
     5a0:	e59f201c 	ldr	r2, [pc, #28]	; 5c4 <SPARE_SIZE+0x24>
     5a4:	e59f301c 	ldr	r3, [pc, #28]	; 5c8 <SPARE_SIZE+0x28>
     5a8:	e5922000 	ldr	r2, [r2]
     5ac:	e5930000 	ldr	r0, [r3]
     5b0:	e3520000 	cmp	r2, #0
     5b4:	012fff1e 	bxeq	lr
     5b8:	e1a02102 	lsl	r2, r2, #2
     5bc:	e3a01000 	mov	r1, #0
     5c0:	ea000def 	b	3d84 <memset>
     5c4:	00400028 	.word	0x00400028
     5c8:	00405524 	.word	0x00405524

000005cc <initialize_out_spikes>:
     5cc:	e92d4010 	push	{r4, lr}
     5d0:	ebffff7d 	bl	3cc <get_bit_field_size>
     5d4:	e59f4034 	ldr	r4, [pc, #52]	; 610 <ETH_TX_SIZE+0x10>
     5d8:	e3a01001 	mov	r1, #1
     5dc:	e1a03000 	mov	r3, r0
     5e0:	e1a00100 	lsl	r0, r0, #2
     5e4:	e5843000 	str	r3, [r4]
     5e8:	fa000921 	blx	2a74 <sark_alloc>
     5ec:	e5942000 	ldr	r2, [r4]
     5f0:	e59f301c 	ldr	r3, [pc, #28]	; 614 <ETH_TX_SIZE+0x14>
     5f4:	e3520000 	cmp	r2, #0
     5f8:	e5830000 	str	r0, [r3]
     5fc:	08bd8010 	popeq	{r4, pc}
     600:	e1a02102 	lsl	r2, r2, #2
     604:	e3a01000 	mov	r1, #0
     608:	e8bd4010 	pop	{r4, lr}
     60c:	ea000ddc 	b	3d84 <memset>
     610:	00400028 	.word	0x00400028
     614:	00405524 	.word	0x00405524

00000618 <record_out_spikes>:
     618:	e92d4008 	push	{r3, lr}
     61c:	e3a00001 	mov	r0, #1
     620:	eb00005f 	bl	7a4 <system_data_test_bit>
     624:	e3500000 	cmp	r0, #0
     628:	08bd8008 	popeq	{r3, pc}
     62c:	e59f2018 	ldr	r2, [pc, #24]	; 64c <record_out_spikes+0x34>
     630:	e59f3018 	ldr	r3, [pc, #24]	; 650 <record_out_spikes+0x38>
     634:	e5922000 	ldr	r2, [r2]
     638:	e5931000 	ldr	r1, [r3]
     63c:	e1a02102 	lsl	r2, r2, #2
     640:	e3a00000 	mov	r0, #0
     644:	e8bd4008 	pop	{r3, lr}
     648:	ea0000bb 	b	93c <recording_record>
     64c:	00400028 	.word	0x00400028
     650:	00405524 	.word	0x00405524

00000654 <empty_out_spikes>:
     654:	e59f3044 	ldr	r3, [pc, #68]	; 6a0 <empty_out_spikes+0x4c>
     658:	e59f2044 	ldr	r2, [pc, #68]	; 6a4 <empty_out_spikes+0x50>
     65c:	e5933000 	ldr	r3, [r3]
     660:	e5922000 	ldr	r2, [r2]
     664:	e3530000 	cmp	r3, #0
     668:	0a00000a 	beq	698 <empty_out_spikes+0x44>
     66c:	e0822103 	add	r2, r2, r3, lsl #2
     670:	e3a00001 	mov	r0, #1
     674:	e3500000 	cmp	r0, #0
     678:	0a000002 	beq	688 <empty_out_spikes+0x34>
     67c:	e5120004 	ldr	r0, [r2, #-4]
     680:	e2700001 	rsbs	r0, r0, #1
     684:	33a00000 	movcc	r0, #0
     688:	e2533001 	subs	r3, r3, #1
     68c:	e2422004 	sub	r2, r2, #4
     690:	1afffff7 	bne	674 <empty_out_spikes+0x20>
     694:	e12fff1e 	bx	lr
     698:	e3a00001 	mov	r0, #1
     69c:	e12fff1e 	bx	lr
     6a0:	00400028 	.word	0x00400028
     6a4:	00405524 	.word	0x00405524

000006a8 <nonempty_out_spikes>:
     6a8:	e59f3050 	ldr	r3, [pc, #80]	; 700 <nonempty_out_spikes+0x58>
     6ac:	e59f2050 	ldr	r2, [pc, #80]	; 704 <nonempty_out_spikes+0x5c>
     6b0:	e5933000 	ldr	r3, [r3]
     6b4:	e5922000 	ldr	r2, [r2]
     6b8:	e3530000 	cmp	r3, #0
     6bc:	0a00000d 	beq	6f8 <nonempty_out_spikes+0x50>
     6c0:	e0822103 	add	r2, r2, r3, lsl #2
     6c4:	e3a01001 	mov	r1, #1
     6c8:	e3510000 	cmp	r1, #0
     6cc:	e3a00001 	mov	r0, #1
     6d0:	0a000004 	beq	6e8 <nonempty_out_spikes+0x40>
     6d4:	e5120004 	ldr	r0, [r2, #-4]
     6d8:	e3500000 	cmp	r0, #0
     6dc:	13a01000 	movne	r1, #0
     6e0:	03a00000 	moveq	r0, #0
     6e4:	13a00001 	movne	r0, #1
     6e8:	e2533001 	subs	r3, r3, #1
     6ec:	e2422004 	sub	r2, r2, #4
     6f0:	1afffff4 	bne	6c8 <nonempty_out_spikes+0x20>
     6f4:	e12fff1e 	bx	lr
     6f8:	e1a00003 	mov	r0, r3
     6fc:	e12fff1e 	bx	lr
     700:	00400028 	.word	0x00400028
     704:	00405524 	.word	0x00405524

00000708 <out_spike_test>:
     708:	e59f3020 	ldr	r3, [pc, #32]	; 730 <out_spike_test+0x28>
     70c:	e1a022a0 	lsr	r2, r0, #5
     710:	e5933000 	ldr	r3, [r3]
     714:	e200001f 	and	r0, r0, #31
     718:	e7933102 	ldr	r3, [r3, r2, lsl #2]
     71c:	e3a02001 	mov	r2, #1
     720:	e0133012 	ands	r3, r3, r2, lsl r0
     724:	03a00000 	moveq	r0, #0
     728:	13a00001 	movne	r0, #1
     72c:	e12fff1e 	bx	lr
     730:	00405524 	.word	0x00405524

00000734 <print_out_spikes>:
     734:	e12fff1e 	bx	lr

00000738 <system_header_filled>:
     738:	e5902000 	ldr	r2, [r0]
     73c:	e59f3020 	ldr	r3, [pc, #32]	; 764 <system_header_filled+0x2c>
     740:	e1520003 	cmp	r2, r3
     744:	05902004 	ldreq	r2, [r0, #4]
     748:	059f3018 	ldreq	r3, [pc, #24]	; 768 <system_header_filled+0x30>
     74c:	05812000 	streq	r2, [r1]
     750:	05902008 	ldreq	r2, [r0, #8]
     754:	05832000 	streq	r2, [r3]
     758:	03a00001 	moveq	r0, #1
     75c:	13a00000 	movne	r0, #0
     760:	e12fff1e 	bx	lr
     764:	ad130ad6 	.word	0xad130ad6
     768:	0040002c 	.word	0x0040002c

0000076c <system_data_filled>:
     76c:	e52d4004 	push	{r4}		; (str r4, [sp, #-4]!)
     770:	e59f1028 	ldr	r1, [pc, #40]	; 7a0 <system_data_filled+0x34>
     774:	e8901010 	ldm	r0, {r4, ip}
     778:	e5814004 	str	r4, [r1, #4]
     77c:	e582c000 	str	ip, [r2]
     780:	e59d1004 	ldr	r1, [sp, #4]
     784:	e5902008 	ldr	r2, [r0, #8]
     788:	e5832000 	str	r2, [r3]
     78c:	e590300c 	ldr	r3, [r0, #12]
     790:	e5813000 	str	r3, [r1]
     794:	e3a00001 	mov	r0, #1
     798:	e49d4004 	pop	{r4}		; (ldr r4, [sp], #4)
     79c:	e12fff1e 	bx	lr
     7a0:	0040002c 	.word	0x0040002c

000007a4 <system_data_test_bit>:
     7a4:	e59f3010 	ldr	r3, [pc, #16]	; 7bc <system_data_test_bit+0x18>
     7a8:	e5933004 	ldr	r3, [r3, #4]
     7ac:	e1100003 	tst	r0, r3
     7b0:	03a00000 	moveq	r0, #0
     7b4:	13a00001 	movne	r0, #1
     7b8:	e12fff1e 	bx	lr
     7bc:	0040002c 	.word	0x0040002c

000007c0 <check_deadbeef>:
     7c0:	e5900000 	ldr	r0, [r0]
     7c4:	e59f300c 	ldr	r3, [pc, #12]	; 7d8 <check_deadbeef+0x18>
     7c8:	e0503003 	subs	r3, r0, r3
     7cc:	e2730000 	rsbs	r0, r3, #0
     7d0:	e0b00003 	adcs	r0, r0, r3
     7d4:	e12fff1e 	bx	lr
     7d8:	deadbeef 	.word	0xdeadbeef

000007dc <check_magic_number>:
     7dc:	e5900000 	ldr	r0, [r0]
     7e0:	e59f300c 	ldr	r3, [pc, #12]	; 7f4 <check_magic_number+0x18>
     7e4:	e0502003 	subs	r2, r0, r3
     7e8:	e2720000 	rsbs	r0, r2, #0
     7ec:	e0b00002 	adcs	r0, r0, r2
     7f0:	e12fff1e 	bx	lr
     7f4:	ad130ad6 	.word	0xad130ad6

000007f8 <vector_copied>:
     7f8:	e3510000 	cmp	r1, #0
     7fc:	0a000006 	beq	81c <STACK_SIZE+0x1c>
     800:	e1a0c101 	lsl	ip, r1, #2
     804:	e3a03000 	mov	r3, #0
     808:	e7921003 	ldr	r1, [r2, r3]
     80c:	e7801003 	str	r1, [r0, r3]
     810:	e2833004 	add	r3, r3, #4
     814:	e153000c 	cmp	r3, ip
     818:	1afffffa 	bne	808 <STACK_SIZE+0x8>
     81c:	e3a00001 	mov	r0, #1
     820:	e12fff1e 	bx	lr

00000824 <half_word_vector_copied>:
     824:	e1b010a1 	lsrs	r1, r1, #1
     828:	0a000006 	beq	848 <half_word_vector_copied+0x24>
     82c:	e1a0c101 	lsl	ip, r1, #2
     830:	e3a03000 	mov	r3, #0
     834:	e7921003 	ldr	r1, [r2, r3]
     838:	e7801003 	str	r1, [r0, r3]
     83c:	e2833004 	add	r3, r3, #4
     840:	e153000c 	cmp	r3, ip
     844:	1afffffa 	bne	834 <half_word_vector_copied+0x10>
     848:	e3a00001 	mov	r0, #1
     84c:	e12fff1e 	bx	lr

00000850 <byte_vector_copied>:
     850:	e3510000 	cmp	r1, #0
     854:	0a000005 	beq	870 <byte_vector_copied+0x20>
     858:	e0801001 	add	r1, r0, r1
     85c:	e2422004 	sub	r2, r2, #4
     860:	e5b23004 	ldr	r3, [r2, #4]!
     864:	e4c03001 	strb	r3, [r0], #1
     868:	e1500001 	cmp	r0, r1
     86c:	1afffffb 	bne	860 <byte_vector_copied+0x10>
     870:	e3a00001 	mov	r0, #1
     874:	e12fff1e 	bx	lr

00000878 <equal_vector>:
     878:	e3500001 	cmp	r0, #1
     87c:	e5912000 	ldr	r2, [r1]
     880:	9a000008 	bls	8a8 <equal_vector+0x30>
     884:	e241c004 	sub	ip, r1, #4
     888:	e08cc100 	add	ip, ip, r0, lsl #2
     88c:	e3a00001 	mov	r0, #1
     890:	e5b13004 	ldr	r3, [r1, #4]!
     894:	e1520003 	cmp	r2, r3
     898:	13a00000 	movne	r0, #0
     89c:	e151000c 	cmp	r1, ip
     8a0:	1afffffa 	bne	890 <equal_vector+0x18>
     8a4:	e12fff1e 	bx	lr
     8a8:	e3a00001 	mov	r0, #1
     8ac:	e12fff1e 	bx	lr

000008b0 <region_start>:
     8b0:	e2800004 	add	r0, r0, #4
     8b4:	e7910100 	ldr	r0, [r1, r0, lsl #2]
     8b8:	e3c00003 	bic	r0, r0, #3
     8bc:	e0810000 	add	r0, r1, r0
     8c0:	e12fff1e 	bx	lr

000008c4 <configuration_reader_offset>:
     8c4:	e7903101 	ldr	r3, [r0, r1, lsl #2]
     8c8:	e3c33003 	bic	r3, r3, #3
     8cc:	e0800003 	add	r0, r0, r3
     8d0:	e12fff1e 	bx	lr

000008d4 <recording_data_filled>:
     8d4:	e59fc05c 	ldr	ip, [pc, #92]	; 938 <recording_data_filled+0x64>
     8d8:	e92d0030 	push	{r4, r5}
     8dc:	e1a04202 	lsl	r4, r2, #4
     8e0:	e08c1004 	add	r1, ip, r4
     8e4:	e5915004 	ldr	r5, [r1, #4]
     8e8:	e3550000 	cmp	r5, #0
     8ec:	0a000005 	beq	908 <recording_data_filled+0x34>
     8f0:	e591100c 	ldr	r1, [r1, #12]
     8f4:	e3510000 	cmp	r1, #0
     8f8:	13a00000 	movne	r0, #0
     8fc:	0a000001 	beq	908 <recording_data_filled+0x34>
     900:	e8bd0030 	pop	{r4, r5}
     904:	e12fff1e 	bx	lr
     908:	e1a01000 	mov	r1, r0
     90c:	e3a05000 	mov	r5, #0
     910:	e78c0202 	str	r0, [ip, r2, lsl #4]
     914:	e4815004 	str	r5, [r1], #4
     918:	e08cc004 	add	ip, ip, r4
     91c:	e0813003 	add	r3, r1, r3
     920:	e3a00001 	mov	r0, #1
     924:	e58c300c 	str	r3, [ip, #12]
     928:	e58c1008 	str	r1, [ip, #8]
     92c:	e58c1004 	str	r1, [ip, #4]
     930:	e8bd0030 	pop	{r4, r5}
     934:	e12fff1e 	bx	lr
     938:	00400034 	.word	0x00400034

0000093c <recording_record>:
     93c:	e92d4038 	push	{r3, r4, r5, lr}
     940:	e59f404c 	ldr	r4, [pc, #76]	; 994 <recording_record+0x58>
     944:	e1a05002 	mov	r5, r2
     948:	e0844200 	add	r4, r4, r0, lsl #4
     94c:	e5940004 	ldr	r0, [r4, #4]
     950:	e3500000 	cmp	r0, #0
     954:	08bd8038 	popeq	{r3, r4, r5, pc}
     958:	e594300c 	ldr	r3, [r4, #12]
     95c:	e3530000 	cmp	r3, #0
     960:	0a000003 	beq	974 <recording_record+0x38>
     964:	e5940008 	ldr	r0, [r4, #8]
     968:	e0623003 	rsb	r3, r2, r3
     96c:	e1500003 	cmp	r0, r3
     970:	3a000001 	bcc	97c <recording_record+0x40>
     974:	e3a00000 	mov	r0, #0
     978:	e8bd8038 	pop	{r3, r4, r5, pc}
     97c:	eb000cc4 	bl	3c94 <memcpy>
     980:	e5943008 	ldr	r3, [r4, #8]
     984:	e3a00001 	mov	r0, #1
     988:	e0835005 	add	r5, r3, r5
     98c:	e5845008 	str	r5, [r4, #8]
     990:	e8bd8038 	pop	{r3, r4, r5, pc}
     994:	00400034 	.word	0x00400034

00000998 <recording_finalise>:
     998:	e59f3074 	ldr	r3, [pc, #116]	; a14 <recording_finalise+0x7c>
     99c:	e5932004 	ldr	r2, [r3, #4]
     9a0:	e3520000 	cmp	r2, #0
     9a4:	0a000005 	beq	9c0 <recording_finalise+0x28>
     9a8:	e593100c 	ldr	r1, [r3, #12]
     9ac:	e3510000 	cmp	r1, #0
     9b0:	15930008 	ldrne	r0, [r3, #8]
     9b4:	15931000 	ldrne	r1, [r3]
     9b8:	10622000 	rsbne	r2, r2, r0
     9bc:	15812000 	strne	r2, [r1]
     9c0:	e5931014 	ldr	r1, [r3, #20]
     9c4:	e59f2048 	ldr	r2, [pc, #72]	; a14 <recording_finalise+0x7c>
     9c8:	e3510000 	cmp	r1, #0
     9cc:	0a000005 	beq	9e8 <recording_finalise+0x50>
     9d0:	e592001c 	ldr	r0, [r2, #28]
     9d4:	e3500000 	cmp	r0, #0
     9d8:	15920018 	ldrne	r0, [r2, #24]
     9dc:	15922010 	ldrne	r2, [r2, #16]
     9e0:	10611000 	rsbne	r1, r1, r0
     9e4:	15821000 	strne	r1, [r2]
     9e8:	e5932024 	ldr	r2, [r3, #36]	; 0x24
     9ec:	e59f3020 	ldr	r3, [pc, #32]	; a14 <recording_finalise+0x7c>
     9f0:	e3520000 	cmp	r2, #0
     9f4:	012fff1e 	bxeq	lr
     9f8:	e593102c 	ldr	r1, [r3, #44]	; 0x2c
     9fc:	e3510000 	cmp	r1, #0
     a00:	15931028 	ldrne	r1, [r3, #40]	; 0x28
     a04:	15933020 	ldrne	r3, [r3, #32]
     a08:	10622001 	rsbne	r2, r2, r1
     a0c:	15832000 	strne	r2, [r3]
     a10:	e12fff1e 	bx	lr
     a14:	00400034 	.word	0x00400034

00000a18 <initialize_buffers>:
     a18:	e92d4008 	push	{r3, lr}
     a1c:	e59f3028 	ldr	r3, [pc, #40]	; a4c <initialize_buffers+0x34>
     a20:	e3a02000 	mov	r2, #0
     a24:	e5832000 	str	r2, [r3]
     a28:	eb0000f8 	bl	e10 <reset_ring_buffer>
     a2c:	eb00003b 	bl	b20 <initialize_current_buffer>
     a30:	e3a00c01 	mov	r0, #256	; 0x100
     a34:	ebfffe75 	bl	410 <initialize_spike_buffer>
     a38:	e3a00c01 	mov	r0, #256	; 0x100
     a3c:	ebfffee2 	bl	5cc <initialize_out_spikes>
     a40:	eb00024d 	bl	137c <initialise_plasticity_buffers>
     a44:	e8bd4008 	pop	{r3, lr}
     a48:	ea00043c 	b	1b40 <initialise_dma_buffers>
     a4c:	00405540 	.word	0x00405540

00000a50 <c_main>:
     a50:	e92d4038 	push	{r3, r4, r5, lr}
     a54:	eb000570 	bl	201c <system_load_dtcm>
     a58:	e59f30a0 	ldr	r3, [pc, #160]	; b00 <c_main+0xb0>
     a5c:	e5d33000 	ldrb	r3, [r3]
     a60:	e3530000 	cmp	r3, #0
     a64:	0a000000 	beq	a6c <c_main+0x1c>
     a68:	eb000549 	bl	1f94 <system_lead_app_configured>
     a6c:	e59f5090 	ldr	r5, [pc, #144]	; b04 <c_main+0xb4>
     a70:	e3a04000 	mov	r4, #0
     a74:	e5854000 	str	r4, [r5]
     a78:	eb0000e4 	bl	e10 <reset_ring_buffer>
     a7c:	eb000027 	bl	b20 <initialize_current_buffer>
     a80:	e3a00c01 	mov	r0, #256	; 0x100
     a84:	ebfffe61 	bl	410 <initialize_spike_buffer>
     a88:	e3a00c01 	mov	r0, #256	; 0x100
     a8c:	ebfffece 	bl	5cc <initialize_out_spikes>
     a90:	eb000239 	bl	137c <initialise_plasticity_buffers>
     a94:	eb000429 	bl	1b40 <initialise_dma_buffers>
     a98:	e59f3068 	ldr	r3, [pc, #104]	; b08 <c_main+0xb8>
     a9c:	e1d300b0 	ldrh	r0, [r3]
     aa0:	eb00018d 	bl	10dc <provide_machine_timestep>
     aa4:	e59f3060 	ldr	r3, [pc, #96]	; b0c <c_main+0xbc>
     aa8:	e5930000 	ldr	r0, [r3]
     aac:	fa000a1d 	blx	3328 <spin1_set_timer_tick>
     ab0:	e1a00004 	mov	r0, r4
     ab4:	e59f1054 	ldr	r1, [pc, #84]	; b10 <c_main+0xc0>
     ab8:	e3e02000 	mvn	r2, #0
     abc:	fa0009fa 	blx	32ac <spin1_callback_on>
     ac0:	e1a02004 	mov	r2, r4
     ac4:	e3a00001 	mov	r0, #1
     ac8:	e59f1044 	ldr	r1, [pc, #68]	; b14 <c_main+0xc4>
     acc:	fa0009f6 	blx	32ac <spin1_callback_on>
     ad0:	e1a02004 	mov	r2, r4
     ad4:	e3a00004 	mov	r0, #4
     ad8:	e59f1038 	ldr	r1, [pc, #56]	; b18 <c_main+0xc8>
     adc:	fa0009f2 	blx	32ac <spin1_callback_on>
     ae0:	e3a00002 	mov	r0, #2
     ae4:	e1a02000 	mov	r2, r0
     ae8:	e59f102c 	ldr	r1, [pc, #44]	; b1c <c_main+0xcc>
     aec:	fa0009ee 	blx	32ac <spin1_callback_on>
     af0:	e3e03000 	mvn	r3, #0
     af4:	e5853000 	str	r3, [r5]
     af8:	e8bd4038 	pop	{r3, r4, r5, lr}
     afc:	ea000537 	b	1fe0 <system_runs_to_completion>
     b00:	00405a6c 	.word	0x00405a6c
     b04:	00405540 	.word	0x00405540
     b08:	00405548 	.word	0x00405548
     b0c:	0040002c 	.word	0x0040002c
     b10:	00001e78 	.word	0x00001e78
     b14:	00001d74 	.word	0x00001d74
     b18:	00001ec8 	.word	0x00001ec8
     b1c:	00001b58 	.word	0x00001b58

00000b20 <initialize_current_buffer>:
     b20:	e92d4008 	push	{r3, lr}
     b24:	e3a01001 	mov	r1, #1
     b28:	e3a00b02 	mov	r0, #2048	; 0x800
     b2c:	fa0007d0 	blx	2a74 <sark_alloc>
     b30:	e59f101c 	ldr	r1, [pc, #28]	; b54 <initialize_current_buffer+0x34>
     b34:	e3a03000 	mov	r3, #0
     b38:	e1a02003 	mov	r2, r3
     b3c:	e5810000 	str	r0, [r1]
     b40:	e7802003 	str	r2, [r0, r3]
     b44:	e2833004 	add	r3, r3, #4
     b48:	e3530b02 	cmp	r3, #2048	; 0x800
     b4c:	1afffffb 	bne	b40 <initialize_current_buffer+0x20>
     b50:	e8bd8008 	pop	{r3, pc}
     b54:	00405530 	.word	0x00405530

00000b58 <ring_buffer_transfer>:
     b58:	e59f3164 	ldr	r3, [pc, #356]	; cc4 <ETH_RX_SIZE+0xc4>
     b5c:	e92d0ff0 	push	{r4, r5, r6, r7, r8, r9, sl, fp}
     b60:	e5933000 	ldr	r3, [r3]
     b64:	e24dd028 	sub	sp, sp, #40	; 0x28
     b68:	e3530000 	cmp	r3, #0
     b6c:	e58d3014 	str	r3, [sp, #20]
     b70:	0a000050 	beq	cb8 <ETH_RX_SIZE+0xb8>
     b74:	e59f314c 	ldr	r3, [pc, #332]	; cc8 <ETH_RX_SIZE+0xc8>
     b78:	e59f014c 	ldr	r0, [pc, #332]	; ccc <ETH_RX_SIZE+0xcc>
     b7c:	e5931000 	ldr	r1, [r3]
     b80:	e5906000 	ldr	r6, [r0]
     b84:	e59f3144 	ldr	r3, [pc, #324]	; cd0 <ETH_RX_SIZE+0xd0>
     b88:	e59f2144 	ldr	r2, [pc, #324]	; cd4 <ETH_RX_SIZE+0xd4>
     b8c:	e201100f 	and	r1, r1, #15
     b90:	e1a01481 	lsl	r1, r1, #9
     b94:	e3a0b000 	mov	fp, #0
     b98:	e5930000 	ldr	r0, [r3]
     b9c:	e58d1018 	str	r1, [sp, #24]
     ba0:	e5933004 	ldr	r3, [r3, #4]
     ba4:	e592c000 	ldr	ip, [r2]
     ba8:	e3811c01 	orr	r1, r1, #256	; 0x100
     bac:	e1a08006 	mov	r8, r6
     bb0:	e1a0700b 	mov	r7, fp
     bb4:	e58d001c 	str	r0, [sp, #28]
     bb8:	e58d3020 	str	r3, [sp, #32]
     bbc:	e58d1024 	str	r1, [sp, #36]	; 0x24
     bc0:	e58dc010 	str	ip, [sp, #16]
     bc4:	e59d101c 	ldr	r1, [sp, #28]
     bc8:	e5982000 	ldr	r2, [r8]
     bcc:	e7b1000b 	ldr	r0, [r1, fp]!
     bd0:	e59d3018 	ldr	r3, [sp, #24]
     bd4:	e0854092 	umull	r4, r5, r2, r0
     bd8:	e1879003 	orr	r9, r7, r3
     bdc:	e1a03fc2 	asr	r3, r2, #31
     be0:	e0205093 	mla	r0, r3, r0, r5
     be4:	e59fc0ec 	ldr	ip, [pc, #236]	; cd8 <ETH_RX_SIZE+0xd8>
     be8:	e1a09089 	lsl	r9, r9, #1
     bec:	e4880004 	str	r0, [r8], #4
     bf0:	e5913004 	ldr	r3, [r1, #4]
     bf4:	e19c00b9 	ldrh	r0, [ip, r9]
     bf8:	e59d1010 	ldr	r1, [sp, #16]
     bfc:	e59d5020 	ldr	r5, [sp, #32]
     c00:	e1a02110 	lsl	r2, r0, r1
     c04:	e0810392 	umull	r0, r1, r2, r3
     c08:	e3874c01 	orr	r4, r7, #256	; 0x100
     c0c:	e7b5a00b 	ldr	sl, [r5, fp]!
     c10:	e796c104 	ldr	ip, [r6, r4, lsl #2]
     c14:	e1cd00f8 	strd	r0, [sp, #8]
     c18:	e0810a9c 	umull	r0, r1, ip, sl
     c1c:	e28bb008 	add	fp, fp, #8
     c20:	e1cd00f0 	strd	r0, [sp]
     c24:	e7960104 	ldr	r0, [r6, r4, lsl #2]
     c28:	e1a01fc2 	asr	r1, r2, #31
     c2c:	e59d200c 	ldr	r2, [sp, #12]
     c30:	e02c2193 	mla	ip, r3, r1, r2
     c34:	e1a01fc0 	asr	r1, r0, #31
     c38:	e1a03001 	mov	r3, r1
     c3c:	e59d1004 	ldr	r1, [sp, #4]
     c40:	e59d2024 	ldr	r2, [sp, #36]	; 0x24
     c44:	e02a1a93 	mla	sl, r3, sl, r1
     c48:	e1870002 	orr	r0, r7, r2
     c4c:	e786a104 	str	sl, [r6, r4, lsl #2]
     c50:	e5183004 	ldr	r3, [r8, #-4]
     c54:	e1a00080 	lsl	r0, r0, #1
     c58:	e083100c 	add	r1, r3, ip
     c5c:	e59fc074 	ldr	ip, [pc, #116]	; cd8 <ETH_RX_SIZE+0xd8>
     c60:	e3a03000 	mov	r3, #0
     c64:	e5081004 	str	r1, [r8, #-4]
     c68:	e18c30b9 	strh	r3, [ip, r9]
     c6c:	e59d3010 	ldr	r3, [sp, #16]
     c70:	e19c20b0 	ldrh	r2, [ip, r0]
     c74:	e5951004 	ldr	r1, [r5, #4]
     c78:	e1a05312 	lsl	r5, r2, r3
     c7c:	e0832195 	umull	r2, r3, r5, r1
     c80:	e59dc014 	ldr	ip, [sp, #20]
     c84:	e1cd20f0 	strd	r2, [sp]
     c88:	e1a03fc5 	asr	r3, r5, #31
     c8c:	e59d5004 	ldr	r5, [sp, #4]
     c90:	e2877001 	add	r7, r7, #1
     c94:	e0215193 	mla	r1, r3, r1, r5
     c98:	e7963104 	ldr	r3, [r6, r4, lsl #2]
     c9c:	e59f2034 	ldr	r2, [pc, #52]	; cd8 <ETH_RX_SIZE+0xd8>
     ca0:	e0831001 	add	r1, r3, r1
     ca4:	e7861104 	str	r1, [r6, r4, lsl #2]
     ca8:	e157000c 	cmp	r7, ip
     cac:	e3a01000 	mov	r1, #0
     cb0:	e18210b0 	strh	r1, [r2, r0]
     cb4:	1affffc2 	bne	bc4 <ring_buffer_transfer+0x6c>
     cb8:	e28dd028 	add	sp, sp, #40	; 0x28
     cbc:	e8bd0ff0 	pop	{r4, r5, r6, r7, r8, r9, sl, fp}
     cc0:	e12fff1e 	bx	lr
     cc4:	00405538 	.word	0x00405538
     cc8:	00405540 	.word	0x00405540
     ccc:	00405530 	.word	0x00405530
     cd0:	00405528 	.word	0x00405528
     cd4:	0040553c 	.word	0x0040553c
     cd8:	00400064 	.word	0x00400064

00000cdc <synaptic_row>:
     cdc:	e1a03822 	lsr	r3, r2, #16
     ce0:	e1a0cc22 	lsr	ip, r2, #24
     ce4:	e20330ff 	and	r3, r3, #255	; 0xff
     ce8:	e92d00f0 	push	{r4, r5, r6, r7}
     cec:	e083318c 	add	r3, r3, ip, lsl #3
     cf0:	e1a045a2 	lsr	r4, r2, #11
     cf4:	e0833183 	add	r3, r3, r3, lsl #3
     cf8:	e204401f 	and	r4, r4, #31
     cfc:	e59fc054 	ldr	ip, [pc, #84]	; d58 <synaptic_row+0x7c>
     d00:	e0843083 	add	r3, r4, r3, lsl #1
     d04:	e08c3083 	add	r3, ip, r3, lsl #1
     d08:	e1d331b0 	ldrh	r3, [r3, #16]
     d0c:	e1a05000 	mov	r5, r0
     d10:	e2130007 	ands	r0, r3, #7
     d14:	0a00000d 	beq	d50 <synaptic_row+0x74>
     d18:	e08c4100 	add	r4, ip, r0, lsl #2
     d1c:	e5947910 	ldr	r7, [r4, #2320]	; 0x910
     d20:	e59c6930 	ldr	r6, [ip, #2352]	; 0x930
     d24:	e287c003 	add	ip, r7, #3
     d28:	e1a0c10c 	lsl	ip, ip, #2
     d2c:	e581c000 	str	ip, [r1]
     d30:	e594c910 	ldr	ip, [r4, #2320]	; 0x910
     d34:	e1a031a3 	lsr	r3, r3, #3
     d38:	e1a02a82 	lsl	r2, r2, #21
     d3c:	e0861503 	add	r1, r6, r3, lsl #10
     d40:	e1a029a2 	lsr	r2, r2, #19
     d44:	e28c3003 	add	r3, ip, #3
     d48:	e0231392 	mla	r3, r2, r3, r1
     d4c:	e5853000 	str	r3, [r5]
     d50:	e8bd00f0 	pop	{r4, r5, r6, r7}
     d54:	e12fff1e 	bx	lr
     d58:	00404054 	.word	0x00404054

00000d5c <process_synaptic_row>:
     d5c:	e92d40f8 	push	{r3, r4, r5, r6, r7, lr}
     d60:	e5906008 	ldr	r6, [r0, #8]
     d64:	e1a04000 	mov	r4, r0
     d68:	e3560000 	cmp	r6, #0
     d6c:	e2866003 	add	r6, r6, #3
     d70:	e1a07001 	mov	r7, r1
     d74:	e0805106 	add	r5, r0, r6, lsl #2
     d78:	1a00001a 	bne	de8 <process_synaptic_row+0x8c>
     d7c:	e7944106 	ldr	r4, [r4, r6, lsl #2]
     d80:	e59f3080 	ldr	r3, [pc, #128]	; e08 <process_synaptic_row+0xac>
     d84:	e3540000 	cmp	r4, #0
     d88:	e2855008 	add	r5, r5, #8
     d8c:	e5937000 	ldr	r7, [r3]
     d90:	08bd80f8 	popeq	{r3, r4, r5, r6, r7, pc}
     d94:	e59f6070 	ldr	r6, [pc, #112]	; e0c <process_synaptic_row+0xb0>
     d98:	ea000001 	b	da4 <process_synaptic_row+0x48>
     d9c:	e2544001 	subs	r4, r4, #1
     da0:	0a00000f 	beq	de4 <process_synaptic_row+0x88>
     da4:	e4950004 	ldr	r0, [r5], #4
     da8:	e08724a0 	add	r2, r7, r0, lsr #9
     dac:	e1a03b80 	lsl	r3, r0, #23
     db0:	e202200f 	and	r2, r2, #15
     db4:	e1a03ba3 	lsr	r3, r3, #23
     db8:	e1833482 	orr	r3, r3, r2, lsl #9
     dbc:	e1a03083 	lsl	r3, r3, #1
     dc0:	e19620b3 	ldrh	r2, [r6, r3]
     dc4:	e3100c01 	tst	r0, #256	; 0x100
     dc8:	e0822820 	add	r2, r2, r0, lsr #16
     dcc:	e18620b3 	strh	r2, [r6, r3]
     dd0:	0afffff1 	beq	d9c <process_synaptic_row+0x40>
     dd4:	e20000ff 	and	r0, r0, #255	; 0xff
     dd8:	eb000168 	bl	1380 <plasticity_process_teaching_synaptic_event>
     ddc:	e2544001 	subs	r4, r4, #1
     de0:	1affffef 	bne	da4 <process_synaptic_row+0x48>
     de4:	e8bd80f8 	pop	{r3, r4, r5, r6, r7, pc}
     de8:	e280000c 	add	r0, r0, #12
     dec:	e1a01005 	mov	r1, r5
     df0:	e59f2014 	ldr	r2, [pc, #20]	; e0c <process_synaptic_row+0xb0>
     df4:	eb0001a4 	bl	148c <process_plastic_synapses>
     df8:	e3570000 	cmp	r7, #0
     dfc:	0affffde 	beq	d7c <process_synaptic_row+0x20>
     e00:	eb0003c7 	bl	1d24 <set_up_and_request_synaptic_dma_write>
     e04:	eaffffdc 	b	d7c <process_synaptic_row+0x20>
     e08:	00405540 	.word	0x00405540
     e0c:	00400064 	.word	0x00400064

00000e10 <reset_ring_buffer>:
     e10:	e59f0008 	ldr	r0, [pc, #8]	; e20 <reset_ring_buffer+0x10>
     e14:	e3a01000 	mov	r1, #0
     e18:	e3a02901 	mov	r2, #16384	; 0x4000
     e1c:	ea000bd8 	b	3d84 <memset>
     e20:	00400064 	.word	0x00400064

00000e24 <row_size_table_filled>:
     e24:	e92d41f0 	push	{r4, r5, r6, r7, r8, lr}
     e28:	e59f4074 	ldr	r4, [pc, #116]	; ea4 <row_size_table_filled+0x80>
     e2c:	e1a02000 	mov	r2, r0
     e30:	e1a03001 	mov	r3, r1
     e34:	e2840e91 	add	r0, r4, #2320	; 0x910
     e38:	e3a01008 	mov	r1, #8
     e3c:	ebfffe6d 	bl	7f8 <vector_copied>
     e40:	e5948910 	ldr	r8, [r4, #2320]	; 0x910
     e44:	e5947914 	ldr	r7, [r4, #2324]	; 0x914
     e48:	e3580000 	cmp	r8, #0
     e4c:	e5946918 	ldr	r6, [r4, #2328]	; 0x918
     e50:	13a00000 	movne	r0, #0
     e54:	e594591c 	ldr	r5, [r4, #2332]	; 0x91c
     e58:	e3570001 	cmp	r7, #1
     e5c:	13a00000 	movne	r0, #0
     e60:	e594c920 	ldr	ip, [r4, #2336]	; 0x920
     e64:	e3560008 	cmp	r6, #8
     e68:	13a00000 	movne	r0, #0
     e6c:	e5941924 	ldr	r1, [r4, #2340]	; 0x924
     e70:	e3550010 	cmp	r5, #16
     e74:	13a00000 	movne	r0, #0
     e78:	e5942928 	ldr	r2, [r4, #2344]	; 0x928
     e7c:	e35c0020 	cmp	ip, #32
     e80:	13a00000 	movne	r0, #0
     e84:	e594392c 	ldr	r3, [r4, #2348]	; 0x92c
     e88:	e3510040 	cmp	r1, #64	; 0x40
     e8c:	13a00000 	movne	r0, #0
     e90:	e3520080 	cmp	r2, #128	; 0x80
     e94:	13a00000 	movne	r0, #0
     e98:	e3530c01 	cmp	r3, #256	; 0x100
     e9c:	13a00000 	movne	r0, #0
     ea0:	e8bd81f0 	pop	{r4, r5, r6, r7, r8, pc}
     ea4:	00404054 	.word	0x00404054

00000ea8 <master_population_table_filled>:
     ea8:	e1a02000 	mov	r2, r0
     eac:	e1a03001 	mov	r3, r1
     eb0:	e59f0004 	ldr	r0, [pc, #4]	; ebc <master_population_table_filled+0x14>
     eb4:	e3a01d12 	mov	r1, #1152	; 0x480
     eb8:	eafffe59 	b	824 <half_word_vector_copied>
     ebc:	00404064 	.word	0x00404064

00000ec0 <synaptic_data_filled>:
     ec0:	e59f3008 	ldr	r3, [pc, #8]	; ed0 <synaptic_data_filled+0x10>
     ec4:	e5830930 	str	r0, [r3, #2352]	; 0x930
     ec8:	e3a00001 	mov	r0, #1
     ecc:	e12fff1e 	bx	lr
     ed0:	00404054 	.word	0x00404054

00000ed4 <synaptic_current_data_filled>:
     ed4:	e92d41f0 	push	{r4, r5, r6, r7, r8, lr}
     ed8:	e59f504c 	ldr	r5, [pc, #76]	; f2c <RTR_TST2+0x28>
     edc:	e59f604c 	ldr	r6, [pc, #76]	; f30 <RTR_TST2+0x2c>
     ee0:	e1a08000 	mov	r8, r0
     ee4:	e1a07005 	mov	r7, r5
     ee8:	e3a04000 	mov	r4, #0
     eec:	e5950000 	ldr	r0, [r5]
     ef0:	e1a00180 	lsl	r0, r0, #3
     ef4:	fa000a04 	blx	370c <spin1_malloc>
     ef8:	e3500000 	cmp	r0, #0
     efc:	e7860104 	str	r0, [r6, r4, lsl #2]
     f00:	0a000008 	beq	f28 <RTR_TST2+0x24>
     f04:	e5972000 	ldr	r2, [r7]
     f08:	e1a02182 	lsl	r2, r2, #3
     f0c:	e0218492 	mla	r1, r2, r4, r8
     f10:	eb000b5f 	bl	3c94 <memcpy>
     f14:	e2844001 	add	r4, r4, #1
     f18:	e3540002 	cmp	r4, #2
     f1c:	1afffff2 	bne	eec <synaptic_current_data_filled+0x18>
     f20:	e3a00001 	mov	r0, #1
     f24:	e8bd81f0 	pop	{r4, r5, r6, r7, r8, pc}
     f28:	e8bd81f0 	pop	{r4, r5, r6, r7, r8, pc}
     f2c:	00405538 	.word	0x00405538
     f30:	00405528 	.word	0x00405528

00000f34 <print_ring_buffers>:
     f34:	e12fff1e 	bx	lr

00000f38 <print_master_population>:
     f38:	e12fff1e 	bx	lr

00000f3c <print_row_size_table>:
     f3c:	e12fff1e 	bx	lr

00000f40 <print_synaptic_rows>:
     f40:	e12fff1e 	bx	lr

00000f44 <print_synaptic_row>:
     f44:	e12fff1e 	bx	lr

00000f48 <print_currents>:
     f48:	e12fff1e 	bx	lr

00000f4c <neuron>:
     f4c:	e59f30d4 	ldr	r3, [pc, #212]	; 1028 <SV_SIZE+0x28>
     f50:	e59f20d4 	ldr	r2, [pc, #212]	; 102c <SV_SIZE+0x2c>
     f54:	e5933000 	ldr	r3, [r3]
     f58:	e3801c01 	orr	r1, r0, #256	; 0x100
     f5c:	e5922000 	ldr	r2, [r2]
     f60:	e92d41f0 	push	{r4, r5, r6, r7, r8, lr}
     f64:	e7935101 	ldr	r5, [r3, r1, lsl #2]
     f68:	e7936100 	ldr	r6, [r3, r0, lsl #2]
     f6c:	e0807100 	add	r7, r0, r0, lsl #2
     f70:	e0827187 	add	r7, r2, r7, lsl #3
     f74:	e24dd008 	sub	sp, sp, #8
     f78:	e1a01005 	mov	r1, r5
     f7c:	e1a02007 	mov	r2, r7
     f80:	e1a04000 	mov	r4, r0
     f84:	e1a00006 	mov	r0, r6
     f88:	eb000073 	bl	115c <neuron_state_update>
     f8c:	e1a08000 	mov	r8, r0
     f90:	e3a00002 	mov	r0, #2
     f94:	ebfffe02 	bl	7a4 <system_data_test_bit>
     f98:	e3500000 	cmp	r0, #0
     f9c:	1a000018 	bne	1004 <SV_SIZE+0x4>
     fa0:	e3a00004 	mov	r0, #4
     fa4:	ebfffdfe 	bl	7a4 <system_data_test_bit>
     fa8:	e3500000 	cmp	r0, #0
     fac:	1a00000d 	bne	fe8 <neuron+0x9c>
     fb0:	e3580000 	cmp	r8, #0
     fb4:	0a000009 	beq	fe0 <neuron+0x94>
     fb8:	e1a00004 	mov	r0, r4
     fbc:	eb0000f0 	bl	1384 <plasticity_process_post_synaptic_event>
     fc0:	e59f3068 	ldr	r3, [pc, #104]	; 1030 <SV_SIZE+0x30>
     fc4:	e1a022a4 	lsr	r2, r4, #5
     fc8:	e5933000 	ldr	r3, [r3]
     fcc:	e204401f 	and	r4, r4, #31
     fd0:	e7931102 	ldr	r1, [r3, r2, lsl #2]
     fd4:	e3a00001 	mov	r0, #1
     fd8:	e1814410 	orr	r4, r1, r0, lsl r4
     fdc:	e7834102 	str	r4, [r3, r2, lsl #2]
     fe0:	e28dd008 	add	sp, sp, #8
     fe4:	e8bd81f0 	pop	{r4, r5, r6, r7, r8, pc}
     fe8:	e0465005 	sub	r5, r6, r5
     fec:	e28d1008 	add	r1, sp, #8
     ff0:	e5215004 	str	r5, [r1, #-4]!
     ff4:	e3a02004 	mov	r2, #4
     ff8:	e3a00002 	mov	r0, #2
     ffc:	ebfffe4e 	bl	93c <recording_record>
    1000:	eaffffea 	b	fb0 <neuron+0x64>
    1004:	e1a01007 	mov	r1, r7
    1008:	e3a00001 	mov	r0, #1
    100c:	eb00007f 	bl	1210 <neuron_get_state>
    1010:	e28d1008 	add	r1, sp, #8
    1014:	e3a02004 	mov	r2, #4
    1018:	e5210004 	str	r0, [r1, #-4]!
    101c:	e3a00001 	mov	r0, #1
    1020:	ebfffe45 	bl	93c <recording_record>
    1024:	eaffffdd 	b	fa0 <neuron+0x54>
    1028:	00405530 	.word	0x00405530
    102c:	00405534 	.word	0x00405534
    1030:	00405524 	.word	0x00405524

00001034 <constant_vector>:
    1034:	e3510000 	cmp	r1, #0
    1038:	012fff1e 	bxeq	lr
    103c:	e0803101 	add	r3, r0, r1, lsl #2
    1040:	e4802004 	str	r2, [r0], #4
    1044:	e1500003 	cmp	r0, r3
    1048:	1afffffc 	bne	1040 <constant_vector+0xc>
    104c:	e12fff1e 	bx	lr

00001050 <neural_data_filled>:
    1050:	e92d43f8 	push	{r3, r4, r5, r6, r7, r8, r9, lr}
    1054:	e5903004 	ldr	r3, [r0, #4]
    1058:	e1a04000 	mov	r4, r0
    105c:	e59fc060 	ldr	ip, [pc, #96]	; 10c4 <neural_data_filled+0x74>
    1060:	e59f5060 	ldr	r5, [pc, #96]	; 10c8 <neural_data_filled+0x78>
    1064:	e0830103 	add	r0, r3, r3, lsl #2
    1068:	e59f205c 	ldr	r2, [pc, #92]	; 10cc <neural_data_filled+0x7c>
    106c:	e59f805c 	ldr	r8, [pc, #92]	; 10d0 <neural_data_filled+0x80>
    1070:	e59f605c 	ldr	r6, [pc, #92]	; 10d4 <neural_data_filled+0x84>
    1074:	e5949000 	ldr	r9, [r4]
    1078:	e594e00c 	ldr	lr, [r4, #12]
    107c:	e5941010 	ldr	r1, [r4, #16]
    1080:	e5947008 	ldr	r7, [r4, #8]
    1084:	e1a00180 	lsl	r0, r0, #3
    1088:	e5853000 	str	r3, [r5]
    108c:	e58ce000 	str	lr, [ip]
    1090:	e5821000 	str	r1, [r2]
    1094:	e5889000 	str	r9, [r8]
    1098:	e5867000 	str	r7, [r6]
    109c:	fa00099a 	blx	370c <spin1_malloc>
    10a0:	e5952000 	ldr	r2, [r5]
    10a4:	e59f302c 	ldr	r3, [pc, #44]	; 10d8 <neural_data_filled+0x88>
    10a8:	e0822102 	add	r2, r2, r2, lsl #2
    10ac:	e1a02182 	lsl	r2, r2, #3
    10b0:	e2841014 	add	r1, r4, #20
    10b4:	e5830000 	str	r0, [r3]
    10b8:	eb000af5 	bl	3c94 <memcpy>
    10bc:	e3a00001 	mov	r0, #1
    10c0:	e8bd83f8 	pop	{r3, r4, r5, r6, r7, r8, r9, pc}
    10c4:	00405548 	.word	0x00405548
    10c8:	00405538 	.word	0x00405538
    10cc:	0040553c 	.word	0x0040553c
    10d0:	00405544 	.word	0x00405544
    10d4:	0040554c 	.word	0x0040554c
    10d8:	00405534 	.word	0x00405534

000010dc <provide_machine_timestep>:
    10dc:	e59f3010 	ldr	r3, [pc, #16]	; 10f4 <provide_machine_timestep+0x18>
    10e0:	e0832390 	umull	r2, r3, r0, r3
    10e4:	e59f200c 	ldr	r2, [pc, #12]	; 10f8 <provide_machine_timestep+0x1c>
    10e8:	e1a032a3 	lsr	r3, r3, #5
    10ec:	e5823000 	str	r3, [r2]
    10f0:	e12fff1e 	bx	lr
    10f4:	51eb851f 	.word	0x51eb851f
    10f8:	00400000 	.word	0x00400000

000010fc <lif_neuron_closed_form>:
    10fc:	e59f3040 	ldr	r3, [pc, #64]	; 1144 <lif_neuron_closed_form+0x48>
    1100:	e92d0030 	push	{r4, r5}
    1104:	e590c00c 	ldr	ip, [r0, #12]
    1108:	e5935000 	ldr	r5, [r3]
    110c:	e5904008 	ldr	r4, [r0, #8]
    1110:	e0c32c95 	smull	r2, r3, r5, ip
    1114:	e590c018 	ldr	ip, [r0, #24]
    1118:	e1a03883 	lsl	r3, r3, #17
    111c:	e18327a2 	orr	r2, r3, r2, lsr #15
    1120:	e0822004 	add	r2, r2, r4
    1124:	e0421001 	sub	r1, r2, r1
    1128:	e0c54c91 	smull	r4, r5, r1, ip
    112c:	e1a03885 	lsl	r3, r5, #17
    1130:	e18347a4 	orr	r4, r3, r4, lsr #15
    1134:	e0422004 	sub	r2, r2, r4
    1138:	e5802010 	str	r2, [r0, #16]
    113c:	e8bd0030 	pop	{r4, r5}
    1140:	e12fff1e 	bx	lr
    1144:	00404988 	.word	0x00404988

00001148 <neuron_discrete_changes>:
    1148:	e5902004 	ldr	r2, [r0, #4]
    114c:	e5903024 	ldr	r3, [r0, #36]	; 0x24
    1150:	e5802010 	str	r2, [r0, #16]
    1154:	e5803020 	str	r3, [r0, #32]
    1158:	e12fff1e 	bx	lr

0000115c <neuron_state_update>:
    115c:	e59fc098 	ldr	ip, [pc, #152]	; 11fc <neuron_state_update+0xa0>
    1160:	e92d00f0 	push	{r4, r5, r6, r7}
    1164:	e59c3000 	ldr	r3, [ip]
    1168:	e5924020 	ldr	r4, [r2, #32]
    116c:	e0633004 	rsb	r3, r3, r4
    1170:	e3530000 	cmp	r3, #0
    1174:	e5823020 	str	r3, [r2, #32]
    1178:	e5923010 	ldr	r3, [r2, #16]
    117c:	da000002 	ble	118c <neuron_state_update+0x30>
    1180:	e3a00000 	mov	r0, #0
    1184:	e8bd00f0 	pop	{r4, r5, r6, r7}
    1188:	e12fff1e 	bx	lr
    118c:	e5924014 	ldr	r4, [r2, #20]
    1190:	e0401001 	sub	r1, r0, r1
    1194:	e592c00c 	ldr	ip, [r2, #12]
    1198:	e0811004 	add	r1, r1, r4
    119c:	e0c76c91 	smull	r6, r7, r1, ip
    11a0:	e5920008 	ldr	r0, [r2, #8]
    11a4:	e1a04887 	lsl	r4, r7, #17
    11a8:	e18467a6 	orr	r6, r4, r6, lsr #15
    11ac:	e0866000 	add	r6, r6, r0
    11b0:	e5920018 	ldr	r0, [r2, #24]
    11b4:	e0463003 	sub	r3, r6, r3
    11b8:	e0c54093 	smull	r4, r5, r3, r0
    11bc:	e5920000 	ldr	r0, [r2]
    11c0:	e1a03885 	lsl	r3, r5, #17
    11c4:	e18347a4 	orr	r4, r3, r4, lsr #15
    11c8:	e0464004 	sub	r4, r6, r4
    11cc:	e59f302c 	ldr	r3, [pc, #44]	; 1200 <neuron_state_update+0xa4>
    11d0:	e1500004 	cmp	r0, r4
    11d4:	e5831000 	str	r1, [r3]
    11d8:	e5824010 	str	r4, [r2, #16]
    11dc:	caffffe7 	bgt	1180 <neuron_state_update+0x24>
    11e0:	e5921004 	ldr	r1, [r2, #4]
    11e4:	e5923024 	ldr	r3, [r2, #36]	; 0x24
    11e8:	e3a00001 	mov	r0, #1
    11ec:	e5821010 	str	r1, [r2, #16]
    11f0:	e5823020 	str	r3, [r2, #32]
    11f4:	e8bd00f0 	pop	{r4, r5, r6, r7}
    11f8:	e12fff1e 	bx	lr
    11fc:	00400000 	.word	0x00400000
    1200:	00404988 	.word	0x00404988

00001204 <neuron_set_state>:
    1204:	e5913004 	ldr	r3, [r1, #4]
    1208:	e5823010 	str	r3, [r2, #16]
    120c:	e12fff1e 	bx	lr

00001210 <neuron_get_state>:
    1210:	e5910010 	ldr	r0, [r1, #16]
    1214:	e12fff1e 	bx	lr

00001218 <create_lif_neuron>:
    1218:	e92d4ff0 	push	{r4, r5, r6, r7, r8, r9, sl, fp, lr}
    121c:	e24dd00c 	sub	sp, sp, #12
    1220:	e59dc03c 	ldr	ip, [sp, #60]	; 0x3c
    1224:	e1a08000 	mov	r8, r0
    1228:	e3a00028 	mov	r0, #40	; 0x28
    122c:	e1a0b003 	mov	fp, r3
    1230:	e58dc004 	str	ip, [sp, #4]
    1234:	e1a07001 	mov	r7, r1
    1238:	e1a06002 	mov	r6, r2
    123c:	e59d9038 	ldr	r9, [sp, #56]	; 0x38
    1240:	e59d5030 	ldr	r5, [sp, #48]	; 0x30
    1244:	e59da044 	ldr	sl, [sp, #68]	; 0x44
    1248:	fa00092f 	blx	370c <spin1_malloc>
    124c:	e1a02009 	mov	r2, r9
    1250:	e59f10e4 	ldr	r1, [pc, #228]	; 133c <create_lif_neuron+0x124>
    1254:	e1a04000 	mov	r4, r0
    1258:	e5849010 	str	r9, [r4, #16]
    125c:	e3a00000 	mov	r0, #0
    1260:	fa0006e3 	blx	2df4 <io_printf>
    1264:	e1a02008 	mov	r2, r8
    1268:	e5848000 	str	r8, [r4]
    126c:	e3a00000 	mov	r0, #0
    1270:	e59f10c8 	ldr	r1, [pc, #200]	; 1340 <create_lif_neuron+0x128>
    1274:	fa0006de 	blx	2df4 <io_printf>
    1278:	e1a02007 	mov	r2, r7
    127c:	e5847004 	str	r7, [r4, #4]
    1280:	e3a00000 	mov	r0, #0
    1284:	e59f10b8 	ldr	r1, [pc, #184]	; 1344 <create_lif_neuron+0x12c>
    1288:	fa0006d9 	blx	2df4 <io_printf>
    128c:	e1a02006 	mov	r2, r6
    1290:	e5846008 	str	r6, [r4, #8]
    1294:	e3a00000 	mov	r0, #0
    1298:	e59f10a8 	ldr	r1, [pc, #168]	; 1348 <create_lif_neuron+0x130>
    129c:	fa0006d4 	blx	2df4 <io_printf>
    12a0:	e59dc004 	ldr	ip, [sp, #4]
    12a4:	e584c014 	str	ip, [r4, #20]
    12a8:	e1a0200c 	mov	r2, ip
    12ac:	e3a00000 	mov	r0, #0
    12b0:	e59f1094 	ldr	r1, [pc, #148]	; 134c <create_lif_neuron+0x134>
    12b4:	fa0006ce 	blx	2df4 <io_printf>
    12b8:	e1a02005 	mov	r2, r5
    12bc:	e584500c 	str	r5, [r4, #12]
    12c0:	e3a00000 	mov	r0, #0
    12c4:	e59f1084 	ldr	r1, [pc, #132]	; 1350 <create_lif_neuron+0x138>
    12c8:	fa0006c9 	blx	2df4 <io_printf>
    12cc:	e1a0200b 	mov	r2, fp
    12d0:	e584b01c 	str	fp, [r4, #28]
    12d4:	e3a00000 	mov	r0, #0
    12d8:	e59f1074 	ldr	r1, [pc, #116]	; 1354 <create_lif_neuron+0x13c>
    12dc:	fa0006c4 	blx	2df4 <io_printf>
    12e0:	e1a0200a 	mov	r2, sl
    12e4:	e584a018 	str	sl, [r4, #24]
    12e8:	e3a00000 	mov	r0, #0
    12ec:	e59f1064 	ldr	r1, [pc, #100]	; 1358 <create_lif_neuron+0x140>
    12f0:	fa0006bf 	blx	2df4 <io_printf>
    12f4:	e59d3034 	ldr	r3, [sp, #52]	; 0x34
    12f8:	e3a06064 	mov	r6, #100	; 0x64
    12fc:	e1a02003 	mov	r2, r3
    1300:	e5843024 	str	r3, [r4, #36]	; 0x24
    1304:	e0020296 	mul	r2, r6, r2
    1308:	e3a00000 	mov	r0, #0
    130c:	e59f1048 	ldr	r1, [pc, #72]	; 135c <create_lif_neuron+0x144>
    1310:	fa0006b7 	blx	2df4 <io_printf>
    1314:	e59d3040 	ldr	r3, [sp, #64]	; 0x40
    1318:	e5843020 	str	r3, [r4, #32]
    131c:	e1a02003 	mov	r2, r3
    1320:	e0020296 	mul	r2, r6, r2
    1324:	e3a00000 	mov	r0, #0
    1328:	e59f1030 	ldr	r1, [pc, #48]	; 1360 <create_lif_neuron+0x148>
    132c:	fa0006b0 	blx	2df4 <io_printf>
    1330:	e1a00004 	mov	r0, r4
    1334:	e28dd00c 	add	sp, sp, #12
    1338:	e8bd8ff0 	pop	{r4, r5, r6, r7, r8, r9, sl, fp, pc}
    133c:	00003e80 	.word	0x00003e80
    1340:	00003e9c 	.word	0x00003e9c
    1344:	00003eb8 	.word	0x00003eb8
    1348:	00003ed4 	.word	0x00003ed4
    134c:	00003ef0 	.word	0x00003ef0
    1350:	00003f0c 	.word	0x00003f0c
    1354:	00003f28 	.word	0x00003f28
    1358:	00003f44 	.word	0x00003f44
    135c:	00003f5c 	.word	0x00003f5c
    1360:	00003f7c 	.word	0x00003f7c

00001364 <neuron_print>:
    1364:	e12fff1e 	bx	lr

00001368 <neuron_get_info>:
    1368:	e3a02001 	mov	r2, #1
    136c:	e3a03028 	mov	r3, #40	; 0x28
    1370:	e5c02000 	strb	r2, [r0]
    1374:	e1c130b0 	strh	r3, [r1]
    1378:	e12fff1e 	bx	lr

0000137c <initialise_plasticity_buffers>:
    137c:	ea0001bc 	b	1a74 <initialise_post_synaptic_event_buffers>

00001380 <plasticity_process_teaching_synaptic_event>:
    1380:	e12fff1e 	bx	lr

00001384 <plasticity_process_post_synaptic_event>:
    1384:	e59f30e4 	ldr	r3, [pc, #228]	; 1470 <plasticity_process_post_synaptic_event+0xec>
    1388:	e92d07f0 	push	{r4, r5, r6, r7, r8, r9, sl}
    138c:	e5936000 	ldr	r6, [r3]
    1390:	e7d63000 	ldrb	r3, [r6, r0]
    1394:	e3530000 	cmp	r3, #0
    1398:	0a000026 	beq	1438 <plasticity_process_post_synaptic_event+0xb4>
    139c:	e59f10d0 	ldr	r1, [pc, #208]	; 1474 <plasticity_process_post_synaptic_event+0xf0>
    13a0:	e59f20d0 	ldr	r2, [pc, #208]	; 1478 <plasticity_process_post_synaptic_event+0xf4>
    13a4:	e5919000 	ldr	r9, [r1]
    13a8:	e59f10cc 	ldr	r1, [pc, #204]	; 147c <plasticity_process_post_synaptic_event+0xf8>
    13ac:	e7d97000 	ldrb	r7, [r9, r0]
    13b0:	e592c000 	ldr	ip, [r2]
    13b4:	e5914000 	ldr	r4, [r1]
    13b8:	e0872003 	add	r2, r7, r3
    13bc:	e2421001 	sub	r1, r2, #1
    13c0:	e201101f 	and	r1, r1, #31
    13c4:	e79cc100 	ldr	ip, [ip, r0, lsl #2]
    13c8:	e7944100 	ldr	r4, [r4, r0, lsl #2]
    13cc:	e1a05081 	lsl	r5, r1, #1
    13d0:	e19c80f5 	ldrsh	r8, [ip, r5]
    13d4:	e7945101 	ldr	r5, [r4, r1, lsl #2]
    13d8:	e0899000 	add	r9, r9, r0
    13dc:	e59f109c 	ldr	r1, [pc, #156]	; 1480 <plasticity_process_post_synaptic_event+0xfc>
    13e0:	e202201f 	and	r2, r2, #31
    13e4:	e5911000 	ldr	r1, [r1]
    13e8:	e0655001 	rsb	r5, r5, r1
    13ec:	e3d5a0ff 	bics	sl, r5, #255	; 0xff
    13f0:	159f508c 	ldrne	r5, [pc, #140]	; 1484 <plasticity_process_post_synaptic_event+0x100>
    13f4:	e59fa08c 	ldr	sl, [pc, #140]	; 1488 <plasticity_process_post_synaptic_event+0x104>
    13f8:	01a05085 	lsleq	r5, r5, #1
    13fc:	e19550fa 	ldrsh	r5, [r5, sl]
    1400:	e353001f 	cmp	r3, #31
    1404:	e0080895 	mul	r8, r5, r8
    1408:	82877001 	addhi	r7, r7, #1
    140c:	e1a085c8 	asr	r8, r8, #11
    1410:	e1a05082 	lsl	r5, r2, #1
    1414:	e2888b02 	add	r8, r8, #2048	; 0x800
    1418:	8207701f 	andhi	r7, r7, #31
    141c:	92833001 	addls	r3, r3, #1
    1420:	e7841102 	str	r1, [r4, r2, lsl #2]
    1424:	e18c80b5 	strh	r8, [ip, r5]
    1428:	97c63000 	strbls	r3, [r6, r0]
    142c:	85c97000 	strbhi	r7, [r9]
    1430:	e8bd07f0 	pop	{r4, r5, r6, r7, r8, r9, sl}
    1434:	e12fff1e 	bx	lr
    1438:	e59f2034 	ldr	r2, [pc, #52]	; 1474 <plasticity_process_post_synaptic_event+0xf0>
    143c:	e59f1038 	ldr	r1, [pc, #56]	; 147c <plasticity_process_post_synaptic_event+0xf8>
    1440:	e5929000 	ldr	r9, [r2]
    1444:	e59f202c 	ldr	r2, [pc, #44]	; 1478 <plasticity_process_post_synaptic_event+0xf4>
    1448:	e591c000 	ldr	ip, [r1]
    144c:	e7d97000 	ldrb	r7, [r9, r0]
    1450:	e5921000 	ldr	r1, [r2]
    1454:	e79c4100 	ldr	r4, [ip, r0, lsl #2]
    1458:	e0899000 	add	r9, r9, r0
    145c:	e1a02007 	mov	r2, r7
    1460:	e791c100 	ldr	ip, [r1, r0, lsl #2]
    1464:	e1a08003 	mov	r8, r3
    1468:	e1a05003 	mov	r5, r3
    146c:	eaffffda 	b	13dc <plasticity_process_post_synaptic_event+0x58>
    1470:	00404990 	.word	0x00404990
    1474:	0040498c 	.word	0x0040498c
    1478:	00404998 	.word	0x00404998
    147c:	00404994 	.word	0x00404994
    1480:	00405540 	.word	0x00405540
    1484:	000001fe 	.word	0x000001fe
    1488:	00405560 	.word	0x00405560

0000148c <process_plastic_synapses>:
    148c:	e5913000 	ldr	r3, [r1]
    1490:	e92d0ff0 	push	{r4, r5, r6, r7, r8, r9, sl, fp}
    1494:	e5d04001 	ldrb	r4, [r0, #1]
    1498:	e2833002 	add	r3, r3, #2
    149c:	e24dd068 	sub	sp, sp, #104	; 0x68
    14a0:	e0813103 	add	r3, r1, r3, lsl #2
    14a4:	e3540000 	cmp	r4, #0
    14a8:	e5911004 	ldr	r1, [r1, #4]
    14ac:	e1a0a000 	mov	sl, r0
    14b0:	e58d2048 	str	r2, [sp, #72]	; 0x48
    14b4:	e58d3040 	str	r3, [sp, #64]	; 0x40
    14b8:	e58d1038 	str	r1, [sp, #56]	; 0x38
    14bc:	1a00012f 	bne	1980 <process_plastic_synapses+0x4f4>
    14c0:	e5d09000 	ldrb	r9, [r0]
    14c4:	e59d0038 	ldr	r0, [sp, #56]	; 0x38
    14c8:	e58d4064 	str	r4, [sp, #100]	; 0x64
    14cc:	e3500000 	cmp	r0, #0
    14d0:	e1a03009 	mov	r3, r9
    14d4:	e58d4030 	str	r4, [sp, #48]	; 0x30
    14d8:	0a000137 	beq	19bc <process_plastic_synapses+0x530>
    14dc:	e59f3518 	ldr	r3, [pc, #1304]	; 19fc <process_plastic_synapses+0x570>
    14e0:	e59f2518 	ldr	r2, [pc, #1304]	; 1a00 <process_plastic_synapses+0x574>
    14e4:	e5935008 	ldr	r5, [r3, #8]
    14e8:	e593600c 	ldr	r6, [r3, #12]
    14ec:	e5938000 	ldr	r8, [r3]
    14f0:	e5922000 	ldr	r2, [r2]
    14f4:	e5933004 	ldr	r3, [r3, #4]
    14f8:	e59fc504 	ldr	ip, [pc, #1284]	; 1a04 <process_plastic_synapses+0x578>
    14fc:	e59f0504 	ldr	r0, [pc, #1284]	; 1a08 <process_plastic_synapses+0x57c>
    1500:	e59f1504 	ldr	r1, [pc, #1284]	; 1a0c <process_plastic_synapses+0x580>
    1504:	e58d3058 	str	r3, [sp, #88]	; 0x58
    1508:	e28a3fc1 	add	r3, sl, #772	; 0x304
    150c:	e2822007 	add	r2, r2, #7
    1510:	e2833002 	add	r3, r3, #2
    1514:	e59cc000 	ldr	ip, [ip]
    1518:	e58d504c 	str	r5, [sp, #76]	; 0x4c
    151c:	e5900000 	ldr	r0, [r0]
    1520:	e5911000 	ldr	r1, [r1]
    1524:	e59fb4e4 	ldr	fp, [pc, #1252]	; 1a10 <process_plastic_synapses+0x584>
    1528:	e58d2044 	str	r2, [sp, #68]	; 0x44
    152c:	e1a05004 	mov	r5, r4
    1530:	e1a02003 	mov	r2, r3
    1534:	e58dc024 	str	ip, [sp, #36]	; 0x24
    1538:	e58d6050 	str	r6, [sp, #80]	; 0x50
    153c:	e58d8054 	str	r8, [sp, #84]	; 0x54
    1540:	e58d005c 	str	r0, [sp, #92]	; 0x5c
    1544:	e58d1060 	str	r1, [sp, #96]	; 0x60
    1548:	e58db028 	str	fp, [sp, #40]	; 0x28
    154c:	e58d3034 	str	r3, [sp, #52]	; 0x34
    1550:	e59dc040 	ldr	ip, [sp, #64]	; 0x40
    1554:	e3550000 	cmp	r5, #0
    1558:	e0dc30b2 	ldrh	r3, [ip], #2
    155c:	e15220b2 	ldrh	r2, [r2, #-2]
    1560:	e1a01b83 	lsl	r1, r3, #23
    1564:	e1a013a1 	lsr	r1, r1, #7
    1568:	e1a034a3 	lsr	r3, r3, #9
    156c:	e203300f 	and	r3, r3, #15
    1570:	e1a00821 	lsr	r0, r1, #16
    1574:	e58d203c 	str	r2, [sp, #60]	; 0x3c
    1578:	03e02000 	mvneq	r2, #0
    157c:	e58d301c 	str	r3, [sp, #28]
    1580:	e58dc040 	str	ip, [sp, #64]	; 0x40
    1584:	e58d002c 	str	r0, [sp, #44]	; 0x2c
    1588:	01a03002 	moveq	r3, r2
    158c:	01a07005 	moveq	r7, r5
    1590:	01a08005 	moveq	r8, r5
    1594:	0a00001c 	beq	160c <process_plastic_synapses+0x180>
    1598:	e1a0c003 	mov	ip, r3
    159c:	e08a3109 	add	r3, sl, r9, lsl #2
    15a0:	e5932004 	ldr	r2, [r3, #4]
    15a4:	e59d0030 	ldr	r0, [sp, #48]	; 0x30
    15a8:	e08c2002 	add	r2, ip, r2
    15ac:	e1500002 	cmp	r0, r2
    15b0:	3a000041 	bcc	16bc <process_plastic_synapses+0x230>
    15b4:	e1a08002 	mov	r8, r2
    15b8:	e1a03009 	mov	r3, r9
    15bc:	e3a00000 	mov	r0, #0
    15c0:	e2832c01 	add	r2, r3, #256	; 0x100
    15c4:	e2800001 	add	r0, r0, #1
    15c8:	e2833001 	add	r3, r3, #1
    15cc:	e08a2082 	add	r2, sl, r2, lsl #1
    15d0:	e203307f 	and	r3, r3, #127	; 0x7f
    15d4:	e1500005 	cmp	r0, r5
    15d8:	e1d270b4 	ldrh	r7, [r2, #4]
    15dc:	e08a2103 	add	r2, sl, r3, lsl #2
    15e0:	2a000007 	bcs	1604 <process_plastic_synapses+0x178>
    15e4:	e5922004 	ldr	r2, [r2, #4]
    15e8:	e59d401c 	ldr	r4, [sp, #28]
    15ec:	e59d6030 	ldr	r6, [sp, #48]	; 0x30
    15f0:	e0842002 	add	r2, r4, r2
    15f4:	e1560002 	cmp	r6, r2
    15f8:	3a000032 	bcc	16c8 <process_plastic_synapses+0x23c>
    15fc:	e1a08002 	mov	r8, r2
    1600:	eaffffee 	b	15c0 <process_plastic_synapses+0x134>
    1604:	e3e03000 	mvn	r3, #0
    1608:	e1a02003 	mov	r2, r3
    160c:	e59d4060 	ldr	r4, [sp, #96]	; 0x60
    1610:	e59d605c 	ldr	r6, [sp, #92]	; 0x5c
    1614:	e7d4b821 	ldrb	fp, [r4, r1, lsr #16]
    1618:	e7d61821 	ldrb	r1, [r6, r1, lsr #16]
    161c:	e35b0000 	cmp	fp, #0
    1620:	e58d1010 	str	r1, [sp, #16]
    1624:	0a0000eb 	beq	19d8 <process_plastic_synapses+0x54c>
    1628:	e59f63e4 	ldr	r6, [pc, #996]	; 1a14 <process_plastic_synapses+0x588>
    162c:	e1a04001 	mov	r4, r1
    1630:	e59d002c 	ldr	r0, [sp, #44]	; 0x2c
    1634:	e5961000 	ldr	r1, [r6]
    1638:	e59dc02c 	ldr	ip, [sp, #44]	; 0x2c
    163c:	e7911100 	ldr	r1, [r1, r0, lsl #2]
    1640:	e59d6030 	ldr	r6, [sp, #48]	; 0x30
    1644:	e7910104 	ldr	r0, [r1, r4, lsl #2]
    1648:	e1a0c10c 	lsl	ip, ip, #2
    164c:	e1560000 	cmp	r6, r0
    1650:	e58dc018 	str	ip, [sp, #24]
    1654:	e58d1014 	str	r1, [sp, #20]
    1658:	3a00009f 	bcc	18dc <process_plastic_synapses+0x450>
    165c:	e59fc3b4 	ldr	ip, [pc, #948]	; 1a18 <process_plastic_synapses+0x58c>
    1660:	e58d3008 	str	r3, [sp, #8]
    1664:	e59c1000 	ldr	r1, [ip]
    1668:	e1a0c000 	mov	ip, r0
    166c:	e59d002c 	ldr	r0, [sp, #44]	; 0x2c
    1670:	e7911100 	ldr	r1, [r1, r0, lsl #2]
    1674:	e58d1020 	str	r1, [sp, #32]
    1678:	e1a01004 	mov	r1, r4
    167c:	e3a04000 	mov	r4, #0
    1680:	e2844001 	add	r4, r4, #1
    1684:	e59d3020 	ldr	r3, [sp, #32]
    1688:	e1a00081 	lsl	r0, r1, #1
    168c:	e15b0004 	cmp	fp, r4
    1690:	e2811001 	add	r1, r1, #1
    1694:	e19360b0 	ldrh	r6, [r3, r0]
    1698:	e201101f 	and	r1, r1, #31
    169c:	9a0000b2 	bls	196c <process_plastic_synapses+0x4e0>
    16a0:	e59d3014 	ldr	r3, [sp, #20]
    16a4:	e7930101 	ldr	r0, [r3, r1, lsl #2]
    16a8:	e59d3030 	ldr	r3, [sp, #48]	; 0x30
    16ac:	e1530000 	cmp	r3, r0
    16b0:	3a000009 	bcc	16dc <process_plastic_synapses+0x250>
    16b4:	e1a0c000 	mov	ip, r0
    16b8:	eafffff0 	b	1680 <process_plastic_synapses+0x1f4>
    16bc:	e3a07000 	mov	r7, #0
    16c0:	e1a08007 	mov	r8, r7
    16c4:	e1a03009 	mov	r3, r9
    16c8:	e59db024 	ldr	fp, [sp, #36]	; 0x24
    16cc:	e152000b 	cmp	r2, fp
    16d0:	83e02000 	mvnhi	r2, #0
    16d4:	81a03002 	movhi	r3, r2
    16d8:	eaffffcb 	b	160c <process_plastic_synapses+0x180>
    16dc:	e59d3008 	ldr	r3, [sp, #8]
    16e0:	e59d4010 	ldr	r4, [sp, #16]
    16e4:	e084b00b 	add	fp, r4, fp
    16e8:	e0894005 	add	r4, r9, r5
    16ec:	e59f5324 	ldr	r5, [pc, #804]	; 1a18 <process_plastic_synapses+0x58c>
    16f0:	e59f931c 	ldr	r9, [pc, #796]	; 1a14 <process_plastic_synapses+0x588>
    16f4:	e5955000 	ldr	r5, [r5]
    16f8:	e2444001 	sub	r4, r4, #1
    16fc:	e58d500c 	str	r5, [sp, #12]
    1700:	e5999000 	ldr	r9, [r9]
    1704:	e204407f 	and	r4, r4, #127	; 0x7f
    1708:	e58d9004 	str	r9, [sp, #4]
    170c:	e24bb001 	sub	fp, fp, #1
    1710:	e59d9018 	ldr	r9, [sp, #24]
    1714:	e58d4014 	str	r4, [sp, #20]
    1718:	e59d400c 	ldr	r4, [sp, #12]
    171c:	e20bb01f 	and	fp, fp, #31
    1720:	e58db020 	str	fp, [sp, #32]
    1724:	e084b009 	add	fp, r4, r9
    1728:	e59d4004 	ldr	r4, [sp, #4]
    172c:	e3a05000 	mov	r5, #0
    1730:	e0844009 	add	r4, r4, r9
    1734:	e1a09005 	mov	r9, r5
    1738:	e58d4018 	str	r4, [sp, #24]
    173c:	e58db010 	str	fp, [sp, #16]
    1740:	e3730001 	cmn	r3, #1
    1744:	0a000039 	beq	1830 <process_plastic_synapses+0x3a4>
    1748:	e1520000 	cmp	r2, r0
    174c:	8a00001a 	bhi	17bc <process_plastic_synapses+0x330>
    1750:	e06c4002 	rsb	r4, ip, r2
    1754:	e3d480ff 	bics	r8, r4, #255	; 0xff
    1758:	159f42bc 	ldrne	r4, [pc, #700]	; 1a1c <process_plastic_synapses+0x590>
    175c:	e59fb2bc 	ldr	fp, [pc, #700]	; 1a20 <process_plastic_synapses+0x594>
    1760:	01a04084 	lsleq	r4, r4, #1
    1764:	e19440bb 	ldrh	r4, [r4, fp]
    1768:	e59d8014 	ldr	r8, [sp, #20]
    176c:	e2837c01 	add	r7, r3, #256	; 0x100
    1770:	e1640684 	smulbb	r4, r4, r6
    1774:	e08a7087 	add	r7, sl, r7, lsl #1
    1778:	e1530008 	cmp	r3, r8
    177c:	e1d770b4 	ldrh	r7, [r7, #4]
    1780:	e08555c4 	add	r5, r5, r4, asr #11
    1784:	0a000050 	beq	18cc <process_plastic_synapses+0x440>
    1788:	e2833001 	add	r3, r3, #1
    178c:	e203307f 	and	r3, r3, #127	; 0x7f
    1790:	e08a4103 	add	r4, sl, r3, lsl #2
    1794:	e5944004 	ldr	r4, [r4, #4]
    1798:	e59db01c 	ldr	fp, [sp, #28]
    179c:	e59d8024 	ldr	r8, [sp, #36]	; 0x24
    17a0:	e08b4004 	add	r4, fp, r4
    17a4:	e1540008 	cmp	r4, r8
    17a8:	8a000047 	bhi	18cc <process_plastic_synapses+0x440>
    17ac:	e1540000 	cmp	r4, r0
    17b0:	e1a08002 	mov	r8, r2
    17b4:	e1a02004 	mov	r2, r4
    17b8:	3affffe0 	bcc	1740 <process_plastic_synapses+0x2b4>
    17bc:	e3700001 	cmn	r0, #1
    17c0:	0affffde 	beq	1740 <process_plastic_synapses+0x2b4>
    17c4:	e59db018 	ldr	fp, [sp, #24]
    17c8:	e59dc010 	ldr	ip, [sp, #16]
    17cc:	e59b0000 	ldr	r0, [fp]
    17d0:	e59cc000 	ldr	ip, [ip]
    17d4:	e58dc000 	str	ip, [sp]
    17d8:	e790c101 	ldr	ip, [r0, r1, lsl #2]
    17dc:	e1a0b081 	lsl	fp, r1, #1
    17e0:	e068400c 	rsb	r4, r8, ip
    17e4:	e3d460ff 	bics	r6, r4, #255	; 0xff
    17e8:	e1a0600b 	mov	r6, fp
    17ec:	e59db000 	ldr	fp, [sp]
    17f0:	159f4224 	ldrne	r4, [pc, #548]	; 1a1c <process_plastic_synapses+0x590>
    17f4:	e19b60b6 	ldrh	r6, [fp, r6]
    17f8:	e59db028 	ldr	fp, [sp, #40]	; 0x28
    17fc:	01a04084 	lsleq	r4, r4, #1
    1800:	e19b40b4 	ldrh	r4, [fp, r4]
    1804:	e59db020 	ldr	fp, [sp, #32]
    1808:	e1640784 	smulbb	r4, r4, r7
    180c:	e15b0001 	cmp	fp, r1
    1810:	12811001 	addne	r1, r1, #1
    1814:	1201101f 	andne	r1, r1, #31
    1818:	03e01000 	mvneq	r1, #0
    181c:	17900101 	ldrne	r0, [r0, r1, lsl #2]
    1820:	01a00001 	moveq	r0, r1
    1824:	e3730001 	cmn	r3, #1
    1828:	e08995c4 	add	r9, r9, r4, asr #11
    182c:	1affffc5 	bne	1748 <process_plastic_synapses+0x2bc>
    1830:	e3710001 	cmn	r1, #1
    1834:	1affffc3 	bne	1748 <process_plastic_synapses+0x2bc>
    1838:	e59dc04c 	ldr	ip, [sp, #76]	; 0x4c
    183c:	e59d2050 	ldr	r2, [sp, #80]	; 0x50
    1840:	e009099c 	mul	r9, ip, r9
    1844:	e59d001c 	ldr	r0, [sp, #28]
    1848:	e59d1024 	ldr	r1, [sp, #36]	; 0x24
    184c:	e59d403c 	ldr	r4, [sp, #60]	; 0x3c
    1850:	e59d6044 	ldr	r6, [sp, #68]	; 0x44
    1854:	e0050592 	mul	r5, r2, r5
    1858:	e0803001 	add	r3, r0, r1
    185c:	e0849659 	add	r9, r4, r9, asr r6
    1860:	e59d802c 	ldr	r8, [sp, #44]	; 0x2c
    1864:	e203300f 	and	r3, r3, #15
    1868:	e0492655 	sub	r2, r9, r5, asr r6
    186c:	e1883483 	orr	r3, r8, r3, lsl #9
    1870:	e59d9048 	ldr	r9, [sp, #72]	; 0x48
    1874:	e1a03083 	lsl	r3, r3, #1
    1878:	e19910b3 	ldrh	r1, [r9, r3]
    187c:	e59db054 	ldr	fp, [sp, #84]	; 0x54
    1880:	e0841001 	add	r1, r4, r1
    1884:	e59dc058 	ldr	ip, [sp, #88]	; 0x58
    1888:	e152000b 	cmp	r2, fp
    188c:	b1a0200b 	movlt	r2, fp
    1890:	e59d0038 	ldr	r0, [sp, #56]	; 0x38
    1894:	e18910b3 	strh	r1, [r9, r3]
    1898:	e59d1034 	ldr	r1, [sp, #52]	; 0x34
    189c:	e152000c 	cmp	r2, ip
    18a0:	a1a0200c 	movge	r2, ip
    18a4:	e14120b2 	strh	r2, [r1, #-2]
    18a8:	e2500001 	subs	r0, r0, #1
    18ac:	e2811002 	add	r1, r1, #2
    18b0:	e58d0038 	str	r0, [sp, #56]	; 0x38
    18b4:	e58d1034 	str	r1, [sp, #52]	; 0x34
    18b8:	0a00000b 	beq	18ec <process_plastic_synapses+0x460>
    18bc:	e5da9000 	ldrb	r9, [sl]
    18c0:	e5da5001 	ldrb	r5, [sl, #1]
    18c4:	e59d2034 	ldr	r2, [sp, #52]	; 0x34
    18c8:	eaffff20 	b	1550 <process_plastic_synapses+0xc4>
    18cc:	e1a08002 	mov	r8, r2
    18d0:	e3e02000 	mvn	r2, #0
    18d4:	e1a03002 	mov	r3, r2
    18d8:	eaffffb7 	b	17bc <process_plastic_synapses+0x330>
    18dc:	e3a06000 	mov	r6, #0
    18e0:	e1a01004 	mov	r1, r4
    18e4:	e1a0c006 	mov	ip, r6
    18e8:	eaffff7d 	b	16e4 <process_plastic_synapses+0x258>
    18ec:	e5da2001 	ldrb	r2, [sl, #1]
    18f0:	e5da3000 	ldrb	r3, [sl]
    18f4:	e1a04002 	mov	r4, r2
    18f8:	e59d5024 	ldr	r5, [sp, #36]	; 0x24
    18fc:	e59d6030 	ldr	r6, [sp, #48]	; 0x30
    1900:	e59d9028 	ldr	r9, [sp, #40]	; 0x28
    1904:	e0661005 	rsb	r1, r6, r5
    1908:	e3d180ff 	bics	r8, r1, #255	; 0xff
    190c:	159f1108 	ldrne	r1, [pc, #264]	; 1a1c <process_plastic_synapses+0x590>
    1910:	01a01081 	lsleq	r1, r1, #1
    1914:	e199c0f1 	ldrsh	ip, [r9, r1]
    1918:	e59db064 	ldr	fp, [sp, #100]	; 0x64
    191c:	e0841003 	add	r1, r4, r3
    1920:	e00c0c9b 	mul	ip, fp, ip
    1924:	e354007f 	cmp	r4, #127	; 0x7f
    1928:	e201107f 	and	r1, r1, #127	; 0x7f
    192c:	82833001 	addhi	r3, r3, #1
    1930:	e2810c01 	add	r0, r1, #256	; 0x100
    1934:	e1a0c5cc 	asr	ip, ip, #11
    1938:	e28ccb02 	add	ip, ip, #2048	; 0x800
    193c:	e08a0080 	add	r0, sl, r0, lsl #1
    1940:	e08a1101 	add	r1, sl, r1, lsl #2
    1944:	e59d4024 	ldr	r4, [sp, #36]	; 0x24
    1948:	92822001 	addls	r2, r2, #1
    194c:	8203307f 	andhi	r3, r3, #127	; 0x7f
    1950:	e5814004 	str	r4, [r1, #4]
    1954:	e1c0c0b4 	strh	ip, [r0, #4]
    1958:	95ca2001 	strbls	r2, [sl, #1]
    195c:	85ca3000 	strbhi	r3, [sl]
    1960:	e28dd068 	add	sp, sp, #104	; 0x68
    1964:	e8bd0ff0 	pop	{r4, r5, r6, r7, r8, r9, sl, fp}
    1968:	e12fff1e 	bx	lr
    196c:	e3e01000 	mvn	r1, #0
    1970:	e59d3008 	ldr	r3, [sp, #8]
    1974:	e1a00001 	mov	r0, r1
    1978:	e59d4010 	ldr	r4, [sp, #16]
    197c:	eaffff58 	b	16e4 <process_plastic_synapses+0x258>
    1980:	e5d03000 	ldrb	r3, [r0]
    1984:	e0832004 	add	r2, r3, r4
    1988:	e2422001 	sub	r2, r2, #1
    198c:	e202207f 	and	r2, r2, #127	; 0x7f
    1990:	e2821c01 	add	r1, r2, #256	; 0x100
    1994:	e0801081 	add	r1, r0, r1, lsl #1
    1998:	e0802102 	add	r2, r0, r2, lsl #2
    199c:	e59d0038 	ldr	r0, [sp, #56]	; 0x38
    19a0:	e1d110f4 	ldrsh	r1, [r1, #4]
    19a4:	e5922004 	ldr	r2, [r2, #4]
    19a8:	e3500000 	cmp	r0, #0
    19ac:	e58d1064 	str	r1, [sp, #100]	; 0x64
    19b0:	e58d2030 	str	r2, [sp, #48]	; 0x30
    19b4:	e1a09003 	mov	r9, r3
    19b8:	1afffec7 	bne	14dc <process_plastic_synapses+0x50>
    19bc:	e59f1040 	ldr	r1, [pc, #64]	; 1a04 <process_plastic_synapses+0x578>
    19c0:	e1a02004 	mov	r2, r4
    19c4:	e5911000 	ldr	r1, [r1]
    19c8:	e58d1024 	str	r1, [sp, #36]	; 0x24
    19cc:	e59f103c 	ldr	r1, [pc, #60]	; 1a10 <process_plastic_synapses+0x584>
    19d0:	e58d1028 	str	r1, [sp, #40]	; 0x28
    19d4:	eaffffc7 	b	18f8 <process_plastic_synapses+0x46c>
    19d8:	e59d402c 	ldr	r4, [sp, #44]	; 0x2c
    19dc:	e3e01000 	mvn	r1, #0
    19e0:	e1a04104 	lsl	r4, r4, #2
    19e4:	e58d4018 	str	r4, [sp, #24]
    19e8:	e1a00001 	mov	r0, r1
    19ec:	e1a0600b 	mov	r6, fp
    19f0:	e1a0c00b 	mov	ip, fp
    19f4:	e59d4010 	ldr	r4, [sp, #16]
    19f8:	eaffff39 	b	16e4 <process_plastic_synapses+0x258>
    19fc:	00405550 	.word	0x00405550
    1a00:	0040553c 	.word	0x0040553c
    1a04:	00405540 	.word	0x00405540
    1a08:	0040498c 	.word	0x0040498c
    1a0c:	00404990 	.word	0x00404990
    1a10:	00405760 	.word	0x00405760
    1a14:	00404994 	.word	0x00404994
    1a18:	00404998 	.word	0x00404998
    1a1c:	000001fe 	.word	0x000001fe
    1a20:	00405560 	.word	0x00405560

00001a24 <plasticity_region_filled>:
    1a24:	e92d4038 	push	{r3, r4, r5, lr}
    1a28:	e59f3038 	ldr	r3, [pc, #56]	; 1a68 <plasticity_region_filled+0x44>
    1a2c:	e9904010 	ldmib	r0, {r4, lr}
    1a30:	e5905000 	ldr	r5, [r0]
    1a34:	e590c00c 	ldr	ip, [r0, #12]
    1a38:	e3a01c01 	mov	r1, #256	; 0x100
    1a3c:	e59f2028 	ldr	r2, [pc, #40]	; 1a6c <plasticity_region_filled+0x48>
    1a40:	e2800010 	add	r0, r0, #16
    1a44:	e5835000 	str	r5, [r3]
    1a48:	e9834010 	stmib	r3, {r4, lr}
    1a4c:	e583c00c 	str	ip, [r3, #12]
    1a50:	eb000030 	bl	1b18 <copy_int16_lut>
    1a54:	e3a01c01 	mov	r1, #256	; 0x100
    1a58:	e59f2010 	ldr	r2, [pc, #16]	; 1a70 <plasticity_region_filled+0x4c>
    1a5c:	eb00002d 	bl	1b18 <copy_int16_lut>
    1a60:	e3a00001 	mov	r0, #1
    1a64:	e8bd8038 	pop	{r3, r4, r5, pc}
    1a68:	00405550 	.word	0x00405550
    1a6c:	00405760 	.word	0x00405760
    1a70:	00405560 	.word	0x00405560

00001a74 <initialise_post_synaptic_event_buffers>:
    1a74:	e92d41f0 	push	{r4, r5, r6, r7, r8, lr}
    1a78:	e59f8090 	ldr	r8, [pc, #144]	; 1b10 <initialise_post_synaptic_event_buffers+0x9c>
    1a7c:	e59f5090 	ldr	r5, [pc, #144]	; 1b14 <initialise_post_synaptic_event_buffers+0xa0>
    1a80:	e5980000 	ldr	r0, [r8]
    1a84:	fa000720 	blx	370c <spin1_malloc>
    1a88:	e5850000 	str	r0, [r5]
    1a8c:	e5980000 	ldr	r0, [r8]
    1a90:	fa00071d 	blx	370c <spin1_malloc>
    1a94:	e5983000 	ldr	r3, [r8]
    1a98:	e5850004 	str	r0, [r5, #4]
    1a9c:	e1a00103 	lsl	r0, r3, #2
    1aa0:	fa000719 	blx	370c <spin1_malloc>
    1aa4:	e5983000 	ldr	r3, [r8]
    1aa8:	e5850008 	str	r0, [r5, #8]
    1aac:	e1a00103 	lsl	r0, r3, #2
    1ab0:	fa000715 	blx	370c <spin1_malloc>
    1ab4:	e5983000 	ldr	r3, [r8]
    1ab8:	e3530000 	cmp	r3, #0
    1abc:	e585000c 	str	r0, [r5, #12]
    1ac0:	08bd81f0 	popeq	{r4, r5, r6, r7, r8, pc}
    1ac4:	e3a04000 	mov	r4, #0
    1ac8:	e1a06004 	mov	r6, r4
    1acc:	e5953000 	ldr	r3, [r5]
    1ad0:	e3a00080 	mov	r0, #128	; 0x80
    1ad4:	e7c36004 	strb	r6, [r3, r4]
    1ad8:	e5953004 	ldr	r3, [r5, #4]
    1adc:	e7c36004 	strb	r6, [r3, r4]
    1ae0:	e5957008 	ldr	r7, [r5, #8]
    1ae4:	fa000708 	blx	370c <spin1_malloc>
    1ae8:	e7870104 	str	r0, [r7, r4, lsl #2]
    1aec:	e3a00040 	mov	r0, #64	; 0x40
    1af0:	e595700c 	ldr	r7, [r5, #12]
    1af4:	fa000704 	blx	370c <spin1_malloc>
    1af8:	e5983000 	ldr	r3, [r8]
    1afc:	e7870104 	str	r0, [r7, r4, lsl #2]
    1b00:	e2844001 	add	r4, r4, #1
    1b04:	e1530004 	cmp	r3, r4
    1b08:	8affffef 	bhi	1acc <initialise_post_synaptic_event_buffers+0x58>
    1b0c:	e8bd81f0 	pop	{r4, r5, r6, r7, r8, pc}
    1b10:	00405538 	.word	0x00405538
    1b14:	0040498c 	.word	0x0040498c

00001b18 <copy_int16_lut>:
    1b18:	e1a010a1 	lsr	r1, r1, #1
    1b1c:	e92d4038 	push	{r3, r4, r5, lr}
    1b20:	e1a04101 	lsl	r4, r1, #2
    1b24:	e1a05000 	mov	r5, r0
    1b28:	e1a01000 	mov	r1, r0
    1b2c:	e1a00002 	mov	r0, r2
    1b30:	e1a02004 	mov	r2, r4
    1b34:	eb000856 	bl	3c94 <memcpy>
    1b38:	e0850004 	add	r0, r5, r4
    1b3c:	e8bd8038 	pop	{r3, r4, r5, pc}

00001b40 <initialise_dma_buffers>:
    1b40:	e59f300c 	ldr	r3, [pc, #12]	; 1b54 <initialise_dma_buffers+0x14>
    1b44:	e3a02000 	mov	r2, #0
    1b48:	e5832000 	str	r2, [r3]
    1b4c:	e5832004 	str	r2, [r3, #4]
    1b50:	e12fff1e 	bx	lr
    1b54:	0040499c 	.word	0x0040499c

00001b58 <timer_callback>:
    1b58:	e59f311c 	ldr	r3, [pc, #284]	; 1c7c <timer_callback+0x124>
    1b5c:	e59f211c 	ldr	r2, [pc, #284]	; 1c80 <timer_callback+0x128>
    1b60:	e5931000 	ldr	r1, [r3]
    1b64:	e5922000 	ldr	r2, [r2]
    1b68:	e2811001 	add	r1, r1, #1
    1b6c:	e3720001 	cmn	r2, #1
    1b70:	e92d4070 	push	{r4, r5, r6, lr}
    1b74:	e5831000 	str	r1, [r3]
    1b78:	0a000001 	beq	1b84 <timer_callback+0x2c>
    1b7c:	e1510002 	cmp	r1, r2
    1b80:	2a000033 	bcs	1c54 <timer_callback+0xfc>
    1b84:	ebfff987 	bl	1a8 <cpu_irq_disable>
    1b88:	e59f60f4 	ldr	r6, [pc, #244]	; 1c84 <timer_callback+0x12c>
    1b8c:	e1a04000 	mov	r4, r0
    1b90:	ebfffbf0 	bl	b58 <ring_buffer_transfer>
    1b94:	e1a00004 	mov	r0, r4
    1b98:	ebfff98e 	bl	1d8 <cpu_int_restore>
    1b9c:	ebfffce9 	bl	f48 <print_currents>
    1ba0:	e5963000 	ldr	r3, [r6]
    1ba4:	e3530000 	cmp	r3, #0
    1ba8:	13a04000 	movne	r4, #0
    1bac:	0a000005 	beq	1bc8 <timer_callback+0x70>
    1bb0:	e1a00004 	mov	r0, r4
    1bb4:	ebfffce4 	bl	f4c <neuron>
    1bb8:	e5963000 	ldr	r3, [r6]
    1bbc:	e2844001 	add	r4, r4, #1
    1bc0:	e1530004 	cmp	r3, r4
    1bc4:	8afffff9 	bhi	1bb0 <timer_callback+0x58>
    1bc8:	ebfffa92 	bl	618 <record_out_spikes>
    1bcc:	ebfffab5 	bl	6a8 <nonempty_out_spikes>
    1bd0:	e3500000 	cmp	r0, #0
    1bd4:	08bd8070 	popeq	{r4, r5, r6, pc}
    1bd8:	ebfffad5 	bl	734 <print_out_spikes>
    1bdc:	e5963000 	ldr	r3, [r6]
    1be0:	e3530000 	cmp	r3, #0
    1be4:	159f509c 	ldrne	r5, [pc, #156]	; 1c88 <timer_callback+0x130>
    1be8:	13a04000 	movne	r4, #0
    1bec:	1a000004 	bne	1c04 <timer_callback+0xac>
    1bf0:	ea000015 	b	1c4c <timer_callback+0xf4>
    1bf4:	e5963000 	ldr	r3, [r6]
    1bf8:	e2844001 	add	r4, r4, #1
    1bfc:	e1530004 	cmp	r3, r4
    1c00:	9a000011 	bls	1c4c <timer_callback+0xf4>
    1c04:	e1a00004 	mov	r0, r4
    1c08:	ebfffabe 	bl	708 <out_spike_test>
    1c0c:	e3500000 	cmp	r0, #0
    1c10:	1a000001 	bne	1c1c <timer_callback+0xc4>
    1c14:	eafffff6 	b	1bf4 <timer_callback+0x9c>
    1c18:	fa00064e 	blx	3558 <spin1_delay_us>
    1c1c:	e5950000 	ldr	r0, [r5]
    1c20:	e3a01000 	mov	r1, #0
    1c24:	e1840000 	orr	r0, r4, r0
    1c28:	e1a02001 	mov	r2, r1
    1c2c:	fa000677 	blx	3610 <spin1_send_mc_packet>
    1c30:	e3500000 	cmp	r0, #0
    1c34:	e3a00001 	mov	r0, #1
    1c38:	0afffff6 	beq	1c18 <timer_callback+0xc0>
    1c3c:	e5963000 	ldr	r3, [r6]
    1c40:	e2844001 	add	r4, r4, #1
    1c44:	e1530004 	cmp	r3, r4
    1c48:	8affffed 	bhi	1c04 <timer_callback+0xac>
    1c4c:	e8bd4070 	pop	{r4, r5, r6, lr}
    1c50:	eafffa52 	b	5a0 <reset_out_spikes>
    1c54:	ebfffb4f 	bl	998 <recording_finalise>
    1c58:	e3a00000 	mov	r0, #0
    1c5c:	fa0005a8 	blx	3304 <spin1_exit>
    1c60:	ebfffa46 	bl	580 <buffer_overflows>
    1c64:	e2502000 	subs	r2, r0, #0
    1c68:	08bd8070 	popeq	{r4, r5, r6, pc}
    1c6c:	e3a00000 	mov	r0, #0
    1c70:	e59f1014 	ldr	r1, [pc, #20]	; 1c8c <timer_callback+0x134>
    1c74:	e8bd4070 	pop	{r4, r5, r6, lr}
    1c78:	ea00087e 	b	3e78 <__io_printf_from_arm>
    1c7c:	00405540 	.word	0x00405540
    1c80:	004051cc 	.word	0x004051cc
    1c84:	00405538 	.word	0x00405538
    1c88:	00405544 	.word	0x00405544
    1c8c:	00003fa4 	.word	0x00003fa4

00001c90 <set_up_and_request_synaptic_dma_read>:
    1c90:	e92d4010 	push	{r4, lr}
    1c94:	e24dd018 	sub	sp, sp, #24
    1c98:	e28d000c 	add	r0, sp, #12
    1c9c:	ebfffa03 	bl	4b0 <next_spike>
    1ca0:	e28d1014 	add	r1, sp, #20
    1ca4:	e2503000 	subs	r3, r0, #0
    1ca8:	e28d0010 	add	r0, sp, #16
    1cac:	0a000016 	beq	1d0c <set_up_and_request_synaptic_dma_read+0x7c>
    1cb0:	e59d200c 	ldr	r2, [sp, #12]
    1cb4:	ebfffc08 	bl	cdc <synaptic_row>
    1cb8:	e3500000 	cmp	r0, #0
    1cbc:	0afffff5 	beq	1c98 <set_up_and_request_synaptic_dma_read+0x8>
    1cc0:	e59f4054 	ldr	r4, [pc, #84]	; 1d1c <set_up_and_request_synaptic_dma_read+0x8c>
    1cc4:	e59f3054 	ldr	r3, [pc, #84]	; 1d20 <set_up_and_request_synaptic_dma_read+0x90>
    1cc8:	e5942000 	ldr	r2, [r4]
    1ccc:	e59d1010 	ldr	r1, [sp, #16]
    1cd0:	e7932102 	ldr	r2, [r3, r2, lsl #2]
    1cd4:	e3a00000 	mov	r0, #0
    1cd8:	e5821000 	str	r1, [r2]
    1cdc:	e59d3014 	ldr	r3, [sp, #20]
    1ce0:	e59dc00c 	ldr	ip, [sp, #12]
    1ce4:	e582c004 	str	ip, [r2, #4]
    1ce8:	e58d3000 	str	r3, [sp]
    1cec:	e2822008 	add	r2, r2, #8
    1cf0:	e1a03000 	mov	r3, r0
    1cf4:	fa000619 	blx	3560 <spin1_dma_transfer>
    1cf8:	e5943000 	ldr	r3, [r4]
    1cfc:	e2233001 	eor	r3, r3, #1
    1d00:	e5843000 	str	r3, [r4]
    1d04:	e28dd018 	add	sp, sp, #24
    1d08:	e8bd8010 	pop	{r4, pc}
    1d0c:	e59f2008 	ldr	r2, [pc, #8]	; 1d1c <set_up_and_request_synaptic_dma_read+0x8c>
    1d10:	e5823004 	str	r3, [r2, #4]
    1d14:	e28dd018 	add	sp, sp, #24
    1d18:	e8bd8010 	pop	{r4, pc}
    1d1c:	0040499c 	.word	0x0040499c
    1d20:	00003f9c 	.word	0x00003f9c

00001d24 <set_up_and_request_synaptic_dma_write>:
    1d24:	e59f2040 	ldr	r2, [pc, #64]	; 1d6c <set_up_and_request_synaptic_dma_write+0x48>
    1d28:	e3a00001 	mov	r0, #1
    1d2c:	e5922000 	ldr	r2, [r2]
    1d30:	e59f3038 	ldr	r3, [pc, #56]	; 1d70 <set_up_and_request_synaptic_dma_write+0x4c>
    1d34:	e0222000 	eor	r2, r2, r0
    1d38:	e7931102 	ldr	r1, [r3, r2, lsl #2]
    1d3c:	e52de004 	push	{lr}		; (str lr, [sp, #-4]!)
    1d40:	e591c008 	ldr	ip, [r1, #8]
    1d44:	e1a02001 	mov	r2, r1
    1d48:	e492100c 	ldr	r1, [r2], #12
    1d4c:	e24dd00c 	sub	sp, sp, #12
    1d50:	e1a0c10c 	lsl	ip, ip, #2
    1d54:	e1a03000 	mov	r3, r0
    1d58:	e58dc000 	str	ip, [sp]
    1d5c:	e2811004 	add	r1, r1, #4
    1d60:	fa0005fe 	blx	3560 <spin1_dma_transfer>
    1d64:	e28dd00c 	add	sp, sp, #12
    1d68:	e49df004 	pop	{pc}		; (ldr pc, [sp], #4)
    1d6c:	0040499c 	.word	0x0040499c
    1d70:	00003f9c 	.word	0x00003f9c

00001d74 <dma_callback>:
    1d74:	e2512000 	subs	r2, r1, #0
    1d78:	e92d40f0 	push	{r4, r5, r6, r7, lr}
    1d7c:	e24dd01c 	sub	sp, sp, #28
    1d80:	1a00002f 	bne	1e44 <dma_callback+0xd0>
    1d84:	e59f40e0 	ldr	r4, [pc, #224]	; 1e6c <dma_callback+0xf8>
    1d88:	e59f60e0 	ldr	r6, [pc, #224]	; 1e70 <dma_callback+0xfc>
    1d8c:	e5943000 	ldr	r3, [r4]
    1d90:	e2233001 	eor	r3, r3, #1
    1d94:	e7963103 	ldr	r3, [r6, r3, lsl #2]
    1d98:	e5937004 	ldr	r7, [r3, #4]
    1d9c:	e1a00007 	mov	r0, r7
    1da0:	ebfff9de 	bl	520 <get_next_spike_if_equals>
    1da4:	e5943000 	ldr	r3, [r4]
    1da8:	e2233001 	eor	r3, r3, #1
    1dac:	e1a05000 	mov	r5, r0
    1db0:	e7960103 	ldr	r0, [r6, r3, lsl #2]
    1db4:	ebfffc62 	bl	f44 <print_synaptic_row>
    1db8:	e5943000 	ldr	r3, [r4]
    1dbc:	e2251001 	eor	r1, r5, #1
    1dc0:	e2233001 	eor	r3, r3, #1
    1dc4:	e20110ff 	and	r1, r1, #255	; 0xff
    1dc8:	e7960103 	ldr	r0, [r6, r3, lsl #2]
    1dcc:	ebfffbe2 	bl	d5c <process_synaptic_row>
    1dd0:	e3550000 	cmp	r5, #0
    1dd4:	1afffff0 	bne	1d9c <dma_callback+0x28>
    1dd8:	e28d000c 	add	r0, sp, #12
    1ddc:	ebfff9b3 	bl	4b0 <next_spike>
    1de0:	e28d1014 	add	r1, sp, #20
    1de4:	e2503000 	subs	r3, r0, #0
    1de8:	e28d0010 	add	r0, sp, #16
    1dec:	0a00001b 	beq	1e60 <dma_callback+0xec>
    1df0:	e59d200c 	ldr	r2, [sp, #12]
    1df4:	ebfffbb8 	bl	cdc <synaptic_row>
    1df8:	e3500000 	cmp	r0, #0
    1dfc:	0afffff5 	beq	1dd8 <dma_callback+0x64>
    1e00:	e5943000 	ldr	r3, [r4]
    1e04:	e59d1010 	ldr	r1, [sp, #16]
    1e08:	e7962103 	ldr	r2, [r6, r3, lsl #2]
    1e0c:	e3a00000 	mov	r0, #0
    1e10:	e5821000 	str	r1, [r2]
    1e14:	e59d3014 	ldr	r3, [sp, #20]
    1e18:	e59dc00c 	ldr	ip, [sp, #12]
    1e1c:	e582c004 	str	ip, [r2, #4]
    1e20:	e58d3000 	str	r3, [sp]
    1e24:	e2822008 	add	r2, r2, #8
    1e28:	e1a03000 	mov	r3, r0
    1e2c:	fa0005cb 	blx	3560 <spin1_dma_transfer>
    1e30:	e5943000 	ldr	r3, [r4]
    1e34:	e2233001 	eor	r3, r3, #1
    1e38:	e5843000 	str	r3, [r4]
    1e3c:	e28dd01c 	add	sp, sp, #28
    1e40:	e8bd80f0 	pop	{r4, r5, r6, r7, pc}
    1e44:	e3520001 	cmp	r2, #1
    1e48:	0afffffb 	beq	1e3c <dma_callback+0xc8>
    1e4c:	e3a00002 	mov	r0, #2
    1e50:	e59f101c 	ldr	r1, [pc, #28]	; 1e74 <dma_callback+0x100>
    1e54:	fa0003e6 	blx	2df4 <io_printf>
    1e58:	e28dd01c 	add	sp, sp, #28
    1e5c:	e8bd80f0 	pop	{r4, r5, r6, r7, pc}
    1e60:	e5843004 	str	r3, [r4, #4]
    1e64:	e28dd01c 	add	sp, sp, #28
    1e68:	e8bd80f0 	pop	{r4, r5, r6, r7, pc}
    1e6c:	0040499c 	.word	0x0040499c
    1e70:	00003f9c 	.word	0x00003f9c
    1e74:	00003fcc 	.word	0x00003fcc

00001e78 <incoming_spike_callback>:
    1e78:	e92d4010 	push	{r4, lr}
    1e7c:	ebfff972 	bl	44c <add_spike>
    1e80:	e3500000 	cmp	r0, #0
    1e84:	08bd8010 	popeq	{r4, pc}
    1e88:	e59f4030 	ldr	r4, [pc, #48]	; 1ec0 <incoming_spike_callback+0x48>
    1e8c:	e5940004 	ldr	r0, [r4, #4]
    1e90:	e3500000 	cmp	r0, #0
    1e94:	18bd8010 	popne	{r4, pc}
    1e98:	e1a01000 	mov	r1, r0
    1e9c:	fa000637 	blx	3780 <spin1_trigger_user_event>
    1ea0:	e3500000 	cmp	r0, #0
    1ea4:	13a03001 	movne	r3, #1
    1ea8:	15843004 	strne	r3, [r4, #4]
    1eac:	18bd8010 	popne	{r4, pc}
    1eb0:	e3a00002 	mov	r0, #2
    1eb4:	e59f1008 	ldr	r1, [pc, #8]	; 1ec4 <incoming_spike_callback+0x4c>
    1eb8:	e8bd4010 	pop	{r4, lr}
    1ebc:	ea0007ed 	b	3e78 <__io_printf_from_arm>
    1ec0:	0040499c 	.word	0x0040499c
    1ec4:	00003fec 	.word	0x00003fec

00001ec8 <feed_dma_pipeline>:
    1ec8:	e92d4010 	push	{r4, lr}
    1ecc:	e24dd018 	sub	sp, sp, #24
    1ed0:	e28d000c 	add	r0, sp, #12
    1ed4:	ebfff975 	bl	4b0 <next_spike>
    1ed8:	e28d1014 	add	r1, sp, #20
    1edc:	e2503000 	subs	r3, r0, #0
    1ee0:	e28d0010 	add	r0, sp, #16
    1ee4:	0a000016 	beq	1f44 <feed_dma_pipeline+0x7c>
    1ee8:	e59d200c 	ldr	r2, [sp, #12]
    1eec:	ebfffb7a 	bl	cdc <synaptic_row>
    1ef0:	e3500000 	cmp	r0, #0
    1ef4:	0afffff5 	beq	1ed0 <feed_dma_pipeline+0x8>
    1ef8:	e59f4054 	ldr	r4, [pc, #84]	; 1f54 <feed_dma_pipeline+0x8c>
    1efc:	e59f3054 	ldr	r3, [pc, #84]	; 1f58 <feed_dma_pipeline+0x90>
    1f00:	e5942000 	ldr	r2, [r4]
    1f04:	e59d1010 	ldr	r1, [sp, #16]
    1f08:	e7932102 	ldr	r2, [r3, r2, lsl #2]
    1f0c:	e3a00000 	mov	r0, #0
    1f10:	e5821000 	str	r1, [r2]
    1f14:	e59d3014 	ldr	r3, [sp, #20]
    1f18:	e59dc00c 	ldr	ip, [sp, #12]
    1f1c:	e582c004 	str	ip, [r2, #4]
    1f20:	e58d3000 	str	r3, [sp]
    1f24:	e2822008 	add	r2, r2, #8
    1f28:	e1a03000 	mov	r3, r0
    1f2c:	fa00058b 	blx	3560 <spin1_dma_transfer>
    1f30:	e5943000 	ldr	r3, [r4]
    1f34:	e2233001 	eor	r3, r3, #1
    1f38:	e5843000 	str	r3, [r4]
    1f3c:	e28dd018 	add	sp, sp, #24
    1f40:	e8bd8010 	pop	{r4, pc}
    1f44:	e59f2008 	ldr	r2, [pc, #8]	; 1f54 <feed_dma_pipeline+0x8c>
    1f48:	e5823004 	str	r3, [r2, #4]
    1f4c:	e28dd018 	add	sp, sp, #24
    1f50:	e8bd8010 	pop	{r4, pc}
    1f54:	0040499c 	.word	0x0040499c
    1f58:	00003f9c 	.word	0x00003f9c

00001f5c <system_load_sram>:
    1f5c:	e92d4038 	push	{r3, r4, r5, lr}
    1f60:	fa0005e6 	blx	3700 <spin1_get_core_id>
    1f64:	e59f4020 	ldr	r4, [pc, #32]	; 1f8c <system_load_sram+0x30>
    1f68:	e0840380 	add	r0, r4, r0, lsl #7
    1f6c:	e5905070 	ldr	r5, [r0, #112]	; 0x70
    1f70:	fa0005e2 	blx	3700 <spin1_get_core_id>
    1f74:	e59f3014 	ldr	r3, [pc, #20]	; 1f90 <system_load_sram+0x34>
    1f78:	e0840380 	add	r0, r4, r0, lsl #7
    1f7c:	e5902074 	ldr	r2, [r0, #116]	; 0x74
    1f80:	e5832000 	str	r2, [r3]
    1f84:	e1a00005 	mov	r0, r5
    1f88:	e8bd8038 	pop	{r3, r4, r5, pc}
    1f8c:	e5007000 	.word	0xe5007000
    1f90:	004051cc 	.word	0x004051cc

00001f94 <system_lead_app_configured>:
    1f94:	e92d4010 	push	{r4, lr}
    1f98:	e59f4038 	ldr	r4, [pc, #56]	; 1fd8 <system_lead_app_configured+0x44>
    1f9c:	e3a01000 	mov	r1, #0
    1fa0:	e1d400b2 	ldrh	r0, [r4, #2]
    1fa4:	fa0002be 	blx	2aa4 <rtr_alloc_id>
    1fa8:	e59f302c 	ldr	r3, [pc, #44]	; 1fdc <system_lead_app_configured+0x48>
    1fac:	e3500000 	cmp	r0, #0
    1fb0:	e1a02000 	mov	r2, r0
    1fb4:	e5830004 	str	r0, [r3, #4]
    1fb8:	1a000000 	bne	1fc0 <system_lead_app_configured+0x2c>
    1fbc:	e8bd8010 	pop	{r4, pc}
    1fc0:	e1a00004 	mov	r0, r4
    1fc4:	e3a01000 	mov	r1, #0
    1fc8:	fa00025d 	blx	2944 <rtr_mc_load>
    1fcc:	e2900000 	adds	r0, r0, #0
    1fd0:	13a00001 	movne	r0, #1
    1fd4:	e8bd8010 	pop	{r4, pc}
    1fd8:	77780000 	.word	0x77780000
    1fdc:	004051cc 	.word	0x004051cc

00001fe0 <system_runs_to_completion>:
    1fe0:	e92d4008 	push	{r3, lr}
    1fe4:	e3a00001 	mov	r0, #1
    1fe8:	fa00051e 	blx	3468 <spin1_start>
    1fec:	e59f301c 	ldr	r3, [pc, #28]	; 2010 <P2P_TABLE_SIZE+0x10>
    1ff0:	e5d33000 	ldrb	r3, [r3]
    1ff4:	e3530000 	cmp	r3, #0
    1ff8:	0a000002 	beq	2008 <P2P_TABLE_SIZE+0x8>
    1ffc:	fa000064 	blx	2194 <sark_app_id>
    2000:	e3a01001 	mov	r1, #1
    2004:	fa0002eb 	blx	2bb8 <rtr_free_id>
    2008:	e3a00001 	mov	r0, #1
    200c:	e8bd8008 	pop	{r3, pc}
    2010:	00405a6c 	.word	0x00405a6c

00002014 <system_data_extracted>:
    2014:	e3a00001 	mov	r0, #1
    2018:	e12fff1e 	bx	lr

0000201c <system_load_dtcm>:
    201c:	e92d4010 	push	{r4, lr}
    2020:	e24dd018 	sub	sp, sp, #24
    2024:	ebffffcc 	bl	1f5c <system_load_sram>
    2028:	e28d1008 	add	r1, sp, #8
    202c:	e3a02000 	mov	r2, #0
    2030:	e1a04000 	mov	r4, r0
    2034:	ebfff9bf 	bl	738 <system_header_filled>
    2038:	e3500000 	cmp	r0, #0
    203c:	1a000002 	bne	204c <system_load_dtcm+0x30>
    2040:	e3a00000 	mov	r0, #0
    2044:	e28dd018 	add	sp, sp, #24
    2048:	e8bd8010 	pop	{r4, pc}
    204c:	e1a01004 	mov	r1, r4
    2050:	e3a00001 	mov	r0, #1
    2054:	ebfffa15 	bl	8b0 <region_start>
    2058:	e28d3014 	add	r3, sp, #20
    205c:	e58d3000 	str	r3, [sp]
    2060:	e3a01000 	mov	r1, #0
    2064:	e28d200c 	add	r2, sp, #12
    2068:	e28d3010 	add	r3, sp, #16
    206c:	ebfff9be 	bl	76c <system_data_filled>
    2070:	e3500000 	cmp	r0, #0
    2074:	0afffff1 	beq	2040 <system_load_dtcm+0x24>
    2078:	e1a01004 	mov	r1, r4
    207c:	e3a00002 	mov	r0, #2
    2080:	ebfffa0a 	bl	8b0 <region_start>
    2084:	e3a01000 	mov	r1, #0
    2088:	ebfffbf0 	bl	1050 <neural_data_filled>
    208c:	e3500000 	cmp	r0, #0
    2090:	0affffea 	beq	2040 <system_load_dtcm+0x24>
    2094:	e1a01004 	mov	r1, r4
    2098:	e3a00003 	mov	r0, #3
    209c:	ebfffa03 	bl	8b0 <region_start>
    20a0:	e3a01000 	mov	r1, #0
    20a4:	ebfffb8a 	bl	ed4 <synaptic_current_data_filled>
    20a8:	e3500000 	cmp	r0, #0
    20ac:	0affffe3 	beq	2040 <system_load_dtcm+0x24>
    20b0:	e1a01004 	mov	r1, r4
    20b4:	e3a00004 	mov	r0, #4
    20b8:	ebfff9fc 	bl	8b0 <region_start>
    20bc:	e3a01000 	mov	r1, #0
    20c0:	ebfffb57 	bl	e24 <row_size_table_filled>
    20c4:	e3500000 	cmp	r0, #0
    20c8:	0affffdc 	beq	2040 <system_load_dtcm+0x24>
    20cc:	e1a01004 	mov	r1, r4
    20d0:	e3a00005 	mov	r0, #5
    20d4:	ebfff9f5 	bl	8b0 <region_start>
    20d8:	e3a01000 	mov	r1, #0
    20dc:	ebfffb71 	bl	ea8 <master_population_table_filled>
    20e0:	e3500000 	cmp	r0, #0
    20e4:	0affffd5 	beq	2040 <system_load_dtcm+0x24>
    20e8:	e1a01004 	mov	r1, r4
    20ec:	e3a00006 	mov	r0, #6
    20f0:	ebfff9ee 	bl	8b0 <region_start>
    20f4:	e3a01000 	mov	r1, #0
    20f8:	ebfffb70 	bl	ec0 <synaptic_data_filled>
    20fc:	e3500000 	cmp	r0, #0
    2100:	0affffce 	beq	2040 <system_load_dtcm+0x24>
    2104:	e1a01004 	mov	r1, r4
    2108:	e3a00007 	mov	r0, #7
    210c:	ebfff9e7 	bl	8b0 <region_start>
    2110:	e3a01000 	mov	r1, #0
    2114:	ebfffe42 	bl	1a24 <plasticity_region_filled>
    2118:	e3500000 	cmp	r0, #0
    211c:	0affffc7 	beq	2040 <system_load_dtcm+0x24>
    2120:	e1a01004 	mov	r1, r4
    2124:	e3a00008 	mov	r0, #8
    2128:	ebfff9e0 	bl	8b0 <region_start>
    212c:	e3a01000 	mov	r1, #0
    2130:	e1a02001 	mov	r2, r1
    2134:	e59d300c 	ldr	r3, [sp, #12]
    2138:	ebfff9e5 	bl	8d4 <recording_data_filled>
    213c:	e3500000 	cmp	r0, #0
    2140:	0affffbe 	beq	2040 <system_load_dtcm+0x24>
    2144:	e1a01004 	mov	r1, r4
    2148:	e3a00009 	mov	r0, #9
    214c:	ebfff9d7 	bl	8b0 <region_start>
    2150:	e3a01000 	mov	r1, #0
    2154:	e3a02001 	mov	r2, #1
    2158:	e59d3010 	ldr	r3, [sp, #16]
    215c:	ebfff9dc 	bl	8d4 <recording_data_filled>
    2160:	e3500000 	cmp	r0, #0
    2164:	0affffb5 	beq	2040 <system_load_dtcm+0x24>
    2168:	e1a01004 	mov	r1, r4
    216c:	e3a0000a 	mov	r0, #10
    2170:	ebfff9ce 	bl	8b0 <region_start>
    2174:	e3a01000 	mov	r1, #0
    2178:	e3a02002 	mov	r2, #2
    217c:	e59d3014 	ldr	r3, [sp, #20]
    2180:	ebfff9d3 	bl	8d4 <recording_data_filled>
    2184:	eaffffae 	b	2044 <system_load_dtcm+0x28>

00002188 <rte_handler>:
    2188:	4b01      	ldr	r3, [pc, #4]	; (2190 <rte_handler+0x8>)
    218a:	2208      	movs	r2, #8
    218c:	701a      	strb	r2, [r3, #0]
    218e:	4770      	bx	lr
    2190:	e5007f2b 	.word	0xe5007f2b

00002194 <sark_app_id>:
    2194:	235c      	movs	r3, #92	; 0x5c
    2196:	7818      	ldrb	r0, [r3, #0]
    2198:	4770      	bx	lr
	...

0000219c <sark_cpu_state>:
    219c:	4b02      	ldr	r3, [pc, #8]	; (21a8 <sark_cpu_state+0xc>)
    219e:	69db      	ldr	r3, [r3, #28]
    21a0:	332e      	adds	r3, #46	; 0x2e
    21a2:	7018      	strb	r0, [r3, #0]
    21a4:	4770      	bx	lr
    21a6:	46c0      	nop			; (mov r8, r8)
    21a8:	00405960 	.word	0x00405960

000021ac <sark_app_lead>:
    21ac:	235c      	movs	r3, #92	; 0x5c
    21ae:	4a03      	ldr	r2, [pc, #12]	; (21bc <sark_app_lead+0x10>)
    21b0:	781b      	ldrb	r3, [r3, #0]
    21b2:	6812      	ldr	r2, [r2, #0]
    21b4:	00db      	lsls	r3, r3, #3
    21b6:	18d3      	adds	r3, r2, r3
    21b8:	78d8      	ldrb	r0, [r3, #3]
    21ba:	4770      	bx	lr
    21bc:	e5007fe4 	.word	0xe5007fe4

000021c0 <sark_block_init>:
    21c0:	b530      	push	{r4, r5, lr}
    21c2:	1c0b      	adds	r3, r1, #0
    21c4:	1c04      	adds	r4, r0, #0
    21c6:	e002      	b.n	21ce <sark_block_init+0xe>
    21c8:	18a5      	adds	r5, r4, r2
    21ca:	6025      	str	r5, [r4, #0]
    21cc:	1c2c      	adds	r4, r5, #0
    21ce:	3b01      	subs	r3, #1
    21d0:	2b00      	cmp	r3, #0
    21d2:	d1f9      	bne.n	21c8 <sark_block_init+0x8>
    21d4:	3901      	subs	r1, #1
    21d6:	434a      	muls	r2, r1
    21d8:	1880      	adds	r0, r0, r2
    21da:	6003      	str	r3, [r0, #0]
    21dc:	bd30      	pop	{r4, r5, pc}
	...

000021e0 <sark_msg_get>:
    21e0:	b510      	push	{r4, lr}
    21e2:	f7fd eff2 	blx	1c8 <cpu_int_disable>
    21e6:	4b09      	ldr	r3, [pc, #36]	; (220c <sark_msg_get+0x2c>)
    21e8:	6a1c      	ldr	r4, [r3, #32]
    21ea:	2c00      	cmp	r4, #0
    21ec:	d00a      	beq.n	2204 <sark_msg_get+0x24>
    21ee:	6822      	ldr	r2, [r4, #0]
    21f0:	621a      	str	r2, [r3, #32]
    21f2:	8c9a      	ldrh	r2, [r3, #36]	; 0x24
    21f4:	8cd9      	ldrh	r1, [r3, #38]	; 0x26
    21f6:	3201      	adds	r2, #1
    21f8:	0412      	lsls	r2, r2, #16
    21fa:	0c12      	lsrs	r2, r2, #16
    21fc:	849a      	strh	r2, [r3, #36]	; 0x24
    21fe:	4291      	cmp	r1, r2
    2200:	d200      	bcs.n	2204 <sark_msg_get+0x24>
    2202:	84da      	strh	r2, [r3, #38]	; 0x26
    2204:	f7fd efe8 	blx	1d8 <cpu_int_restore>
    2208:	1c20      	adds	r0, r4, #0
    220a:	bd10      	pop	{r4, pc}
    220c:	00405960 	.word	0x00405960

00002210 <sark_msg_free>:
    2210:	b510      	push	{r4, lr}
    2212:	1c04      	adds	r4, r0, #0
    2214:	f7fd efd8 	blx	1c8 <cpu_int_disable>
    2218:	4b04      	ldr	r3, [pc, #16]	; (222c <sark_msg_free+0x1c>)
    221a:	6a1a      	ldr	r2, [r3, #32]
    221c:	6022      	str	r2, [r4, #0]
    221e:	8c9a      	ldrh	r2, [r3, #36]	; 0x24
    2220:	621c      	str	r4, [r3, #32]
    2222:	3a01      	subs	r2, #1
    2224:	849a      	strh	r2, [r3, #36]	; 0x24
    2226:	f7fd efd8 	blx	1d8 <cpu_int_restore>
    222a:	bd10      	pop	{r4, pc}
    222c:	00405960 	.word	0x00405960

00002230 <sark_shmsg_get>:
    2230:	b510      	push	{r4, lr}
    2232:	2000      	movs	r0, #0
    2234:	f7fd efd8 	blx	1e8 <sark_lock_get>
    2238:	4b09      	ldr	r3, [pc, #36]	; (2260 <sark_shmsg_get+0x30>)
    223a:	681c      	ldr	r4, [r3, #0]
    223c:	2c00      	cmp	r4, #0
    223e:	d00a      	beq.n	2256 <sark_shmsg_get+0x26>
    2240:	6822      	ldr	r2, [r4, #0]
    2242:	601a      	str	r2, [r3, #0]
    2244:	889a      	ldrh	r2, [r3, #4]
    2246:	88d9      	ldrh	r1, [r3, #6]
    2248:	3201      	adds	r2, #1
    224a:	0412      	lsls	r2, r2, #16
    224c:	0c12      	lsrs	r2, r2, #16
    224e:	809a      	strh	r2, [r3, #4]
    2250:	4291      	cmp	r1, r2
    2252:	d200      	bcs.n	2256 <sark_shmsg_get+0x26>
    2254:	80da      	strh	r2, [r3, #6]
    2256:	2100      	movs	r1, #0
    2258:	f7fd efd8 	blx	20c <sark_lock_free>
    225c:	1c20      	adds	r0, r4, #0
    225e:	bd10      	pop	{r4, pc}
    2260:	e5007f68 	.word	0xe5007f68

00002264 <sark_shmsg_free>:
    2264:	b510      	push	{r4, lr}
    2266:	1c04      	adds	r4, r0, #0
    2268:	2000      	movs	r0, #0
    226a:	f7fd efbe 	blx	1e8 <sark_lock_get>
    226e:	4b05      	ldr	r3, [pc, #20]	; (2284 <sark_shmsg_free+0x20>)
    2270:	2100      	movs	r1, #0
    2272:	681a      	ldr	r2, [r3, #0]
    2274:	6022      	str	r2, [r4, #0]
    2276:	889a      	ldrh	r2, [r3, #4]
    2278:	601c      	str	r4, [r3, #0]
    227a:	3a01      	subs	r2, #1
    227c:	809a      	strh	r2, [r3, #4]
    227e:	f7fd efc6 	blx	20c <sark_lock_free>
    2282:	bd10      	pop	{r4, pc}
    2284:	e5007f68 	.word	0xe5007f68

00002288 <sark_init>:
    2288:	b570      	push	{r4, r5, r6, lr}
    228a:	2520      	movs	r5, #32
    228c:	1c04      	adds	r4, r0, #0
    228e:	8c28      	ldrh	r0, [r5, #32]
    2290:	8c6a      	ldrh	r2, [r5, #34]	; 0x22
    2292:	0080      	lsls	r0, r0, #2
    2294:	1a20      	subs	r0, r4, r0
    2296:	21d2      	movs	r1, #210	; 0xd2
    2298:	f7fd ef7a 	blx	190 <cpu_init_mode>
    229c:	8caa      	ldrh	r2, [r5, #36]	; 0x24
    229e:	21d1      	movs	r1, #209	; 0xd1
    22a0:	f7fd ef76 	blx	190 <cpu_init_mode>
    22a4:	2200      	movs	r2, #0
    22a6:	21df      	movs	r1, #223	; 0xdf
    22a8:	f7fd ef72 	blx	190 <cpu_init_mode>
    22ac:	8ce9      	ldrh	r1, [r5, #38]	; 0x26
    22ae:	2658      	movs	r6, #88	; 0x58
    22b0:	0889      	lsrs	r1, r1, #2
    22b2:	0089      	lsls	r1, r1, #2
    22b4:	1a61      	subs	r1, r4, r1
    22b6:	4c2a      	ldr	r4, [pc, #168]	; (2360 <sark_init+0xd8>)
    22b8:	6121      	str	r1, [r4, #16]
    22ba:	6ae8      	ldr	r0, [r5, #44]	; 0x2c
    22bc:	6160      	str	r0, [r4, #20]
    22be:	f000 fbe5 	bl	2a8c <sark_heap_init>
    22c2:	4b28      	ldr	r3, [pc, #160]	; (2364 <sark_init+0xdc>)
    22c4:	4a28      	ldr	r2, [pc, #160]	; (2368 <sark_init+0xe0>)
    22c6:	681b      	ldr	r3, [r3, #0]
    22c8:	4d28      	ldr	r5, [pc, #160]	; (236c <sark_init+0xe4>)
    22ca:	0e1b      	lsrs	r3, r3, #24
    22cc:	6063      	str	r3, [r4, #4]
    22ce:	189b      	adds	r3, r3, r2
    22d0:	2192      	movs	r1, #146	; 0x92
    22d2:	0049      	lsls	r1, r1, #1
    22d4:	61a0      	str	r0, [r4, #24]
    22d6:	791b      	ldrb	r3, [r3, #4]
    22d8:	6023      	str	r3, [r4, #0]
    22da:	8cab      	ldrh	r3, [r5, #36]	; 0x24
    22dc:	8623      	strh	r3, [r4, #48]	; 0x30
    22de:	4b24      	ldr	r3, [pc, #144]	; (2370 <sark_init+0xe8>)
    22e0:	60a3      	str	r3, [r4, #8]
    22e2:	7830      	ldrb	r0, [r6, #0]
    22e4:	f000 fbc6 	bl	2a74 <sark_alloc>
    22e8:	2292      	movs	r2, #146	; 0x92
    22ea:	0052      	lsls	r2, r2, #1
    22ec:	6220      	str	r0, [r4, #32]
    22ee:	7831      	ldrb	r1, [r6, #0]
    22f0:	f7ff ff66 	bl	21c0 <sark_block_init>
    22f4:	6823      	ldr	r3, [r4, #0]
    22f6:	2b11      	cmp	r3, #17
    22f8:	d81d      	bhi.n	2336 <sark_init+0xae>
    22fa:	4a1e      	ldr	r2, [pc, #120]	; (2374 <sark_init+0xec>)
    22fc:	01d8      	lsls	r0, r3, #7
    22fe:	1880      	adds	r0, r0, r2
    2300:	6daa      	ldr	r2, [r5, #88]	; 0x58
    2302:	61e0      	str	r0, [r4, #28]
    2304:	4353      	muls	r3, r2
    2306:	6d6a      	ldr	r2, [r5, #84]	; 0x54
    2308:	009b      	lsls	r3, r3, #2
    230a:	18d3      	adds	r3, r2, r3
    230c:	2100      	movs	r1, #0
    230e:	2270      	movs	r2, #112	; 0x70
    2310:	6363      	str	r3, [r4, #52]	; 0x34
    2312:	f7fd ef90 	blx	234 <sark_word_set>
    2316:	69e0      	ldr	r0, [r4, #28]
    2318:	2205      	movs	r2, #5
    231a:	1c03      	adds	r3, r0, #0
    231c:	332e      	adds	r3, #46	; 0x2e
    231e:	701a      	strb	r2, [r3, #0]
    2320:	235c      	movs	r3, #92	; 0x5c
    2322:	781a      	ldrb	r2, [r3, #0]
    2324:	1c03      	adds	r3, r0, #0
    2326:	332f      	adds	r3, #47	; 0x2f
    2328:	701a      	strb	r2, [r3, #0]
    232a:	69ed      	ldr	r5, [r5, #28]
    232c:	6445      	str	r5, [r0, #68]	; 0x44
    232e:	4912      	ldr	r1, [pc, #72]	; (2378 <sark_init+0xf0>)
    2330:	3048      	adds	r0, #72	; 0x48
    2332:	f7fd ef76 	blx	220 <sark_str_cpy>
    2336:	f000 fa3b 	bl	27b0 <sark_vic_init>
    233a:	2359      	movs	r3, #89	; 0x59
    233c:	7818      	ldrb	r0, [r3, #0]
    233e:	2112      	movs	r1, #18
    2340:	2201      	movs	r2, #1
    2342:	4b0e      	ldr	r3, [pc, #56]	; (237c <sark_init+0xf4>)
    2344:	f000 fa5c 	bl	2800 <sark_vic_set>
    2348:	2106      	movs	r1, #6
    234a:	2201      	movs	r2, #1
    234c:	2010      	movs	r0, #16
    234e:	4b0c      	ldr	r3, [pc, #48]	; (2380 <sark_init+0xf8>)
    2350:	f000 fa56 	bl	2800 <sark_vic_set>
    2354:	235a      	movs	r3, #90	; 0x5a
    2356:	7818      	ldrb	r0, [r3, #0]
    2358:	f000 fa0c 	bl	2774 <event_alloc>
    235c:	201f      	movs	r0, #31
    235e:	bd70      	pop	{r4, r5, r6, pc}
    2360:	00405960 	.word	0x00405960
    2364:	40000014 	.word	0x40000014
    2368:	e5007f90 	.word	0xe5007f90
    236c:	e5007f00 	.word	0xe5007f00
    2370:	deaddead 	.word	0xdeaddead
    2374:	e5007000 	.word	0xe5007000
    2378:	0000401c 	.word	0x0000401c
    237c:	00000300 	.word	0x00000300
    2380:	00002984 	.word	0x00002984

00002384 <sark_msg_send>:
    2384:	b5f8      	push	{r3, r4, r5, r6, r7, lr}
    2386:	1c05      	adds	r5, r0, #0
    2388:	1c0f      	adds	r7, r1, #0
    238a:	f7ff ff51 	bl	2230 <sark_shmsg_get>
    238e:	1c04      	adds	r4, r0, #0
    2390:	3800      	subs	r0, #0
    2392:	d03d      	beq.n	2410 <sark_msg_send+0x8c>
    2394:	1c29      	adds	r1, r5, #0
    2396:	f7fd ef60 	blx	258 <sark_msg_cpy>
    239a:	4e1e      	ldr	r6, [pc, #120]	; (2414 <sark_msg_send+0x90>)
    239c:	2501      	movs	r5, #1
    239e:	69f3      	ldr	r3, [r6, #28]
    23a0:	1c28      	adds	r0, r5, #0
    23a2:	635c      	str	r4, [r3, #52]	; 0x34
    23a4:	3339      	adds	r3, #57	; 0x39
    23a6:	701d      	strb	r5, [r3, #0]
    23a8:	f7fd ef1e 	blx	1e8 <sark_lock_get>
    23ac:	6831      	ldr	r1, [r6, #0]
    23ae:	4a1a      	ldr	r2, [pc, #104]	; (2418 <sark_msg_send+0x94>)
    23b0:	1c2e      	adds	r6, r5, #0
    23b2:	6813      	ldr	r3, [r2, #0]
    23b4:	408e      	lsls	r6, r1
    23b6:	1c31      	adds	r1, r6, #0
    23b8:	4319      	orrs	r1, r3
    23ba:	6011      	str	r1, [r2, #0]
    23bc:	2b00      	cmp	r3, #0
    23be:	d106      	bne.n	23ce <sark_msg_send+0x4a>
    23c0:	4b16      	ldr	r3, [pc, #88]	; (241c <sark_msg_send+0x98>)
    23c2:	4a17      	ldr	r2, [pc, #92]	; (2420 <sark_msg_send+0x9c>)
    23c4:	781b      	ldrb	r3, [r3, #0]
    23c6:	409d      	lsls	r5, r3
    23c8:	4b16      	ldr	r3, [pc, #88]	; (2424 <sark_msg_send+0xa0>)
    23ca:	18ad      	adds	r5, r5, r2
    23cc:	601d      	str	r5, [r3, #0]
    23ce:	2101      	movs	r1, #1
    23d0:	f7fd ef1c 	blx	20c <sark_lock_free>
    23d4:	4b0f      	ldr	r3, [pc, #60]	; (2414 <sark_msg_send+0x90>)
    23d6:	4a14      	ldr	r2, [pc, #80]	; (2428 <sark_msg_send+0xa4>)
    23d8:	69db      	ldr	r3, [r3, #28]
    23da:	6815      	ldr	r5, [r2, #0]
    23dc:	1c18      	adds	r0, r3, #0
    23de:	3039      	adds	r0, #57	; 0x39
    23e0:	e008      	b.n	23f4 <sark_msg_send+0x70>
    23e2:	6811      	ldr	r1, [r2, #0]
    23e4:	1b49      	subs	r1, r1, r5
    23e6:	42b9      	cmp	r1, r7
    23e8:	d904      	bls.n	23f4 <sark_msg_send+0x70>
    23ea:	3339      	adds	r3, #57	; 0x39
    23ec:	781b      	ldrb	r3, [r3, #0]
    23ee:	2b00      	cmp	r3, #0
    23f0:	d009      	beq.n	2406 <sark_msg_send+0x82>
    23f2:	e003      	b.n	23fc <sark_msg_send+0x78>
    23f4:	7801      	ldrb	r1, [r0, #0]
    23f6:	2900      	cmp	r1, #0
    23f8:	d1f3      	bne.n	23e2 <sark_msg_send+0x5e>
    23fa:	e7f6      	b.n	23ea <sark_msg_send+0x66>
    23fc:	1c20      	adds	r0, r4, #0
    23fe:	f7ff ff31 	bl	2264 <sark_shmsg_free>
    2402:	2000      	movs	r0, #0
    2404:	e004      	b.n	2410 <sark_msg_send+0x8c>
    2406:	4b03      	ldr	r3, [pc, #12]	; (2414 <sark_msg_send+0x90>)
    2408:	2001      	movs	r0, #1
    240a:	6ada      	ldr	r2, [r3, #44]	; 0x2c
    240c:	3201      	adds	r2, #1
    240e:	62da      	str	r2, [r3, #44]	; 0x2c
    2410:	bdf8      	pop	{r3, r4, r5, r6, r7, pc}
    2412:	46c0      	nop			; (mov r8, r8)
    2414:	00405960 	.word	0x00405960
    2418:	e5007fec 	.word	0xe5007fec
    241c:	e5007fa8 	.word	0xe5007fa8
    2420:	5ec00000 	.word	0x5ec00000
    2424:	e2000008 	.word	0xe2000008
    2428:	e5007f10 	.word	0xe5007f10

0000242c <sark_cmd_ver>:
    242c:	b508      	push	{r3, lr}
    242e:	4b0a      	ldr	r3, [pc, #40]	; (2458 <sark_cmd_ver+0x2c>)
    2430:	6859      	ldr	r1, [r3, #4]
    2432:	681b      	ldr	r3, [r3, #0]
    2434:	020a      	lsls	r2, r1, #8
    2436:	18d3      	adds	r3, r2, r3
    2438:	4a08      	ldr	r2, [pc, #32]	; (245c <sark_cmd_ver+0x30>)
    243a:	4909      	ldr	r1, [pc, #36]	; (2460 <sark_cmd_ver+0x34>)
    243c:	8812      	ldrh	r2, [r2, #0]
    243e:	0412      	lsls	r2, r2, #16
    2440:	189b      	adds	r3, r3, r2
    2442:	6143      	str	r3, [r0, #20]
    2444:	4b07      	ldr	r3, [pc, #28]	; (2464 <sark_cmd_ver+0x38>)
    2446:	6183      	str	r3, [r0, #24]
    2448:	4b07      	ldr	r3, [pc, #28]	; (2468 <sark_cmd_ver+0x3c>)
    244a:	681b      	ldr	r3, [r3, #0]
    244c:	61c3      	str	r3, [r0, #28]
    244e:	3020      	adds	r0, #32
    2450:	f7fd eee6 	blx	220 <sark_str_cpy>
    2454:	201b      	movs	r0, #27
    2456:	bd08      	pop	{r3, pc}
    2458:	00405960 	.word	0x00405960
    245c:	e5007f00 	.word	0xe5007f00
    2460:	0000402c 	.word	0x0000402c
    2464:	00820100 	.word	0x00820100
    2468:	00004018 	.word	0x00004018

0000246c <sark_cmd_read>:
    246c:	69c1      	ldr	r1, [r0, #28]
    246e:	b530      	push	{r4, r5, lr}
    2470:	6983      	ldr	r3, [r0, #24]
    2472:	2902      	cmp	r1, #2
    2474:	d803      	bhi.n	247e <sark_cmd_read+0x12>
    2476:	2280      	movs	r2, #128	; 0x80
    2478:	0052      	lsls	r2, r2, #1
    247a:	429a      	cmp	r2, r3
    247c:	d203      	bcs.n	2486 <sark_cmd_read+0x1a>
    247e:	2384      	movs	r3, #132	; 0x84
    2480:	8203      	strh	r3, [r0, #16]
    2482:	2300      	movs	r3, #0
    2484:	e023      	b.n	24ce <sark_cmd_read+0x62>
    2486:	6942      	ldr	r2, [r0, #20]
    2488:	3014      	adds	r0, #20
    248a:	2900      	cmp	r1, #0
    248c:	d108      	bne.n	24a0 <sark_cmd_read+0x34>
    248e:	18d1      	adds	r1, r2, r3
    2490:	1a80      	subs	r0, r0, r2
    2492:	e002      	b.n	249a <sark_cmd_read+0x2e>
    2494:	7814      	ldrb	r4, [r2, #0]
    2496:	5484      	strb	r4, [r0, r2]
    2498:	3201      	adds	r2, #1
    249a:	428a      	cmp	r2, r1
    249c:	d1fa      	bne.n	2494 <sark_cmd_read+0x28>
    249e:	e016      	b.n	24ce <sark_cmd_read+0x62>
    24a0:	2901      	cmp	r1, #1
    24a2:	d10a      	bne.n	24ba <sark_cmd_read+0x4e>
    24a4:	0859      	lsrs	r1, r3, #1
    24a6:	0049      	lsls	r1, r1, #1
    24a8:	1889      	adds	r1, r1, r2
    24aa:	1a80      	subs	r0, r0, r2
    24ac:	e002      	b.n	24b4 <sark_cmd_read+0x48>
    24ae:	8814      	ldrh	r4, [r2, #0]
    24b0:	5284      	strh	r4, [r0, r2]
    24b2:	3202      	adds	r2, #2
    24b4:	428a      	cmp	r2, r1
    24b6:	d1fa      	bne.n	24ae <sark_cmd_read+0x42>
    24b8:	e009      	b.n	24ce <sark_cmd_read+0x62>
    24ba:	089c      	lsrs	r4, r3, #2
    24bc:	00a4      	lsls	r4, r4, #2
    24be:	1904      	adds	r4, r0, r4
    24c0:	1c01      	adds	r1, r0, #0
    24c2:	e002      	b.n	24ca <sark_cmd_read+0x5e>
    24c4:	1a0d      	subs	r5, r1, r0
    24c6:	58ad      	ldr	r5, [r5, r2]
    24c8:	c120      	stmia	r1!, {r5}
    24ca:	42a1      	cmp	r1, r4
    24cc:	d1fa      	bne.n	24c4 <sark_cmd_read+0x58>
    24ce:	1c18      	adds	r0, r3, #0
    24d0:	bd30      	pop	{r4, r5, pc}

000024d2 <sark_cmd_write>:
    24d2:	69c1      	ldr	r1, [r0, #28]
    24d4:	b530      	push	{r4, r5, lr}
    24d6:	6982      	ldr	r2, [r0, #24]
    24d8:	2902      	cmp	r1, #2
    24da:	d803      	bhi.n	24e4 <sark_cmd_write+0x12>
    24dc:	2380      	movs	r3, #128	; 0x80
    24de:	005b      	lsls	r3, r3, #1
    24e0:	4293      	cmp	r3, r2
    24e2:	d202      	bcs.n	24ea <sark_cmd_write+0x18>
    24e4:	2384      	movs	r3, #132	; 0x84
    24e6:	8203      	strh	r3, [r0, #16]
    24e8:	e026      	b.n	2538 <sark_cmd_write+0x66>
    24ea:	6943      	ldr	r3, [r0, #20]
    24ec:	2900      	cmp	r1, #0
    24ee:	d10b      	bne.n	2508 <sark_cmd_write+0x36>
    24f0:	1881      	adds	r1, r0, r2
    24f2:	1c02      	adds	r2, r0, #0
    24f4:	e005      	b.n	2502 <sark_cmd_write+0x30>
    24f6:	1c14      	adds	r4, r2, #0
    24f8:	3420      	adds	r4, #32
    24fa:	7825      	ldrb	r5, [r4, #0]
    24fc:	1a14      	subs	r4, r2, r0
    24fe:	3201      	adds	r2, #1
    2500:	54e5      	strb	r5, [r4, r3]
    2502:	428a      	cmp	r2, r1
    2504:	d1f7      	bne.n	24f6 <sark_cmd_write+0x24>
    2506:	e017      	b.n	2538 <sark_cmd_write+0x66>
    2508:	3020      	adds	r0, #32
    250a:	2901      	cmp	r1, #1
    250c:	d10b      	bne.n	2526 <sark_cmd_write+0x54>
    250e:	0851      	lsrs	r1, r2, #1
    2510:	0049      	lsls	r1, r1, #1
    2512:	1841      	adds	r1, r0, r1
    2514:	1c02      	adds	r2, r0, #0
    2516:	e003      	b.n	2520 <sark_cmd_write+0x4e>
    2518:	8815      	ldrh	r5, [r2, #0]
    251a:	1a14      	subs	r4, r2, r0
    251c:	3202      	adds	r2, #2
    251e:	52e5      	strh	r5, [r4, r3]
    2520:	428a      	cmp	r2, r1
    2522:	d1f9      	bne.n	2518 <sark_cmd_write+0x46>
    2524:	e008      	b.n	2538 <sark_cmd_write+0x66>
    2526:	0892      	lsrs	r2, r2, #2
    2528:	0092      	lsls	r2, r2, #2
    252a:	18d2      	adds	r2, r2, r3
    252c:	1ac0      	subs	r0, r0, r3
    252e:	e001      	b.n	2534 <sark_cmd_write+0x62>
    2530:	58c1      	ldr	r1, [r0, r3]
    2532:	c302      	stmia	r3!, {r1}
    2534:	4293      	cmp	r3, r2
    2536:	d1fb      	bne.n	2530 <sark_cmd_write+0x5e>
    2538:	2000      	movs	r0, #0
    253a:	bd30      	pop	{r4, r5, pc}

0000253c <sark_cmd_fill>:
    253c:	b508      	push	{r3, lr}
    253e:	1c03      	adds	r3, r0, #0
    2540:	3314      	adds	r3, #20
    2542:	cb07      	ldmia	r3!, {r0, r1, r2}
    2544:	f7fd ee76 	blx	234 <sark_word_set>
    2548:	2000      	movs	r0, #0
    254a:	bd08      	pop	{r3, pc}

0000254c <sark_wait>:
    254c:	b508      	push	{r3, lr}
    254e:	e001      	b.n	2554 <sark_wait+0x8>
    2550:	f7fd ee46 	blx	1e0 <cpu_wfi>
    2554:	235d      	movs	r3, #93	; 0x5d
    2556:	781b      	ldrb	r3, [r3, #0]
    2558:	07da      	lsls	r2, r3, #31
    255a:	d4f9      	bmi.n	2550 <sark_wait+0x4>
    255c:	bd08      	pop	{r3, pc}
	...

00002560 <sark_int>:
    2560:	4b55      	ldr	r3, [pc, #340]	; (26b8 <sark_int+0x158>)
    2562:	2101      	movs	r1, #1
    2564:	685a      	ldr	r2, [r3, #4]
    2566:	b570      	push	{r4, r5, r6, lr}
    2568:	4091      	lsls	r1, r2
    256a:	4a54      	ldr	r2, [pc, #336]	; (26bc <sark_int+0x15c>)
    256c:	1889      	adds	r1, r1, r2
    256e:	4a54      	ldr	r2, [pc, #336]	; (26c0 <sark_int+0x160>)
    2570:	6011      	str	r1, [r2, #0]
    2572:	69da      	ldr	r2, [r3, #28]
    2574:	1c11      	adds	r1, r2, #0
    2576:	3138      	adds	r1, #56	; 0x38
    2578:	780b      	ldrb	r3, [r1, #0]
    257a:	2b00      	cmp	r3, #0
    257c:	d100      	bne.n	2580 <sark_int+0x20>
    257e:	e099      	b.n	26b4 <sark_int+0x154>
    2580:	6b15      	ldr	r5, [r2, #48]	; 0x30
    2582:	2b02      	cmp	r3, #2
    2584:	d100      	bne.n	2588 <sark_int+0x28>
    2586:	6310      	str	r0, [r2, #48]	; 0x30
    2588:	2200      	movs	r2, #0
    258a:	700a      	strb	r2, [r1, #0]
    258c:	2b03      	cmp	r3, #3
    258e:	d124      	bne.n	25da <sark_int+0x7a>
    2590:	1ee8      	subs	r0, r5, #3
    2592:	280a      	cmp	r0, #10
    2594:	d900      	bls.n	2598 <sark_int+0x38>
    2596:	e08d      	b.n	26b4 <sark_int+0x154>
    2598:	f7fd fee4 	bl	364 <__gnu_thumb1_case_uqi>
    259c:	068c8c10 	.word	0x068c8c10
    25a0:	161b0c08 	.word	0x161b0c08
    25a4:	1616      	.short	0x1616
    25a6:	16          	.byte	0x16
    25a7:	00          	.byte	0x00
    25a8:	2001      	movs	r0, #1
    25aa:	e000      	b.n	25ae <sark_int+0x4e>
    25ac:	2000      	movs	r0, #0
    25ae:	f000 f8bf 	bl	2730 <event_pause>
    25b2:	e07f      	b.n	26b4 <sark_int+0x154>
    25b4:	20ff      	movs	r0, #255	; 0xff
    25b6:	f000 f8d1 	bl	275c <event_stop>
    25ba:	e07b      	b.n	26b4 <sark_int+0x154>
    25bc:	235d      	movs	r3, #93	; 0x5d
    25be:	781a      	ldrb	r2, [r3, #0]
    25c0:	2101      	movs	r1, #1
    25c2:	438a      	bics	r2, r1
    25c4:	701a      	strb	r2, [r3, #0]
    25c6:	e075      	b.n	26b4 <sark_int+0x154>
    25c8:	4b3e      	ldr	r3, [pc, #248]	; (26c4 <sark_int+0x164>)
    25ca:	2280      	movs	r2, #128	; 0x80
    25cc:	62dd      	str	r5, [r3, #44]	; 0x2c
    25ce:	0592      	lsls	r2, r2, #22
    25d0:	e000      	b.n	25d4 <sark_int+0x74>
    25d2:	2210      	movs	r2, #16
    25d4:	4b3c      	ldr	r3, [pc, #240]	; (26c8 <sark_int+0x168>)
    25d6:	601a      	str	r2, [r3, #0]
    25d8:	e06c      	b.n	26b4 <sark_int+0x154>
    25da:	2b01      	cmp	r3, #1
    25dc:	d16a      	bne.n	26b4 <sark_int+0x154>
    25de:	f7ff fdff 	bl	21e0 <sark_msg_get>
    25e2:	1e04      	subs	r4, r0, #0
    25e4:	d063      	beq.n	26ae <sark_int+0x14e>
    25e6:	1c29      	adds	r1, r5, #0
    25e8:	1c20      	adds	r0, r4, #0
    25ea:	f7fd ee36 	blx	258 <sark_msg_cpy>
    25ee:	1c28      	adds	r0, r5, #0
    25f0:	f7ff fe38 	bl	2264 <sark_shmsg_free>
    25f4:	4b30      	ldr	r3, [pc, #192]	; (26b8 <sark_int+0x158>)
    25f6:	6a9a      	ldr	r2, [r3, #40]	; 0x28
    25f8:	3201      	adds	r2, #1
    25fa:	629a      	str	r2, [r3, #40]	; 0x28
    25fc:	7aa5      	ldrb	r5, [r4, #10]
    25fe:	231f      	movs	r3, #31
    2600:	1c28      	adds	r0, r5, #0
    2602:	4398      	bics	r0, r3
    2604:	d130      	bne.n	2668 <sark_int+0x108>
    2606:	88a3      	ldrh	r3, [r4, #4]
    2608:	2b17      	cmp	r3, #23
    260a:	d801      	bhi.n	2610 <sark_int+0xb0>
    260c:	2381      	movs	r3, #129	; 0x81
    260e:	e01b      	b.n	2648 <sark_int+0xe8>
    2610:	8a23      	ldrh	r3, [r4, #16]
    2612:	2280      	movs	r2, #128	; 0x80
    2614:	8222      	strh	r2, [r4, #16]
    2616:	2b00      	cmp	r3, #0
    2618:	d103      	bne.n	2622 <sark_int+0xc2>
    261a:	1c20      	adds	r0, r4, #0
    261c:	f7ff ff06 	bl	242c <sark_cmd_ver>
    2620:	e013      	b.n	264a <sark_int+0xea>
    2622:	2b02      	cmp	r3, #2
    2624:	d103      	bne.n	262e <sark_int+0xce>
    2626:	1c20      	adds	r0, r4, #0
    2628:	f7ff ff20 	bl	246c <sark_cmd_read>
    262c:	e00d      	b.n	264a <sark_int+0xea>
    262e:	2b03      	cmp	r3, #3
    2630:	d103      	bne.n	263a <sark_int+0xda>
    2632:	1c20      	adds	r0, r4, #0
    2634:	f7ff ff4d 	bl	24d2 <sark_cmd_write>
    2638:	e007      	b.n	264a <sark_int+0xea>
    263a:	2b05      	cmp	r3, #5
    263c:	d103      	bne.n	2646 <sark_int+0xe6>
    263e:	1c20      	adds	r0, r4, #0
    2640:	f7ff ff7c 	bl	253c <sark_cmd_fill>
    2644:	e001      	b.n	264a <sark_int+0xea>
    2646:	2383      	movs	r3, #131	; 0x83
    2648:	8223      	strh	r3, [r4, #16]
    264a:	7aa2      	ldrb	r2, [r4, #10]
    264c:	7ae1      	ldrb	r1, [r4, #11]
    264e:	89a3      	ldrh	r3, [r4, #12]
    2650:	300c      	adds	r0, #12
    2652:	72e2      	strb	r2, [r4, #11]
    2654:	89e2      	ldrh	r2, [r4, #14]
    2656:	80a0      	strh	r0, [r4, #4]
    2658:	72a1      	strb	r1, [r4, #10]
    265a:	81a2      	strh	r2, [r4, #12]
    265c:	81e3      	strh	r3, [r4, #14]
    265e:	1c20      	adds	r0, r4, #0
    2660:	210a      	movs	r1, #10
    2662:	f7ff fe8f 	bl	2384 <sark_msg_send>
    2666:	e01e      	b.n	26a6 <sark_int+0x146>
    2668:	235b      	movs	r3, #91	; 0x5b
    266a:	781b      	ldrb	r3, [r3, #0]
    266c:	2b00      	cmp	r3, #0
    266e:	d00f      	beq.n	2690 <sark_int+0x130>
    2670:	4b16      	ldr	r3, [pc, #88]	; (26cc <sark_int+0x16c>)
    2672:	699b      	ldr	r3, [r3, #24]
    2674:	2b00      	cmp	r3, #0
    2676:	d016      	beq.n	26a6 <sark_int+0x146>
    2678:	f7fd eda6 	blx	1c8 <cpu_int_disable>
    267c:	096a      	lsrs	r2, r5, #5
    267e:	1c21      	adds	r1, r4, #0
    2680:	1c06      	adds	r6, r0, #0
    2682:	2003      	movs	r0, #3
    2684:	f001 f848 	bl	3718 <schedule_sysmode>
    2688:	1c30      	adds	r0, r6, #0
    268a:	f7fd eda6 	blx	1d8 <cpu_int_restore>
    268e:	e011      	b.n	26b4 <sark_int+0x154>
    2690:	4b0f      	ldr	r3, [pc, #60]	; (26d0 <sark_int+0x170>)
    2692:	681a      	ldr	r2, [r3, #0]
    2694:	2380      	movs	r3, #128	; 0x80
    2696:	055b      	lsls	r3, r3, #21
    2698:	421a      	tst	r2, r3
    269a:	d004      	beq.n	26a6 <sark_int+0x146>
    269c:	4a09      	ldr	r2, [pc, #36]	; (26c4 <sark_int+0x164>)
    269e:	6294      	str	r4, [r2, #40]	; 0x28
    26a0:	4a09      	ldr	r2, [pc, #36]	; (26c8 <sark_int+0x168>)
    26a2:	6013      	str	r3, [r2, #0]
    26a4:	e006      	b.n	26b4 <sark_int+0x154>
    26a6:	1c20      	adds	r0, r4, #0
    26a8:	f7ff fdb2 	bl	2210 <sark_msg_free>
    26ac:	e002      	b.n	26b4 <sark_int+0x154>
    26ae:	1c28      	adds	r0, r5, #0
    26b0:	f7ff fdd8 	bl	2264 <sark_shmsg_free>
    26b4:	bd70      	pop	{r4, r5, r6, pc}
    26b6:	46c0      	nop			; (mov r8, r8)
    26b8:	00405960 	.word	0x00405960
    26bc:	5ec00000 	.word	0x5ec00000
    26c0:	e200000c 	.word	0xe200000c
    26c4:	0040599c 	.word	0x0040599c
    26c8:	2f000018 	.word	0x2f000018
    26cc:	00405bc8 	.word	0x00405bc8
    26d0:	2f000010 	.word	0x2f000010

000026d4 <event_wait>:
    26d4:	4b13      	ldr	r3, [pc, #76]	; (2724 <event_wait+0x50>)
    26d6:	b570      	push	{r4, r5, r6, lr}
    26d8:	681b      	ldr	r3, [r3, #0]
    26da:	4c13      	ldr	r4, [pc, #76]	; (2728 <event_wait+0x54>)
    26dc:	2501      	movs	r5, #1
    26de:	409d      	lsls	r5, r3
    26e0:	7ea3      	ldrb	r3, [r4, #26]
    26e2:	4e12      	ldr	r6, [pc, #72]	; (272c <event_wait+0x58>)
    26e4:	2b00      	cmp	r3, #0
    26e6:	d012      	beq.n	270e <event_wait+0x3a>
    26e8:	2009      	movs	r0, #9
    26ea:	f7ff fd57 	bl	219c <sark_cpu_state>
    26ee:	e001      	b.n	26f4 <event_wait+0x20>
    26f0:	f7fd ed76 	blx	1e0 <cpu_wfi>
    26f4:	6833      	ldr	r3, [r6, #0]
    26f6:	1c2a      	adds	r2, r5, #0
    26f8:	439a      	bics	r2, r3
    26fa:	1e13      	subs	r3, r2, #0
    26fc:	d1f8      	bne.n	26f0 <event_wait+0x1c>
    26fe:	7ea3      	ldrb	r3, [r4, #26]
    2700:	2201      	movs	r2, #1
    2702:	4053      	eors	r3, r2
    2704:	2007      	movs	r0, #7
    2706:	76a3      	strb	r3, [r4, #26]
    2708:	f7ff fd48 	bl	219c <sark_cpu_state>
    270c:	e009      	b.n	2722 <event_wait+0x4e>
    270e:	2008      	movs	r0, #8
    2710:	f7ff fd44 	bl	219c <sark_cpu_state>
    2714:	e001      	b.n	271a <event_wait+0x46>
    2716:	f7fd ed64 	blx	1e0 <cpu_wfi>
    271a:	6833      	ldr	r3, [r6, #0]
    271c:	422b      	tst	r3, r5
    271e:	d1fa      	bne.n	2716 <event_wait+0x42>
    2720:	e7ed      	b.n	26fe <event_wait+0x2a>
    2722:	bd70      	pop	{r4, r5, r6, pc}
    2724:	00405960 	.word	0x00405960
    2728:	0040599c 	.word	0x0040599c
    272c:	e2000058 	.word	0xe2000058

00002730 <event_pause>:
    2730:	b538      	push	{r3, r4, r5, lr}
    2732:	1c05      	adds	r5, r0, #0
    2734:	4c08      	ldr	r4, [pc, #32]	; (2758 <event_pause+0x28>)
    2736:	2800      	cmp	r0, #0
    2738:	d003      	beq.n	2742 <event_pause+0x12>
    273a:	2301      	movs	r3, #1
    273c:	7623      	strb	r3, [r4, #24]
    273e:	200a      	movs	r0, #10
    2740:	e001      	b.n	2746 <event_pause+0x16>
    2742:	7620      	strb	r0, [r4, #24]
    2744:	2007      	movs	r0, #7
    2746:	f7ff fd29 	bl	219c <sark_cpu_state>
    274a:	6b23      	ldr	r3, [r4, #48]	; 0x30
    274c:	2b00      	cmp	r3, #0
    274e:	d002      	beq.n	2756 <event_pause+0x26>
    2750:	6b61      	ldr	r1, [r4, #52]	; 0x34
    2752:	1c28      	adds	r0, r5, #0
    2754:	4798      	blx	r3
    2756:	bd38      	pop	{r3, r4, r5, pc}
    2758:	0040599c 	.word	0x0040599c

0000275c <event_stop>:
    275c:	4b03      	ldr	r3, [pc, #12]	; (276c <event_stop+0x10>)
    275e:	2202      	movs	r2, #2
    2760:	761a      	strb	r2, [r3, #24]
    2762:	4a03      	ldr	r2, [pc, #12]	; (2770 <event_stop+0x14>)
    2764:	6cd9      	ldr	r1, [r3, #76]	; 0x4c
    2766:	6011      	str	r1, [r2, #0]
    2768:	6398      	str	r0, [r3, #56]	; 0x38
    276a:	4770      	bx	lr
    276c:	0040599c 	.word	0x0040599c
    2770:	2f000014 	.word	0x2f000014

00002774 <event_alloc>:
    2774:	b570      	push	{r4, r5, r6, lr}
    2776:	2118      	movs	r1, #24
    2778:	1c06      	adds	r6, r0, #0
    277a:	f000 f97b 	bl	2a74 <sark_alloc>
    277e:	4d0b      	ldr	r5, [pc, #44]	; (27ac <event_alloc+0x38>)
    2780:	1e04      	subs	r4, r0, #0
    2782:	d00d      	beq.n	27a0 <event_alloc+0x2c>
    2784:	1c31      	adds	r1, r6, #0
    2786:	2218      	movs	r2, #24
    2788:	f7ff fd1a 	bl	21c0 <sark_block_init>
    278c:	1c06      	adds	r6, r0, #0
    278e:	f7fd ed1c 	blx	1c8 <cpu_int_disable>
    2792:	682a      	ldr	r2, [r5, #0]
    2794:	6032      	str	r2, [r6, #0]
    2796:	602c      	str	r4, [r5, #0]
    2798:	f7fd ed1e 	blx	1d8 <cpu_int_restore>
    279c:	2001      	movs	r0, #1
    279e:	e003      	b.n	27a8 <event_alloc+0x34>
    27a0:	696a      	ldr	r2, [r5, #20]
    27a2:	2308      	movs	r3, #8
    27a4:	4313      	orrs	r3, r2
    27a6:	616b      	str	r3, [r5, #20]
    27a8:	bd70      	pop	{r4, r5, r6, pc}
    27aa:	46c0      	nop			; (mov r8, r8)
    27ac:	0040599c 	.word	0x0040599c

000027b0 <sark_vic_init>:
    27b0:	4b0b      	ldr	r3, [pc, #44]	; (27e0 <sark_vic_init+0x30>)
    27b2:	2201      	movs	r2, #1
    27b4:	4252      	negs	r2, r2
    27b6:	b510      	push	{r4, lr}
    27b8:	601a      	str	r2, [r3, #0]
    27ba:	4b0a      	ldr	r3, [pc, #40]	; (27e4 <sark_vic_init+0x34>)
    27bc:	2200      	movs	r2, #0
    27be:	601a      	str	r2, [r3, #0]
    27c0:	4b09      	ldr	r3, [pc, #36]	; (27e8 <sark_vic_init+0x38>)
    27c2:	4c0a      	ldr	r4, [pc, #40]	; (27ec <sark_vic_init+0x3c>)
    27c4:	601a      	str	r2, [r3, #0]
    27c6:	490a      	ldr	r1, [pc, #40]	; (27f0 <sark_vic_init+0x40>)
    27c8:	4b0a      	ldr	r3, [pc, #40]	; (27f4 <sark_vic_init+0x44>)
    27ca:	1e58      	subs	r0, r3, #1
    27cc:	601a      	str	r2, [r3, #0]
    27ce:	38ff      	subs	r0, #255	; 0xff
    27d0:	3304      	adds	r3, #4
    27d2:	6004      	str	r4, [r0, #0]
    27d4:	428b      	cmp	r3, r1
    27d6:	d1f8      	bne.n	27ca <sark_vic_init+0x1a>
    27d8:	4b07      	ldr	r3, [pc, #28]	; (27f8 <sark_vic_init+0x48>)
    27da:	4a08      	ldr	r2, [pc, #32]	; (27fc <sark_vic_init+0x4c>)
    27dc:	601a      	str	r2, [r3, #0]
    27de:	bd10      	pop	{r4, pc}
    27e0:	2f000014 	.word	0x2f000014
    27e4:	2f00000c 	.word	0x2f00000c
    27e8:	2f000030 	.word	0x2f000030
    27ec:	00000108 	.word	0x00000108
    27f0:	2f000240 	.word	0x2f000240
    27f4:	2f000200 	.word	0x2f000200
    27f8:	2f000034 	.word	0x2f000034
    27fc:	00000330 	.word	0x00000330

00002800 <sark_vic_set>:
    2800:	b530      	push	{r4, r5, lr}
    2802:	2810      	cmp	r0, #16
    2804:	d106      	bne.n	2814 <sark_vic_set+0x14>
    2806:	2020      	movs	r0, #32
    2808:	61c3      	str	r3, [r0, #28]
    280a:	2001      	movs	r0, #1
    280c:	4b0a      	ldr	r3, [pc, #40]	; (2838 <sark_vic_set+0x38>)
    280e:	4088      	lsls	r0, r1
    2810:	6018      	str	r0, [r3, #0]
    2812:	e009      	b.n	2828 <sark_vic_set+0x28>
    2814:	4d09      	ldr	r5, [pc, #36]	; (283c <sark_vic_set+0x3c>)
    2816:	0084      	lsls	r4, r0, #2
    2818:	1964      	adds	r4, r4, r5
    281a:	6023      	str	r3, [r4, #0]
    281c:	4b08      	ldr	r3, [pc, #32]	; (2840 <sark_vic_set+0x40>)
    281e:	0080      	lsls	r0, r0, #2
    2820:	18c0      	adds	r0, r0, r3
    2822:	2320      	movs	r3, #32
    2824:	430b      	orrs	r3, r1
    2826:	6003      	str	r3, [r0, #0]
    2828:	2a00      	cmp	r2, #0
    282a:	d004      	beq.n	2836 <sark_vic_set+0x36>
    282c:	2301      	movs	r3, #1
    282e:	408b      	lsls	r3, r1
    2830:	1c19      	adds	r1, r3, #0
    2832:	4b04      	ldr	r3, [pc, #16]	; (2844 <sark_vic_set+0x44>)
    2834:	6019      	str	r1, [r3, #0]
    2836:	bd30      	pop	{r4, r5, pc}
    2838:	2f00000c 	.word	0x2f00000c
    283c:	2f000100 	.word	0x2f000100
    2840:	2f000200 	.word	0x2f000200
    2844:	2f000010 	.word	0x2f000010

00002848 <v2p_mask>:
    2848:	2300      	movs	r3, #0
    284a:	1c1a      	adds	r2, r3, #0
    284c:	2101      	movs	r1, #1
    284e:	b530      	push	{r4, r5, lr}
    2850:	1c0c      	adds	r4, r1, #0
    2852:	409c      	lsls	r4, r3
    2854:	4220      	tst	r0, r4
    2856:	d005      	beq.n	2864 <v2p_mask+0x1c>
    2858:	4d05      	ldr	r5, [pc, #20]	; (2870 <v2p_mask+0x28>)
    285a:	195c      	adds	r4, r3, r5
    285c:	7824      	ldrb	r4, [r4, #0]
    285e:	1c0d      	adds	r5, r1, #0
    2860:	40a5      	lsls	r5, r4
    2862:	432a      	orrs	r2, r5
    2864:	3301      	adds	r3, #1
    2866:	2b12      	cmp	r3, #18
    2868:	d1f2      	bne.n	2850 <v2p_mask+0x8>
    286a:	1c10      	adds	r0, r2, #0
    286c:	bd30      	pop	{r4, r5, pc}
    286e:	46c0      	nop			; (mov r8, r8)
    2870:	e5007fa8 	.word	0xe5007fa8

00002874 <rtr_mc_clear>:
    2874:	b5f7      	push	{r0, r1, r2, r4, r5, r6, r7, lr}
    2876:	2380      	movs	r3, #128	; 0x80
    2878:	1809      	adds	r1, r1, r0
    287a:	1c04      	adds	r4, r0, #0
    287c:	00db      	lsls	r3, r3, #3
    287e:	2000      	movs	r0, #0
    2880:	4299      	cmp	r1, r3
    2882:	d81b      	bhi.n	28bc <rtr_mc_clear+0x48>
    2884:	4d0e      	ldr	r5, [pc, #56]	; (28c0 <rtr_mc_clear+0x4c>)
    2886:	0122      	lsls	r2, r4, #4
    2888:	682d      	ldr	r5, [r5, #0]
    288a:	2601      	movs	r6, #1
    288c:	18aa      	adds	r2, r5, r2
    288e:	25ff      	movs	r5, #255	; 0xff
    2890:	00a3      	lsls	r3, r4, #2
    2892:	062d      	lsls	r5, r5, #24
    2894:	4276      	negs	r6, r6
    2896:	e00c      	b.n	28b2 <rtr_mc_clear+0x3e>
    2898:	4f0a      	ldr	r7, [pc, #40]	; (28c4 <rtr_mc_clear+0x50>)
    289a:	3401      	adds	r4, #1
    289c:	50fd      	str	r5, [r7, r3]
    289e:	4f0a      	ldr	r7, [pc, #40]	; (28c8 <rtr_mc_clear+0x54>)
    28a0:	6055      	str	r5, [r2, #4]
    28a2:	50f8      	str	r0, [r7, r3]
    28a4:	4f09      	ldr	r7, [pc, #36]	; (28cc <rtr_mc_clear+0x58>)
    28a6:	60d0      	str	r0, [r2, #12]
    28a8:	19db      	adds	r3, r3, r7
    28aa:	601e      	str	r6, [r3, #0]
    28ac:	9b01      	ldr	r3, [sp, #4]
    28ae:	6096      	str	r6, [r2, #8]
    28b0:	3210      	adds	r2, #16
    28b2:	1d1f      	adds	r7, r3, #4
    28b4:	9701      	str	r7, [sp, #4]
    28b6:	428c      	cmp	r4, r1
    28b8:	d3ee      	bcc.n	2898 <rtr_mc_clear+0x24>
    28ba:	2001      	movs	r0, #1
    28bc:	bdfe      	pop	{r1, r2, r3, r4, r5, r6, r7, pc}
    28be:	46c0      	nop			; (mov r8, r8)
    28c0:	e5007fd4 	.word	0xe5007fd4
    28c4:	e1004000 	.word	0xe1004000
    28c8:	e100c000 	.word	0xe100c000
    28cc:	e1008000 	.word	0xe1008000

000028d0 <rtr_mc_set>:
    28d0:	b5f7      	push	{r0, r1, r2, r4, r5, r6, r7, lr}
    28d2:	1c1f      	adds	r7, r3, #0
    28d4:	4b14      	ldr	r3, [pc, #80]	; (2928 <rtr_mc_set+0x58>)
    28d6:	1c05      	adds	r5, r0, #0
    28d8:	1c0e      	adds	r6, r1, #0
    28da:	9201      	str	r2, [sp, #4]
    28dc:	2000      	movs	r0, #0
    28de:	429d      	cmp	r5, r3
    28e0:	d821      	bhi.n	2926 <rtr_mc_set+0x56>
    28e2:	4a12      	ldr	r2, [pc, #72]	; (292c <rtr_mc_set+0x5c>)
    28e4:	012b      	lsls	r3, r5, #4
    28e6:	6814      	ldr	r4, [r2, #0]
    28e8:	0238      	lsls	r0, r7, #8
    28ea:	18e4      	adds	r4, r4, r3
    28ec:	0a03      	lsrs	r3, r0, #8
    28ee:	6063      	str	r3, [r4, #4]
    28f0:	235c      	movs	r3, #92	; 0x5c
    28f2:	781a      	ldrb	r2, [r3, #0]
    28f4:	4b0e      	ldr	r3, [pc, #56]	; (2930 <rtr_mc_set+0x60>)
    28f6:	0b80      	lsrs	r0, r0, #14
    28f8:	18d2      	adds	r2, r2, r3
    28fa:	4b0e      	ldr	r3, [pc, #56]	; (2934 <rtr_mc_set+0x64>)
    28fc:	00ad      	lsls	r5, r5, #2
    28fe:	681b      	ldr	r3, [r3, #0]
    2900:	021b      	lsls	r3, r3, #8
    2902:	18d3      	adds	r3, r2, r3
    2904:	8063      	strh	r3, [r4, #2]
    2906:	f7ff ff9f 	bl	2848 <v2p_mask>
    290a:	233f      	movs	r3, #63	; 0x3f
    290c:	401f      	ands	r7, r3
    290e:	4b0a      	ldr	r3, [pc, #40]	; (2938 <rtr_mc_set+0x68>)
    2910:	9a01      	ldr	r2, [sp, #4]
    2912:	0180      	lsls	r0, r0, #6
    2914:	4307      	orrs	r7, r0
    2916:	50ef      	str	r7, [r5, r3]
    2918:	4b08      	ldr	r3, [pc, #32]	; (293c <rtr_mc_set+0x6c>)
    291a:	2001      	movs	r0, #1
    291c:	50ee      	str	r6, [r5, r3]
    291e:	4b08      	ldr	r3, [pc, #32]	; (2940 <rtr_mc_set+0x70>)
    2920:	60a6      	str	r6, [r4, #8]
    2922:	50ea      	str	r2, [r5, r3]
    2924:	60e2      	str	r2, [r4, #12]
    2926:	bdfe      	pop	{r1, r2, r3, r4, r5, r6, r7, pc}
    2928:	000003ff 	.word	0x000003ff
    292c:	e5007fd4 	.word	0xe5007fd4
    2930:	ffff8000 	.word	0xffff8000
    2934:	00405960 	.word	0x00405960
    2938:	e1004000 	.word	0xe1004000
    293c:	e1008000 	.word	0xe1008000
    2940:	e100c000 	.word	0xe100c000

00002944 <rtr_mc_load>:
    2944:	b570      	push	{r4, r5, r6, lr}
    2946:	1c04      	adds	r4, r0, #0
    2948:	1c15      	adds	r5, r2, #0
    294a:	2900      	cmp	r1, #0
    294c:	d100      	bne.n	2950 <rtr_mc_load+0xc>
    294e:	8841      	ldrh	r1, [r0, #2]
    2950:	2380      	movs	r3, #128	; 0x80
    2952:	00db      	lsls	r3, r3, #3
    2954:	4299      	cmp	r1, r3
    2956:	d802      	bhi.n	295e <rtr_mc_load+0x1a>
    2958:	0109      	lsls	r1, r1, #4
    295a:	1866      	adds	r6, r4, r1
    295c:	e00c      	b.n	2978 <rtr_mc_load+0x34>
    295e:	2000      	movs	r0, #0
    2960:	e00d      	b.n	297e <rtr_mc_load+0x3a>
    2962:	8820      	ldrh	r0, [r4, #0]
    2964:	4b06      	ldr	r3, [pc, #24]	; (2980 <rtr_mc_load+0x3c>)
    2966:	1940      	adds	r0, r0, r5
    2968:	4298      	cmp	r0, r3
    296a:	d8f8      	bhi.n	295e <rtr_mc_load+0x1a>
    296c:	68a1      	ldr	r1, [r4, #8]
    296e:	68e2      	ldr	r2, [r4, #12]
    2970:	6863      	ldr	r3, [r4, #4]
    2972:	f7ff ffad 	bl	28d0 <rtr_mc_set>
    2976:	3410      	adds	r4, #16
    2978:	42b4      	cmp	r4, r6
    297a:	d1f2      	bne.n	2962 <rtr_mc_load+0x1e>
    297c:	2001      	movs	r0, #1
    297e:	bd70      	pop	{r4, r5, r6, pc}
    2980:	000003ff 	.word	0x000003ff

00002984 <sark_fiq_han>:
    2984:	e92d000c 	push	{r2, r3}
    2988:	e3a03202 	mov	r3, #536870912	; 0x20000000
    298c:	e5933014 	ldr	r3, [r3, #20]
    2990:	e59f3010 	ldr	r3, [pc, #16]	; 29a8 <sark_fiq_han+0x24>
    2994:	e5932038 	ldr	r2, [r3, #56]	; 0x38
    2998:	e2822001 	add	r2, r2, #1
    299c:	e5832038 	str	r2, [r3, #56]	; 0x38
    29a0:	e8bd000c 	pop	{r2, r3}
    29a4:	e25ef004 	subs	pc, lr, #4
    29a8:	00405960 	.word	0x00405960

000029ac <sark_xalloc>:
    29ac:	b5f7      	push	{r0, r1, r2, r4, r5, r6, r7, lr}
    29ae:	1c07      	adds	r7, r0, #0
    29b0:	1c15      	adds	r5, r2, #0
    29b2:	2aff      	cmp	r2, #255	; 0xff
    29b4:	d858      	bhi.n	2a68 <sark_xalloc+0xbc>
    29b6:	2900      	cmp	r1, #0
    29b8:	d100      	bne.n	29bc <sark_xalloc+0x10>
    29ba:	e055      	b.n	2a68 <sark_xalloc+0xbc>
    29bc:	0a1e      	lsrs	r6, r3, #8
    29be:	0798      	lsls	r0, r3, #30
    29c0:	d401      	bmi.n	29c6 <sark_xalloc+0x1a>
    29c2:	225c      	movs	r2, #92	; 0x5c
    29c4:	7816      	ldrb	r6, [r2, #0]
    29c6:	0236      	lsls	r6, r6, #8
    29c8:	1976      	adds	r6, r6, r5
    29ca:	2d00      	cmp	r5, #0
    29cc:	d005      	beq.n	29da <sark_xalloc+0x2e>
    29ce:	4a27      	ldr	r2, [pc, #156]	; (2a6c <sark_xalloc+0xc0>)
    29d0:	00b0      	lsls	r0, r6, #2
    29d2:	6812      	ldr	r2, [r2, #0]
    29d4:	5882      	ldr	r2, [r0, r2]
    29d6:	2a00      	cmp	r2, #0
    29d8:	d146      	bne.n	2a68 <sark_xalloc+0xbc>
    29da:	2203      	movs	r2, #3
    29dc:	3103      	adds	r1, #3
    29de:	4391      	bics	r1, r2
    29e0:	2201      	movs	r2, #1
    29e2:	3108      	adds	r1, #8
    29e4:	4013      	ands	r3, r2
    29e6:	9101      	str	r1, [sp, #4]
    29e8:	9300      	str	r3, [sp, #0]
    29ea:	d003      	beq.n	29f4 <sark_xalloc+0x48>
    29ec:	2006      	movs	r0, #6
    29ee:	f7fd ebfc 	blx	1e8 <sark_lock_get>
    29f2:	4684      	mov	ip, r0
    29f4:	683c      	ldr	r4, [r7, #0]
    29f6:	2200      	movs	r2, #0
    29f8:	e02d      	b.n	2a56 <sark_xalloc+0xaa>
    29fa:	9801      	ldr	r0, [sp, #4]
    29fc:	6821      	ldr	r1, [r4, #0]
    29fe:	1823      	adds	r3, r4, r0
    2a00:	42a3      	cmp	r3, r4
    2a02:	d92a      	bls.n	2a5a <sark_xalloc+0xae>
    2a04:	428b      	cmp	r3, r1
    2a06:	d902      	bls.n	2a0e <sark_xalloc+0x62>
    2a08:	1c22      	adds	r2, r4, #0
    2a0a:	6864      	ldr	r4, [r4, #4]
    2a0c:	e023      	b.n	2a56 <sark_xalloc+0xaa>
    2a0e:	1c18      	adds	r0, r3, #0
    2a10:	3008      	adds	r0, #8
    2a12:	4281      	cmp	r1, r0
    2a14:	d904      	bls.n	2a20 <sark_xalloc+0x74>
    2a16:	6019      	str	r1, [r3, #0]
    2a18:	6861      	ldr	r1, [r4, #4]
    2a1a:	6059      	str	r1, [r3, #4]
    2a1c:	6023      	str	r3, [r4, #0]
    2a1e:	6063      	str	r3, [r4, #4]
    2a20:	6863      	ldr	r3, [r4, #4]
    2a22:	2a00      	cmp	r2, #0
    2a24:	d001      	beq.n	2a2a <sark_xalloc+0x7e>
    2a26:	6053      	str	r3, [r2, #4]
    2a28:	e000      	b.n	2a2c <sark_xalloc+0x80>
    2a2a:	603b      	str	r3, [r7, #0]
    2a2c:	9a00      	ldr	r2, [sp, #0]
    2a2e:	2a00      	cmp	r2, #0
    2a30:	d003      	beq.n	2a3a <sark_xalloc+0x8e>
    2a32:	4660      	mov	r0, ip
    2a34:	2106      	movs	r1, #6
    2a36:	f7fd ebea 	blx	20c <sark_lock_free>
    2a3a:	480d      	ldr	r0, [pc, #52]	; (2a70 <sark_xalloc+0xc4>)
    2a3c:	1833      	adds	r3, r6, r0
    2a3e:	6063      	str	r3, [r4, #4]
    2a40:	2d00      	cmp	r5, #0
    2a42:	d005      	beq.n	2a50 <sark_xalloc+0xa4>
    2a44:	4b09      	ldr	r3, [pc, #36]	; (2a6c <sark_xalloc+0xc0>)
    2a46:	1c22      	adds	r2, r4, #0
    2a48:	681b      	ldr	r3, [r3, #0]
    2a4a:	00b6      	lsls	r6, r6, #2
    2a4c:	3208      	adds	r2, #8
    2a4e:	50f2      	str	r2, [r6, r3]
    2a50:	1c20      	adds	r0, r4, #0
    2a52:	3008      	adds	r0, #8
    2a54:	e009      	b.n	2a6a <sark_xalloc+0xbe>
    2a56:	2c00      	cmp	r4, #0
    2a58:	d1cf      	bne.n	29fa <sark_xalloc+0x4e>
    2a5a:	9900      	ldr	r1, [sp, #0]
    2a5c:	2900      	cmp	r1, #0
    2a5e:	d003      	beq.n	2a68 <sark_xalloc+0xbc>
    2a60:	4660      	mov	r0, ip
    2a62:	2106      	movs	r1, #6
    2a64:	f7fd ebd2 	blx	20c <sark_lock_free>
    2a68:	2000      	movs	r0, #0
    2a6a:	bdfe      	pop	{r1, r2, r3, r4, r5, r6, r7, pc}
    2a6c:	e5007fdc 	.word	0xe5007fdc
    2a70:	ffff0000 	.word	0xffff0000

00002a74 <sark_alloc>:
    2a74:	4a04      	ldr	r2, [pc, #16]	; (2a88 <sark_alloc+0x14>)
    2a76:	b508      	push	{r3, lr}
    2a78:	1c03      	adds	r3, r0, #0
    2a7a:	6990      	ldr	r0, [r2, #24]
    2a7c:	2200      	movs	r2, #0
    2a7e:	4359      	muls	r1, r3
    2a80:	1c13      	adds	r3, r2, #0
    2a82:	f7ff ff93 	bl	29ac <sark_xalloc>
    2a86:	bd08      	pop	{r3, pc}
    2a88:	00405960 	.word	0x00405960

00002a8c <sark_heap_init>:
    2a8c:	1c03      	adds	r3, r0, #0
    2a8e:	330c      	adds	r3, #12
    2a90:	3908      	subs	r1, #8
    2a92:	6043      	str	r3, [r0, #4]
    2a94:	6003      	str	r3, [r0, #0]
    2a96:	2300      	movs	r3, #0
    2a98:	6081      	str	r1, [r0, #8]
    2a9a:	60c1      	str	r1, [r0, #12]
    2a9c:	6103      	str	r3, [r0, #16]
    2a9e:	600b      	str	r3, [r1, #0]
    2aa0:	604b      	str	r3, [r1, #4]
    2aa2:	4770      	bx	lr

00002aa4 <rtr_alloc_id>:
    2aa4:	b5f7      	push	{r0, r1, r2, r4, r5, r6, r7, lr}
    2aa6:	2400      	movs	r4, #0
    2aa8:	1c06      	adds	r6, r0, #0
    2aaa:	9101      	str	r1, [sp, #4]
    2aac:	42a0      	cmp	r0, r4
    2aae:	d02f      	beq.n	2b10 <rtr_alloc_id+0x6c>
    2ab0:	4b18      	ldr	r3, [pc, #96]	; (2b14 <rtr_alloc_id+0x70>)
    2ab2:	2007      	movs	r0, #7
    2ab4:	681d      	ldr	r5, [r3, #0]
    2ab6:	f7fd eb98 	blx	1e8 <sark_lock_get>
    2aba:	4b17      	ldr	r3, [pc, #92]	; (2b18 <rtr_alloc_id+0x74>)
    2abc:	2100      	movs	r1, #0
    2abe:	881c      	ldrh	r4, [r3, #0]
    2ac0:	469c      	mov	ip, r3
    2ac2:	e020      	b.n	2b06 <rtr_alloc_id+0x62>
    2ac4:	0123      	lsls	r3, r4, #4
    2ac6:	18eb      	adds	r3, r5, r3
    2ac8:	881f      	ldrh	r7, [r3, #0]
    2aca:	19a2      	adds	r2, r4, r6
    2acc:	42ba      	cmp	r2, r7
    2ace:	d902      	bls.n	2ad6 <rtr_alloc_id+0x32>
    2ad0:	1c21      	adds	r1, r4, #0
    2ad2:	885c      	ldrh	r4, [r3, #2]
    2ad4:	e017      	b.n	2b06 <rtr_alloc_id+0x62>
    2ad6:	42ba      	cmp	r2, r7
    2ad8:	d206      	bcs.n	2ae8 <rtr_alloc_id+0x44>
    2ada:	0116      	lsls	r6, r2, #4
    2adc:	19ae      	adds	r6, r5, r6
    2ade:	8037      	strh	r7, [r6, #0]
    2ae0:	885f      	ldrh	r7, [r3, #2]
    2ae2:	8077      	strh	r7, [r6, #2]
    2ae4:	801a      	strh	r2, [r3, #0]
    2ae6:	805a      	strh	r2, [r3, #2]
    2ae8:	885a      	ldrh	r2, [r3, #2]
    2aea:	2900      	cmp	r1, #0
    2aec:	d003      	beq.n	2af6 <rtr_alloc_id+0x52>
    2aee:	0109      	lsls	r1, r1, #4
    2af0:	186d      	adds	r5, r5, r1
    2af2:	806a      	strh	r2, [r5, #2]
    2af4:	e001      	b.n	2afa <rtr_alloc_id+0x56>
    2af6:	4661      	mov	r1, ip
    2af8:	800a      	strh	r2, [r1, #0]
    2afa:	2280      	movs	r2, #128	; 0x80
    2afc:	9901      	ldr	r1, [sp, #4]
    2afe:	0212      	lsls	r2, r2, #8
    2b00:	430a      	orrs	r2, r1
    2b02:	805a      	strh	r2, [r3, #2]
    2b04:	e001      	b.n	2b0a <rtr_alloc_id+0x66>
    2b06:	2c00      	cmp	r4, #0
    2b08:	d1dc      	bne.n	2ac4 <rtr_alloc_id+0x20>
    2b0a:	2107      	movs	r1, #7
    2b0c:	f7fd eb7e 	blx	20c <sark_lock_free>
    2b10:	1c20      	adds	r0, r4, #0
    2b12:	bdfe      	pop	{r1, r2, r3, r4, r5, r6, r7, pc}
    2b14:	e5007fd4 	.word	0xe5007fd4
    2b18:	e5007fe0 	.word	0xe5007fe0

00002b1c <rtr_free>:
    2b1c:	4b23      	ldr	r3, [pc, #140]	; (2bac <rtr_free+0x90>)
    2b1e:	b5f7      	push	{r0, r1, r2, r4, r5, r6, r7, lr}
    2b20:	1e42      	subs	r2, r0, #1
    2b22:	1c04      	adds	r4, r0, #0
    2b24:	9101      	str	r1, [sp, #4]
    2b26:	429a      	cmp	r2, r3
    2b28:	d83f      	bhi.n	2baa <rtr_free+0x8e>
    2b2a:	4b21      	ldr	r3, [pc, #132]	; (2bb0 <rtr_free+0x94>)
    2b2c:	2007      	movs	r0, #7
    2b2e:	681e      	ldr	r6, [r3, #0]
    2b30:	f7fd eb5a 	blx	1e8 <sark_lock_get>
    2b34:	4b1f      	ldr	r3, [pc, #124]	; (2bb4 <rtr_free+0x98>)
    2b36:	9901      	ldr	r1, [sp, #4]
    2b38:	881d      	ldrh	r5, [r3, #0]
    2b3a:	1c07      	adds	r7, r0, #0
    2b3c:	2900      	cmp	r1, #0
    2b3e:	d005      	beq.n	2b4c <rtr_free+0x30>
    2b40:	0123      	lsls	r3, r4, #4
    2b42:	5b99      	ldrh	r1, [r3, r6]
    2b44:	1c20      	adds	r0, r4, #0
    2b46:	1b09      	subs	r1, r1, r4
    2b48:	f7ff fe94 	bl	2874 <rtr_mc_clear>
    2b4c:	2200      	movs	r2, #0
    2b4e:	e005      	b.n	2b5c <rtr_free+0x40>
    2b50:	42ac      	cmp	r4, r5
    2b52:	d305      	bcc.n	2b60 <rtr_free+0x44>
    2b54:	012b      	lsls	r3, r5, #4
    2b56:	18f3      	adds	r3, r6, r3
    2b58:	1c2a      	adds	r2, r5, #0
    2b5a:	885d      	ldrh	r5, [r3, #2]
    2b5c:	2d00      	cmp	r5, #0
    2b5e:	d1f7      	bne.n	2b50 <rtr_free+0x34>
    2b60:	0123      	lsls	r3, r4, #4
    2b62:	18f3      	adds	r3, r6, r3
    2b64:	805d      	strh	r5, [r3, #2]
    2b66:	2a00      	cmp	r2, #0
    2b68:	d003      	beq.n	2b72 <rtr_free+0x56>
    2b6a:	0111      	lsls	r1, r2, #4
    2b6c:	1871      	adds	r1, r6, r1
    2b6e:	804c      	strh	r4, [r1, #2]
    2b70:	e001      	b.n	2b76 <rtr_free+0x5a>
    2b72:	4910      	ldr	r1, [pc, #64]	; (2bb4 <rtr_free+0x98>)
    2b74:	800c      	strh	r4, [r1, #0]
    2b76:	2d00      	cmp	r5, #0
    2b78:	d008      	beq.n	2b8c <rtr_free+0x70>
    2b7a:	8819      	ldrh	r1, [r3, #0]
    2b7c:	42a9      	cmp	r1, r5
    2b7e:	d105      	bne.n	2b8c <rtr_free+0x70>
    2b80:	012d      	lsls	r5, r5, #4
    2b82:	1975      	adds	r5, r6, r5
    2b84:	8829      	ldrh	r1, [r5, #0]
    2b86:	8019      	strh	r1, [r3, #0]
    2b88:	8869      	ldrh	r1, [r5, #2]
    2b8a:	8059      	strh	r1, [r3, #2]
    2b8c:	2a00      	cmp	r2, #0
    2b8e:	d008      	beq.n	2ba2 <rtr_free+0x86>
    2b90:	0112      	lsls	r2, r2, #4
    2b92:	18b6      	adds	r6, r6, r2
    2b94:	8832      	ldrh	r2, [r6, #0]
    2b96:	42a2      	cmp	r2, r4
    2b98:	d103      	bne.n	2ba2 <rtr_free+0x86>
    2b9a:	881a      	ldrh	r2, [r3, #0]
    2b9c:	8032      	strh	r2, [r6, #0]
    2b9e:	885b      	ldrh	r3, [r3, #2]
    2ba0:	8073      	strh	r3, [r6, #2]
    2ba2:	1c38      	adds	r0, r7, #0
    2ba4:	2107      	movs	r1, #7
    2ba6:	f7fd eb32 	blx	20c <sark_lock_free>
    2baa:	bdf7      	pop	{r0, r1, r2, r4, r5, r6, r7, pc}
    2bac:	000003fe 	.word	0x000003fe
    2bb0:	e5007fd4 	.word	0xe5007fd4
    2bb4:	e5007fe0 	.word	0xe5007fe0

00002bb8 <rtr_free_id>:
    2bb8:	4b0e      	ldr	r3, [pc, #56]	; (2bf4 <rtr_free_id+0x3c>)
    2bba:	b5f7      	push	{r0, r1, r2, r4, r5, r6, r7, lr}
    2bbc:	2680      	movs	r6, #128	; 0x80
    2bbe:	681b      	ldr	r3, [r3, #0]
    2bc0:	0236      	lsls	r6, r6, #8
    2bc2:	4306      	orrs	r6, r0
    2bc4:	1c0f      	adds	r7, r1, #0
    2bc6:	9301      	str	r3, [sp, #4]
    2bc8:	2400      	movs	r4, #0
    2bca:	2001      	movs	r0, #1
    2bcc:	e009      	b.n	2be2 <rtr_free_id+0x2a>
    2bce:	886a      	ldrh	r2, [r5, #2]
    2bd0:	4b09      	ldr	r3, [pc, #36]	; (2bf8 <rtr_free_id+0x40>)
    2bd2:	4013      	ands	r3, r2
    2bd4:	42b3      	cmp	r3, r6
    2bd6:	d103      	bne.n	2be0 <rtr_free_id+0x28>
    2bd8:	1c39      	adds	r1, r7, #0
    2bda:	f7ff ff9f 	bl	2b1c <rtr_free>
    2bde:	3401      	adds	r4, #1
    2be0:	8828      	ldrh	r0, [r5, #0]
    2be2:	9b01      	ldr	r3, [sp, #4]
    2be4:	0105      	lsls	r5, r0, #4
    2be6:	195d      	adds	r5, r3, r5
    2be8:	882b      	ldrh	r3, [r5, #0]
    2bea:	2b00      	cmp	r3, #0
    2bec:	d1ef      	bne.n	2bce <rtr_free_id+0x16>
    2bee:	1c20      	adds	r0, r4, #0
    2bf0:	bdfe      	pop	{r1, r2, r3, r4, r5, r6, r7, pc}
    2bf2:	46c0      	nop			; (mov r8, r8)
    2bf4:	e5007fd4 	.word	0xe5007fd4
    2bf8:	ffffe0ff 	.word	0xffffe0ff

00002bfc <io_buf_init>:
    2bfc:	b538      	push	{r3, r4, r5, lr}
    2bfe:	4d0c      	ldr	r5, [pc, #48]	; (2c30 <io_buf_init+0x34>)
    2c00:	4b0c      	ldr	r3, [pc, #48]	; (2c34 <io_buf_init+0x38>)
    2c02:	6d29      	ldr	r1, [r5, #80]	; 0x50
    2c04:	6818      	ldr	r0, [r3, #0]
    2c06:	3110      	adds	r1, #16
    2c08:	2200      	movs	r2, #0
    2c0a:	2301      	movs	r3, #1
    2c0c:	f7ff fece 	bl	29ac <sark_xalloc>
    2c10:	1e04      	subs	r4, r0, #0
    2c12:	d102      	bne.n	2c1a <io_buf_init+0x1e>
    2c14:	200e      	movs	r0, #14
    2c16:	f7fd fa89 	bl	12c <rt_error>
    2c1a:	69eb      	ldr	r3, [r5, #28]
    2c1c:	6063      	str	r3, [r4, #4]
    2c1e:	4a06      	ldr	r2, [pc, #24]	; (2c38 <io_buf_init+0x3c>)
    2c20:	8b2b      	ldrh	r3, [r5, #24]
    2c22:	60a3      	str	r3, [r4, #8]
    2c24:	2300      	movs	r3, #0
    2c26:	1c20      	adds	r0, r4, #0
    2c28:	6023      	str	r3, [r4, #0]
    2c2a:	6013      	str	r3, [r2, #0]
    2c2c:	60e3      	str	r3, [r4, #12]
    2c2e:	bd38      	pop	{r3, r4, r5, pc}
    2c30:	e5007f00 	.word	0xe5007f00
    2c34:	e5007fd0 	.word	0xe5007fd0
    2c38:	004051dc 	.word	0x004051dc

00002c3c <io_put_char>:
    2c3c:	b570      	push	{r4, r5, r6, lr}
    2c3e:	1c0d      	adds	r5, r1, #0
    2c40:	2803      	cmp	r0, #3
    2c42:	d907      	bls.n	2c54 <io_put_char+0x18>
    2c44:	4a34      	ldr	r2, [pc, #208]	; (2d18 <io_put_char+0xdc>)
    2c46:	6813      	ldr	r3, [r2, #0]
    2c48:	54c1      	strb	r1, [r0, r3]
    2c4a:	3301      	adds	r3, #1
    2c4c:	6013      	str	r3, [r2, #0]
    2c4e:	2200      	movs	r2, #0
    2c50:	54c2      	strb	r2, [r0, r3]
    2c52:	e060      	b.n	2d16 <io_put_char+0xda>
    2c54:	2800      	cmp	r0, #0
    2c56:	d13a      	bne.n	2cce <io_put_char+0x92>
    2c58:	4b30      	ldr	r3, [pc, #192]	; (2d1c <io_put_char+0xe0>)
    2c5a:	681b      	ldr	r3, [r3, #0]
    2c5c:	2b00      	cmp	r3, #0
    2c5e:	d11d      	bne.n	2c9c <io_put_char+0x60>
    2c60:	2001      	movs	r0, #1
    2c62:	2192      	movs	r1, #146	; 0x92
    2c64:	4081      	lsls	r1, r0
    2c66:	f7ff ff05 	bl	2a74 <sark_alloc>
    2c6a:	1e04      	subs	r4, r0, #0
    2c6c:	d102      	bne.n	2c74 <io_put_char+0x38>
    2c6e:	200e      	movs	r0, #14
    2c70:	f7fd fa5c 	bl	12c <rt_error>
    2c74:	2307      	movs	r3, #7
    2c76:	7223      	strb	r3, [r4, #8]
    2c78:	2300      	movs	r3, #0
    2c7a:	7263      	strb	r3, [r4, #9]
    2c7c:	23ff      	movs	r3, #255	; 0xff
    2c7e:	72a3      	strb	r3, [r4, #10]
    2c80:	4b27      	ldr	r3, [pc, #156]	; (2d20 <io_put_char+0xe4>)
    2c82:	889a      	ldrh	r2, [r3, #4]
    2c84:	81a2      	strh	r2, [r4, #12]
    2c86:	4a27      	ldr	r2, [pc, #156]	; (2d24 <io_put_char+0xe8>)
    2c88:	6812      	ldr	r2, [r2, #0]
    2c8a:	72e2      	strb	r2, [r4, #11]
    2c8c:	881b      	ldrh	r3, [r3, #0]
    2c8e:	81e3      	strh	r3, [r4, #14]
    2c90:	2340      	movs	r3, #64	; 0x40
    2c92:	8223      	strh	r3, [r4, #16]
    2c94:	230c      	movs	r3, #12
    2c96:	80a3      	strh	r3, [r4, #4]
    2c98:	4b20      	ldr	r3, [pc, #128]	; (2d1c <io_put_char+0xe0>)
    2c9a:	601c      	str	r4, [r3, #0]
    2c9c:	4b1f      	ldr	r3, [pc, #124]	; (2d1c <io_put_char+0xe0>)
    2c9e:	6818      	ldr	r0, [r3, #0]
    2ca0:	8883      	ldrh	r3, [r0, #4]
    2ca2:	18c2      	adds	r2, r0, r3
    2ca4:	3301      	adds	r3, #1
    2ca6:	041b      	lsls	r3, r3, #16
    2ca8:	0c1b      	lsrs	r3, r3, #16
    2caa:	7215      	strb	r5, [r2, #8]
    2cac:	8083      	strh	r3, [r0, #4]
    2cae:	2d00      	cmp	r5, #0
    2cb0:	d005      	beq.n	2cbe <io_put_char+0x82>
    2cb2:	2d0a      	cmp	r5, #10
    2cb4:	d003      	beq.n	2cbe <io_put_char+0x82>
    2cb6:	2286      	movs	r2, #134	; 0x86
    2cb8:	0052      	lsls	r2, r2, #1
    2cba:	4293      	cmp	r3, r2
    2cbc:	d12b      	bne.n	2d16 <io_put_char+0xda>
    2cbe:	210a      	movs	r1, #10
    2cc0:	f7ff fb60 	bl	2384 <sark_msg_send>
    2cc4:	4b15      	ldr	r3, [pc, #84]	; (2d1c <io_put_char+0xe0>)
    2cc6:	220c      	movs	r2, #12
    2cc8:	681b      	ldr	r3, [r3, #0]
    2cca:	809a      	strh	r2, [r3, #4]
    2ccc:	e023      	b.n	2d16 <io_put_char+0xda>
    2cce:	2802      	cmp	r0, #2
    2cd0:	d121      	bne.n	2d16 <io_put_char+0xda>
    2cd2:	4e15      	ldr	r6, [pc, #84]	; (2d28 <io_put_char+0xec>)
    2cd4:	6833      	ldr	r3, [r6, #0]
    2cd6:	2b00      	cmp	r3, #0
    2cd8:	d105      	bne.n	2ce6 <io_put_char+0xaa>
    2cda:	4b12      	ldr	r3, [pc, #72]	; (2d24 <io_put_char+0xe8>)
    2cdc:	69dc      	ldr	r4, [r3, #28]
    2cde:	f7ff ff8d 	bl	2bfc <io_buf_init>
    2ce2:	65a0      	str	r0, [r4, #88]	; 0x58
    2ce4:	6030      	str	r0, [r6, #0]
    2ce6:	4a11      	ldr	r2, [pc, #68]	; (2d2c <io_put_char+0xf0>)
    2ce8:	6834      	ldr	r4, [r6, #0]
    2cea:	6813      	ldr	r3, [r2, #0]
    2cec:	18e1      	adds	r1, r4, r3
    2cee:	3301      	adds	r3, #1
    2cf0:	6013      	str	r3, [r2, #0]
    2cf2:	4a0b      	ldr	r2, [pc, #44]	; (2d20 <io_put_char+0xe4>)
    2cf4:	740d      	strb	r5, [r1, #16]
    2cf6:	6d12      	ldr	r2, [r2, #80]	; 0x50
    2cf8:	4293      	cmp	r3, r2
    2cfa:	d107      	bne.n	2d0c <io_put_char+0xd0>
    2cfc:	60e3      	str	r3, [r4, #12]
    2cfe:	f7ff ff7d 	bl	2bfc <io_buf_init>
    2d02:	6833      	ldr	r3, [r6, #0]
    2d04:	6020      	str	r0, [r4, #0]
    2d06:	681b      	ldr	r3, [r3, #0]
    2d08:	6033      	str	r3, [r6, #0]
    2d0a:	e004      	b.n	2d16 <io_put_char+0xda>
    2d0c:	2d00      	cmp	r5, #0
    2d0e:	d001      	beq.n	2d14 <io_put_char+0xd8>
    2d10:	2d0a      	cmp	r5, #10
    2d12:	d100      	bne.n	2d16 <io_put_char+0xda>
    2d14:	60e3      	str	r3, [r4, #12]
    2d16:	bd70      	pop	{r4, r5, r6, pc}
    2d18:	004051e0 	.word	0x004051e0
    2d1c:	004051d4 	.word	0x004051d4
    2d20:	e5007f00 	.word	0xe5007f00
    2d24:	00405960 	.word	0x00405960
    2d28:	004051d8 	.word	0x004051d8
    2d2c:	004051dc 	.word	0x004051dc

00002d30 <io_put_fixed>:
    2d30:	b5f0      	push	{r4, r5, r6, r7, lr}
    2d32:	b08d      	sub	sp, #52	; 0x34
    2d34:	9001      	str	r0, [sp, #4]
    2d36:	1c15      	adds	r5, r2, #0
    2d38:	2b0c      	cmp	r3, #12
    2d3a:	d900      	bls.n	2d3e <io_put_fixed+0xe>
    2d3c:	230c      	movs	r3, #12
    2d3e:	1c0a      	adds	r2, r1, #0
    2d40:	2400      	movs	r4, #0
    2d42:	e008      	b.n	2d56 <io_put_fixed+0x26>
    2d44:	0c17      	lsrs	r7, r2, #16
    2d46:	3730      	adds	r7, #48	; 0x30
    2d48:	46bc      	mov	ip, r7
    2d4a:	a805      	add	r0, sp, #20
    2d4c:	3401      	adds	r4, #1
    2d4e:	18c7      	adds	r7, r0, r3
    2d50:	4266      	negs	r6, r4
    2d52:	4660      	mov	r0, ip
    2d54:	55b8      	strb	r0, [r7, r6]
    2d56:	0412      	lsls	r2, r2, #16
    2d58:	0c12      	lsrs	r2, r2, #16
    2d5a:	200a      	movs	r0, #10
    2d5c:	4342      	muls	r2, r0
    2d5e:	429c      	cmp	r4, r3
    2d60:	d1f0      	bne.n	2d44 <io_put_fixed+0x14>
    2d62:	0c12      	lsrs	r2, r2, #16
    2d64:	2004      	movs	r0, #4
    2d66:	4290      	cmp	r0, r2
    2d68:	4180      	sbcs	r0, r0
    2d6a:	2601      	movs	r6, #1
    2d6c:	4240      	negs	r0, r0
    2d6e:	2200      	movs	r2, #0
    2d70:	46b4      	mov	ip, r6
    2d72:	2730      	movs	r7, #48	; 0x30
    2d74:	e00a      	b.n	2d8c <io_put_fixed+0x5c>
    2d76:	a805      	add	r0, sp, #20
    2d78:	5c16      	ldrb	r6, [r2, r0]
    2d7a:	2e38      	cmp	r6, #56	; 0x38
    2d7c:	d902      	bls.n	2d84 <io_put_fixed+0x54>
    2d7e:	5417      	strb	r7, [r2, r0]
    2d80:	2001      	movs	r0, #1
    2d82:	e002      	b.n	2d8a <io_put_fixed+0x5a>
    2d84:	3601      	adds	r6, #1
    2d86:	5416      	strb	r6, [r2, r0]
    2d88:	2000      	movs	r0, #0
    2d8a:	3201      	adds	r2, #1
    2d8c:	429a      	cmp	r2, r3
    2d8e:	d202      	bcs.n	2d96 <io_put_fixed+0x66>
    2d90:	4666      	mov	r6, ip
    2d92:	4230      	tst	r0, r6
    2d94:	d1ef      	bne.n	2d76 <io_put_fixed+0x46>
    2d96:	2b00      	cmp	r3, #0
    2d98:	d003      	beq.n	2da2 <io_put_fixed+0x72>
    2d9a:	242e      	movs	r4, #46	; 0x2e
    2d9c:	aa05      	add	r2, sp, #20
    2d9e:	54d4      	strb	r4, [r2, r3]
    2da0:	1c5c      	adds	r4, r3, #1
    2da2:	0c09      	lsrs	r1, r1, #16
    2da4:	1841      	adds	r1, r0, r1
    2da6:	a803      	add	r0, sp, #12
    2da8:	f7fd ea92 	blx	2d0 <sark_div10>
    2dac:	9a04      	ldr	r2, [sp, #16]
    2dae:	9903      	ldr	r1, [sp, #12]
    2db0:	ab05      	add	r3, sp, #20
    2db2:	3230      	adds	r2, #48	; 0x30
    2db4:	54e2      	strb	r2, [r4, r3]
    2db6:	1c66      	adds	r6, r4, #1
    2db8:	2900      	cmp	r1, #0
    2dba:	d001      	beq.n	2dc0 <io_put_fixed+0x90>
    2dbc:	1c34      	adds	r4, r6, #0
    2dbe:	e7f2      	b.n	2da6 <io_put_fixed+0x76>
    2dc0:	9813      	ldr	r0, [sp, #76]	; 0x4c
    2dc2:	2800      	cmp	r0, #0
    2dc4:	d008      	beq.n	2dd8 <io_put_fixed+0xa8>
    2dc6:	222d      	movs	r2, #45	; 0x2d
    2dc8:	559a      	strb	r2, [r3, r6]
    2dca:	1ca6      	adds	r6, r4, #2
    2dcc:	e004      	b.n	2dd8 <io_put_fixed+0xa8>
    2dce:	9801      	ldr	r0, [sp, #4]
    2dd0:	9912      	ldr	r1, [sp, #72]	; 0x48
    2dd2:	f7ff ff33 	bl	2c3c <io_put_char>
    2dd6:	3d01      	subs	r5, #1
    2dd8:	1c73      	adds	r3, r6, #1
    2dda:	429d      	cmp	r5, r3
    2ddc:	d8f7      	bhi.n	2dce <io_put_fixed+0x9e>
    2dde:	3e01      	subs	r6, #1
    2de0:	ab05      	add	r3, sp, #20
    2de2:	5cf1      	ldrb	r1, [r6, r3]
    2de4:	9801      	ldr	r0, [sp, #4]
    2de6:	f7ff ff29 	bl	2c3c <io_put_char>
    2dea:	2e00      	cmp	r6, #0
    2dec:	d1f7      	bne.n	2dde <io_put_fixed+0xae>
    2dee:	b00d      	add	sp, #52	; 0x34
    2df0:	bdf0      	pop	{r4, r5, r6, r7, pc}
	...

00002df4 <io_printf>:
    2df4:	b40e      	push	{r1, r2, r3}
    2df6:	b5f0      	push	{r4, r5, r6, r7, lr}
    2df8:	b08c      	sub	sp, #48	; 0x30
    2dfa:	1c04      	adds	r4, r0, #0
    2dfc:	9d11      	ldr	r5, [sp, #68]	; 0x44
    2dfe:	2803      	cmp	r0, #3
    2e00:	d100      	bne.n	2e04 <io_printf+0x10>
    2e02:	e145      	b.n	3090 <io_printf+0x29c>
    2e04:	d903      	bls.n	2e0e <io_printf+0x1a>
    2e06:	4aa5      	ldr	r2, [pc, #660]	; (309c <io_printf+0x2a8>)
    2e08:	2300      	movs	r3, #0
    2e0a:	7003      	strb	r3, [r0, #0]
    2e0c:	6013      	str	r3, [r2, #0]
    2e0e:	ab12      	add	r3, sp, #72	; 0x48
    2e10:	9305      	str	r3, [sp, #20]
    2e12:	7829      	ldrb	r1, [r5, #0]
    2e14:	2900      	cmp	r1, #0
    2e16:	d100      	bne.n	2e1a <io_printf+0x26>
    2e18:	e13a      	b.n	3090 <io_printf+0x29c>
    2e1a:	2925      	cmp	r1, #37	; 0x25
    2e1c:	d001      	beq.n	2e22 <io_printf+0x2e>
    2e1e:	3501      	adds	r5, #1
    2e20:	e053      	b.n	2eca <io_printf+0xd6>
    2e22:	7869      	ldrb	r1, [r5, #1]
    2e24:	3502      	adds	r5, #2
    2e26:	2900      	cmp	r1, #0
    2e28:	d100      	bne.n	2e2c <io_printf+0x38>
    2e2a:	e131      	b.n	3090 <io_printf+0x29c>
    2e2c:	2930      	cmp	r1, #48	; 0x30
    2e2e:	d002      	beq.n	2e36 <io_printf+0x42>
    2e30:	2020      	movs	r0, #32
    2e32:	9003      	str	r0, [sp, #12]
    2e34:	e000      	b.n	2e38 <io_printf+0x44>
    2e36:	9103      	str	r1, [sp, #12]
    2e38:	2600      	movs	r6, #0
    2e3a:	220a      	movs	r2, #10
    2e3c:	e007      	b.n	2e4e <io_printf+0x5a>
    2e3e:	4356      	muls	r6, r2
    2e40:	1876      	adds	r6, r6, r1
    2e42:	7829      	ldrb	r1, [r5, #0]
    2e44:	3e30      	subs	r6, #48	; 0x30
    2e46:	3501      	adds	r5, #1
    2e48:	2900      	cmp	r1, #0
    2e4a:	d100      	bne.n	2e4e <io_printf+0x5a>
    2e4c:	e120      	b.n	3090 <io_printf+0x29c>
    2e4e:	1c0b      	adds	r3, r1, #0
    2e50:	3b30      	subs	r3, #48	; 0x30
    2e52:	2b09      	cmp	r3, #9
    2e54:	d9f3      	bls.n	2e3e <io_printf+0x4a>
    2e56:	1c37      	adds	r7, r6, #0
    2e58:	2306      	movs	r3, #6
    2e5a:	292e      	cmp	r1, #46	; 0x2e
    2e5c:	d110      	bne.n	2e80 <io_printf+0x8c>
    2e5e:	7829      	ldrb	r1, [r5, #0]
    2e60:	2300      	movs	r3, #0
    2e62:	3501      	adds	r5, #1
    2e64:	200a      	movs	r0, #10
    2e66:	e004      	b.n	2e72 <io_printf+0x7e>
    2e68:	4343      	muls	r3, r0
    2e6a:	185b      	adds	r3, r3, r1
    2e6c:	3b30      	subs	r3, #48	; 0x30
    2e6e:	7829      	ldrb	r1, [r5, #0]
    2e70:	3501      	adds	r5, #1
    2e72:	1c0a      	adds	r2, r1, #0
    2e74:	3a30      	subs	r2, #48	; 0x30
    2e76:	2a09      	cmp	r2, #9
    2e78:	d9f6      	bls.n	2e68 <io_printf+0x74>
    2e7a:	2900      	cmp	r1, #0
    2e7c:	d100      	bne.n	2e80 <io_printf+0x8c>
    2e7e:	e107      	b.n	3090 <io_printf+0x29c>
    2e80:	296b      	cmp	r1, #107	; 0x6b
    2e82:	d100      	bne.n	2e86 <io_printf+0x92>
    2e84:	e0b0      	b.n	2fe8 <io_printf+0x1f4>
    2e86:	d80d      	bhi.n	2ea4 <io_printf+0xb0>
    2e88:	2963      	cmp	r1, #99	; 0x63
    2e8a:	d01a      	beq.n	2ec2 <io_printf+0xce>
    2e8c:	d805      	bhi.n	2e9a <io_printf+0xa6>
    2e8e:	294b      	cmp	r1, #75	; 0x4b
    2e90:	d100      	bne.n	2e94 <io_printf+0xa0>
    2e92:	e09a      	b.n	2fca <io_printf+0x1d6>
    2e94:	2952      	cmp	r1, #82	; 0x52
    2e96:	d118      	bne.n	2eca <io_printf+0xd6>
    2e98:	e09e      	b.n	2fd8 <io_printf+0x1e4>
    2e9a:	2964      	cmp	r1, #100	; 0x64
    2e9c:	d036      	beq.n	2f0c <io_printf+0x118>
    2e9e:	2966      	cmp	r1, #102	; 0x66
    2ea0:	d113      	bne.n	2eca <io_printf+0xd6>
    2ea2:	e092      	b.n	2fca <io_printf+0x1d6>
    2ea4:	2975      	cmp	r1, #117	; 0x75
    2ea6:	d066      	beq.n	2f76 <io_printf+0x182>
    2ea8:	d805      	bhi.n	2eb6 <io_printf+0xc2>
    2eaa:	2972      	cmp	r1, #114	; 0x72
    2eac:	d100      	bne.n	2eb0 <io_printf+0xbc>
    2eae:	e09b      	b.n	2fe8 <io_printf+0x1f4>
    2eb0:	2973      	cmp	r1, #115	; 0x73
    2eb2:	d10a      	bne.n	2eca <io_printf+0xd6>
    2eb4:	e00d      	b.n	2ed2 <io_printf+0xde>
    2eb6:	2978      	cmp	r1, #120	; 0x78
    2eb8:	d100      	bne.n	2ebc <io_printf+0xc8>
    2eba:	e0a6      	b.n	300a <io_printf+0x216>
    2ebc:	297a      	cmp	r1, #122	; 0x7a
    2ebe:	d104      	bne.n	2eca <io_printf+0xd6>
    2ec0:	e0ce      	b.n	3060 <io_printf+0x26c>
    2ec2:	9b05      	ldr	r3, [sp, #20]
    2ec4:	6819      	ldr	r1, [r3, #0]
    2ec6:	1d1a      	adds	r2, r3, #4
    2ec8:	9205      	str	r2, [sp, #20]
    2eca:	1c20      	adds	r0, r4, #0
    2ecc:	f7ff feb6 	bl	2c3c <io_put_char>
    2ed0:	e79f      	b.n	2e12 <io_printf+0x1e>
    2ed2:	9b05      	ldr	r3, [sp, #20]
    2ed4:	681e      	ldr	r6, [r3, #0]
    2ed6:	1d1a      	adds	r2, r3, #4
    2ed8:	1c33      	adds	r3, r6, #0
    2eda:	9205      	str	r2, [sp, #20]
    2edc:	781a      	ldrb	r2, [r3, #0]
    2ede:	1b99      	subs	r1, r3, r6
    2ee0:	9103      	str	r1, [sp, #12]
    2ee2:	3301      	adds	r3, #1
    2ee4:	2a00      	cmp	r2, #0
    2ee6:	d1f9      	bne.n	2edc <io_printf+0xe8>
    2ee8:	e004      	b.n	2ef4 <io_printf+0x100>
    2eea:	1c20      	adds	r0, r4, #0
    2eec:	2120      	movs	r1, #32
    2eee:	f7ff fea5 	bl	2c3c <io_put_char>
    2ef2:	3f01      	subs	r7, #1
    2ef4:	9a03      	ldr	r2, [sp, #12]
    2ef6:	4297      	cmp	r7, r2
    2ef8:	dcf7      	bgt.n	2eea <io_printf+0xf6>
    2efa:	e003      	b.n	2f04 <io_printf+0x110>
    2efc:	1c20      	adds	r0, r4, #0
    2efe:	3601      	adds	r6, #1
    2f00:	f7ff fe9c 	bl	2c3c <io_put_char>
    2f04:	7831      	ldrb	r1, [r6, #0]
    2f06:	2900      	cmp	r1, #0
    2f08:	d1f8      	bne.n	2efc <io_printf+0x108>
    2f0a:	e782      	b.n	2e12 <io_printf+0x1e>
    2f0c:	9b05      	ldr	r3, [sp, #20]
    2f0e:	6819      	ldr	r1, [r3, #0]
    2f10:	1d1a      	adds	r2, r3, #4
    2f12:	2300      	movs	r3, #0
    2f14:	9205      	str	r2, [sp, #20]
    2f16:	9303      	str	r3, [sp, #12]
    2f18:	4299      	cmp	r1, r3
    2f1a:	da02      	bge.n	2f22 <io_printf+0x12e>
    2f1c:	202d      	movs	r0, #45	; 0x2d
    2f1e:	4249      	negs	r1, r1
    2f20:	9003      	str	r0, [sp, #12]
    2f22:	2700      	movs	r7, #0
    2f24:	a806      	add	r0, sp, #24
    2f26:	f7fd e9d4 	blx	2d0 <sark_div10>
    2f2a:	9a07      	ldr	r2, [sp, #28]
    2f2c:	9906      	ldr	r1, [sp, #24]
    2f2e:	ab08      	add	r3, sp, #32
    2f30:	3230      	adds	r2, #48	; 0x30
    2f32:	54fa      	strb	r2, [r7, r3]
    2f34:	3701      	adds	r7, #1
    2f36:	2900      	cmp	r1, #0
    2f38:	d1f4      	bne.n	2f24 <io_printf+0x130>
    2f3a:	e001      	b.n	2f40 <io_printf+0x14c>
    2f3c:	2f00      	cmp	r7, #0
    2f3e:	d003      	beq.n	2f48 <io_printf+0x154>
    2f40:	3f01      	subs	r7, #1
    2f42:	5cfa      	ldrb	r2, [r7, r3]
    2f44:	2a30      	cmp	r2, #48	; 0x30
    2f46:	d0f9      	beq.n	2f3c <io_printf+0x148>
    2f48:	9903      	ldr	r1, [sp, #12]
    2f4a:	2900      	cmp	r1, #0
    2f4c:	d007      	beq.n	2f5e <io_printf+0x16a>
    2f4e:	3701      	adds	r7, #1
    2f50:	55d9      	strb	r1, [r3, r7]
    2f52:	e004      	b.n	2f5e <io_printf+0x16a>
    2f54:	1c20      	adds	r0, r4, #0
    2f56:	2120      	movs	r1, #32
    2f58:	f7ff fe70 	bl	2c3c <io_put_char>
    2f5c:	3e01      	subs	r6, #1
    2f5e:	1c7b      	adds	r3, r7, #1
    2f60:	429e      	cmp	r6, r3
    2f62:	d8f7      	bhi.n	2f54 <io_printf+0x160>
    2f64:	ab08      	add	r3, sp, #32
    2f66:	5cf9      	ldrb	r1, [r7, r3]
    2f68:	1c20      	adds	r0, r4, #0
    2f6a:	3f01      	subs	r7, #1
    2f6c:	f7ff fe66 	bl	2c3c <io_put_char>
    2f70:	1c79      	adds	r1, r7, #1
    2f72:	d1f7      	bne.n	2f64 <io_printf+0x170>
    2f74:	e74d      	b.n	2e12 <io_printf+0x1e>
    2f76:	9b05      	ldr	r3, [sp, #20]
    2f78:	2700      	movs	r7, #0
    2f7a:	6819      	ldr	r1, [r3, #0]
    2f7c:	1d1a      	adds	r2, r3, #4
    2f7e:	9205      	str	r2, [sp, #20]
    2f80:	a806      	add	r0, sp, #24
    2f82:	f7fd e9a6 	blx	2d0 <sark_div10>
    2f86:	9a07      	ldr	r2, [sp, #28]
    2f88:	9906      	ldr	r1, [sp, #24]
    2f8a:	3230      	adds	r2, #48	; 0x30
    2f8c:	ab08      	add	r3, sp, #32
    2f8e:	54fa      	strb	r2, [r7, r3]
    2f90:	3701      	adds	r7, #1
    2f92:	2900      	cmp	r1, #0
    2f94:	d1f4      	bne.n	2f80 <io_printf+0x18c>
    2f96:	e001      	b.n	2f9c <io_printf+0x1a8>
    2f98:	2f00      	cmp	r7, #0
    2f9a:	d00a      	beq.n	2fb2 <io_printf+0x1be>
    2f9c:	3f01      	subs	r7, #1
    2f9e:	ab08      	add	r3, sp, #32
    2fa0:	5cfb      	ldrb	r3, [r7, r3]
    2fa2:	2b30      	cmp	r3, #48	; 0x30
    2fa4:	d105      	bne.n	2fb2 <io_printf+0x1be>
    2fa6:	e7f7      	b.n	2f98 <io_printf+0x1a4>
    2fa8:	1c20      	adds	r0, r4, #0
    2faa:	9903      	ldr	r1, [sp, #12]
    2fac:	f7ff fe46 	bl	2c3c <io_put_char>
    2fb0:	3e01      	subs	r6, #1
    2fb2:	1c7b      	adds	r3, r7, #1
    2fb4:	429e      	cmp	r6, r3
    2fb6:	d8f7      	bhi.n	2fa8 <io_printf+0x1b4>
    2fb8:	ab08      	add	r3, sp, #32
    2fba:	5cf9      	ldrb	r1, [r7, r3]
    2fbc:	1c20      	adds	r0, r4, #0
    2fbe:	3f01      	subs	r7, #1
    2fc0:	f7ff fe3c 	bl	2c3c <io_put_char>
    2fc4:	1c7a      	adds	r2, r7, #1
    2fc6:	d1f7      	bne.n	2fb8 <io_printf+0x1c4>
    2fc8:	e723      	b.n	2e12 <io_printf+0x1e>
    2fca:	9a05      	ldr	r2, [sp, #20]
    2fcc:	9803      	ldr	r0, [sp, #12]
    2fce:	1d11      	adds	r1, r2, #4
    2fd0:	9105      	str	r1, [sp, #20]
    2fd2:	6811      	ldr	r1, [r2, #0]
    2fd4:	9000      	str	r0, [sp, #0]
    2fd6:	e005      	b.n	2fe4 <io_printf+0x1f0>
    2fd8:	9a05      	ldr	r2, [sp, #20]
    2fda:	1d11      	adds	r1, r2, #4
    2fdc:	9105      	str	r1, [sp, #20]
    2fde:	6811      	ldr	r1, [r2, #0]
    2fe0:	9a03      	ldr	r2, [sp, #12]
    2fe2:	9200      	str	r2, [sp, #0]
    2fe4:	2200      	movs	r2, #0
    2fe6:	e00a      	b.n	2ffe <io_printf+0x20a>
    2fe8:	9a05      	ldr	r2, [sp, #20]
    2fea:	1d11      	adds	r1, r2, #4
    2fec:	6812      	ldr	r2, [r2, #0]
    2fee:	9105      	str	r1, [sp, #20]
    2ff0:	17d0      	asrs	r0, r2, #31
    2ff2:	1811      	adds	r1, r2, r0
    2ff4:	4041      	eors	r1, r0
    2ff6:	0049      	lsls	r1, r1, #1
    2ff8:	9803      	ldr	r0, [sp, #12]
    2ffa:	0fd2      	lsrs	r2, r2, #31
    2ffc:	9000      	str	r0, [sp, #0]
    2ffe:	9201      	str	r2, [sp, #4]
    3000:	1c20      	adds	r0, r4, #0
    3002:	1c32      	adds	r2, r6, #0
    3004:	f7ff fe94 	bl	2d30 <io_put_fixed>
    3008:	e703      	b.n	2e12 <io_printf+0x1e>
    300a:	9b05      	ldr	r3, [sp, #20]
    300c:	210f      	movs	r1, #15
    300e:	1d1a      	adds	r2, r3, #4
    3010:	4823      	ldr	r0, [pc, #140]	; (30a0 <io_printf+0x2ac>)
    3012:	681b      	ldr	r3, [r3, #0]
    3014:	2700      	movs	r7, #0
    3016:	468c      	mov	ip, r1
    3018:	9205      	str	r2, [sp, #20]
    301a:	4662      	mov	r2, ip
    301c:	401a      	ands	r2, r3
    301e:	5c81      	ldrb	r1, [r0, r2]
    3020:	aa08      	add	r2, sp, #32
    3022:	54b9      	strb	r1, [r7, r2]
    3024:	091b      	lsrs	r3, r3, #4
    3026:	3701      	adds	r7, #1
    3028:	2b00      	cmp	r3, #0
    302a:	d1f6      	bne.n	301a <io_printf+0x226>
    302c:	e001      	b.n	3032 <io_printf+0x23e>
    302e:	2f00      	cmp	r7, #0
    3030:	d00a      	beq.n	3048 <io_printf+0x254>
    3032:	3f01      	subs	r7, #1
    3034:	ab08      	add	r3, sp, #32
    3036:	5cfb      	ldrb	r3, [r7, r3]
    3038:	2b30      	cmp	r3, #48	; 0x30
    303a:	d105      	bne.n	3048 <io_printf+0x254>
    303c:	e7f7      	b.n	302e <io_printf+0x23a>
    303e:	1c20      	adds	r0, r4, #0
    3040:	9903      	ldr	r1, [sp, #12]
    3042:	f7ff fdfb 	bl	2c3c <io_put_char>
    3046:	3e01      	subs	r6, #1
    3048:	1c7b      	adds	r3, r7, #1
    304a:	429e      	cmp	r6, r3
    304c:	d8f7      	bhi.n	303e <io_printf+0x24a>
    304e:	ab08      	add	r3, sp, #32
    3050:	5cf9      	ldrb	r1, [r7, r3]
    3052:	1c20      	adds	r0, r4, #0
    3054:	3f01      	subs	r7, #1
    3056:	f7ff fdf1 	bl	2c3c <io_put_char>
    305a:	1c7a      	adds	r2, r7, #1
    305c:	d1f7      	bne.n	304e <io_printf+0x25a>
    305e:	e6d8      	b.n	2e12 <io_printf+0x1e>
    3060:	9b05      	ldr	r3, [sp, #20]
    3062:	1e77      	subs	r7, r6, #1
    3064:	1d1a      	adds	r2, r3, #4
    3066:	681b      	ldr	r3, [r3, #0]
    3068:	9303      	str	r3, [sp, #12]
    306a:	4b0e      	ldr	r3, [pc, #56]	; (30a4 <io_printf+0x2b0>)
    306c:	9205      	str	r2, [sp, #20]
    306e:	18f6      	adds	r6, r6, r3
    3070:	00b6      	lsls	r6, r6, #2
    3072:	e00a      	b.n	308a <io_printf+0x296>
    3074:	9a03      	ldr	r2, [sp, #12]
    3076:	230f      	movs	r3, #15
    3078:	40f2      	lsrs	r2, r6
    307a:	4013      	ands	r3, r2
    307c:	4a08      	ldr	r2, [pc, #32]	; (30a0 <io_printf+0x2ac>)
    307e:	1c20      	adds	r0, r4, #0
    3080:	5cd1      	ldrb	r1, [r2, r3]
    3082:	f7ff fddb 	bl	2c3c <io_put_char>
    3086:	3f01      	subs	r7, #1
    3088:	3e04      	subs	r6, #4
    308a:	2f00      	cmp	r7, #0
    308c:	daf2      	bge.n	3074 <io_printf+0x280>
    308e:	e6c0      	b.n	2e12 <io_printf+0x1e>
    3090:	b00c      	add	sp, #48	; 0x30
    3092:	bcf0      	pop	{r4, r5, r6, r7}
    3094:	bc08      	pop	{r3}
    3096:	b003      	add	sp, #12
    3098:	4718      	bx	r3
    309a:	46c0      	nop			; (mov r8, r8)
    309c:	004051e0 	.word	0x004051e0
    30a0:	0000403b 	.word	0x0000403b
    30a4:	3fffffff 	.word	0x3fffffff

000030a8 <configure_dma_controller>:
    30a8:	4b06      	ldr	r3, [pc, #24]	; (30c4 <configure_dma_controller+0x1c>)
    30aa:	223f      	movs	r2, #63	; 0x3f
    30ac:	601a      	str	r2, [r3, #0]
    30ae:	220d      	movs	r2, #13
    30b0:	601a      	str	r2, [r3, #0]
    30b2:	4b05      	ldr	r3, [pc, #20]	; (30c8 <configure_dma_controller+0x20>)
    30b4:	22c0      	movs	r2, #192	; 0xc0
    30b6:	0112      	lsls	r2, r2, #4
    30b8:	601a      	str	r2, [r3, #0]
    30ba:	4b04      	ldr	r3, [pc, #16]	; (30cc <configure_dma_controller+0x24>)
    30bc:	2203      	movs	r2, #3
    30be:	601a      	str	r2, [r3, #0]
    30c0:	4770      	bx	lr
    30c2:	46c0      	nop			; (mov r8, r8)
    30c4:	40000010 	.word	0x40000010
    30c8:	40000018 	.word	0x40000018
    30cc:	40000028 	.word	0x40000028

000030d0 <configure_timer1>:
    30d0:	4b07      	ldr	r3, [pc, #28]	; (30f0 <configure_timer1+0x20>)
    30d2:	2200      	movs	r2, #0
    30d4:	601a      	str	r2, [r3, #0]
    30d6:	4b07      	ldr	r3, [pc, #28]	; (30f4 <configure_timer1+0x24>)
    30d8:	2201      	movs	r2, #1
    30da:	601a      	str	r2, [r3, #0]
    30dc:	4b06      	ldr	r3, [pc, #24]	; (30f8 <configure_timer1+0x28>)
    30de:	8c9b      	ldrh	r3, [r3, #36]	; 0x24
    30e0:	4358      	muls	r0, r3
    30e2:	2384      	movs	r3, #132	; 0x84
    30e4:	059b      	lsls	r3, r3, #22
    30e6:	6018      	str	r0, [r3, #0]
    30e8:	4b04      	ldr	r3, [pc, #16]	; (30fc <configure_timer1+0x2c>)
    30ea:	6018      	str	r0, [r3, #0]
    30ec:	4770      	bx	lr
    30ee:	46c0      	nop			; (mov r8, r8)
    30f0:	21000008 	.word	0x21000008
    30f4:	2100000c 	.word	0x2100000c
    30f8:	e5007f00 	.word	0xe5007f00
    30fc:	21000018 	.word	0x21000018

00003100 <configure_vic>:
    3100:	4b2c      	ldr	r3, [pc, #176]	; (31b4 <configure_vic+0xb4>)
    3102:	4a2d      	ldr	r2, [pc, #180]	; (31b8 <configure_vic+0xb8>)
    3104:	b510      	push	{r4, lr}
    3106:	601a      	str	r2, [r3, #0]
    3108:	4a2c      	ldr	r2, [pc, #176]	; (31bc <configure_vic+0xbc>)
    310a:	2320      	movs	r3, #32
    310c:	69d9      	ldr	r1, [r3, #28]
    310e:	6011      	str	r1, [r2, #0]
    3110:	492b      	ldr	r1, [pc, #172]	; (31c0 <configure_vic+0xc0>)
    3112:	4a2c      	ldr	r2, [pc, #176]	; (31c4 <configure_vic+0xc4>)
    3114:	6808      	ldr	r0, [r1, #0]
    3116:	6010      	str	r0, [r2, #0]
    3118:	4a2b      	ldr	r2, [pc, #172]	; (31c8 <configure_vic+0xc8>)
    311a:	482c      	ldr	r0, [pc, #176]	; (31cc <configure_vic+0xcc>)
    311c:	6814      	ldr	r4, [r2, #0]
    311e:	6004      	str	r4, [r0, #0]
    3120:	482b      	ldr	r0, [pc, #172]	; (31d0 <configure_vic+0xd0>)
    3122:	6800      	ldr	r0, [r0, #0]
    3124:	2805      	cmp	r0, #5
    3126:	d815      	bhi.n	3154 <configure_vic+0x54>
    3128:	f7fd f91c 	bl	364 <__gnu_thumb1_case_uqi>
    312c:	140c0703 	.word	0x140c0703
    3130:	0310      	.short	0x0310
    3132:	4828      	ldr	r0, [pc, #160]	; (31d4 <configure_vic+0xd4>)
    3134:	61d8      	str	r0, [r3, #28]
    3136:	2340      	movs	r3, #64	; 0x40
    3138:	e00d      	b.n	3156 <configure_vic+0x56>
    313a:	4827      	ldr	r0, [pc, #156]	; (31d8 <configure_vic+0xd8>)
    313c:	61d8      	str	r0, [r3, #28]
    313e:	2380      	movs	r3, #128	; 0x80
    3140:	015b      	lsls	r3, r3, #5
    3142:	e008      	b.n	3156 <configure_vic+0x56>
    3144:	4825      	ldr	r0, [pc, #148]	; (31dc <configure_vic+0xdc>)
    3146:	61d8      	str	r0, [r3, #28]
    3148:	2310      	movs	r3, #16
    314a:	e004      	b.n	3156 <configure_vic+0x56>
    314c:	4824      	ldr	r0, [pc, #144]	; (31e0 <configure_vic+0xe0>)
    314e:	61d8      	str	r0, [r3, #28]
    3150:	2302      	movs	r3, #2
    3152:	e000      	b.n	3156 <configure_vic+0x56>
    3154:	2300      	movs	r3, #0
    3156:	2059      	movs	r0, #89	; 0x59
    3158:	7800      	ldrb	r0, [r0, #0]
    315a:	4c22      	ldr	r4, [pc, #136]	; (31e4 <configure_vic+0xe4>)
    315c:	0080      	lsls	r0, r0, #2
    315e:	1900      	adds	r0, r0, r4
    3160:	2400      	movs	r4, #0
    3162:	6004      	str	r4, [r0, #0]
    3164:	4820      	ldr	r0, [pc, #128]	; (31e8 <configure_vic+0xe8>)
    3166:	4c21      	ldr	r4, [pc, #132]	; (31ec <configure_vic+0xec>)
    3168:	6004      	str	r4, [r0, #0]
    316a:	481e      	ldr	r0, [pc, #120]	; (31e4 <configure_vic+0xe4>)
    316c:	2432      	movs	r4, #50	; 0x32
    316e:	6004      	str	r4, [r0, #0]
    3170:	481f      	ldr	r0, [pc, #124]	; (31f0 <configure_vic+0xf0>)
    3172:	4c20      	ldr	r4, [pc, #128]	; (31f4 <configure_vic+0xf4>)
    3174:	6004      	str	r4, [r0, #0]
    3176:	4820      	ldr	r0, [pc, #128]	; (31f8 <configure_vic+0xf8>)
    3178:	2426      	movs	r4, #38	; 0x26
    317a:	6004      	str	r4, [r0, #0]
    317c:	481f      	ldr	r0, [pc, #124]	; (31fc <configure_vic+0xfc>)
    317e:	4c20      	ldr	r4, [pc, #128]	; (3200 <configure_vic+0x100>)
    3180:	6004      	str	r4, [r0, #0]
    3182:	4820      	ldr	r0, [pc, #128]	; (3204 <configure_vic+0x104>)
    3184:	242c      	movs	r4, #44	; 0x2c
    3186:	6004      	str	r4, [r0, #0]
    3188:	481f      	ldr	r0, [pc, #124]	; (3208 <configure_vic+0x108>)
    318a:	4c20      	ldr	r4, [pc, #128]	; (320c <configure_vic+0x10c>)
    318c:	6004      	str	r4, [r0, #0]
    318e:	4820      	ldr	r0, [pc, #128]	; (3210 <configure_vic+0x110>)
    3190:	2424      	movs	r4, #36	; 0x24
    3192:	6004      	str	r4, [r0, #0]
    3194:	481f      	ldr	r0, [pc, #124]	; (3214 <configure_vic+0x114>)
    3196:	4c20      	ldr	r4, [pc, #128]	; (3218 <configure_vic+0x118>)
    3198:	6004      	str	r4, [r0, #0]
    319a:	4820      	ldr	r0, [pc, #128]	; (321c <configure_vic+0x11c>)
    319c:	242b      	movs	r4, #43	; 0x2b
    319e:	6004      	str	r4, [r0, #0]
    31a0:	481f      	ldr	r0, [pc, #124]	; (3220 <configure_vic+0x120>)
    31a2:	4c20      	ldr	r4, [pc, #128]	; (3224 <configure_vic+0x124>)
    31a4:	6004      	str	r4, [r0, #0]
    31a6:	4820      	ldr	r0, [pc, #128]	; (3228 <configure_vic+0x128>)
    31a8:	2421      	movs	r4, #33	; 0x21
    31aa:	6004      	str	r4, [r0, #0]
    31ac:	600b      	str	r3, [r1, #0]
    31ae:	4b1f      	ldr	r3, [pc, #124]	; (322c <configure_vic+0x12c>)
    31b0:	6013      	str	r3, [r2, #0]
    31b2:	bd10      	pop	{r4, pc}
    31b4:	2f000014 	.word	0x2f000014
    31b8:	00003052 	.word	0x00003052
    31bc:	00405a34 	.word	0x00405a34
    31c0:	2f00000c 	.word	0x2f00000c
    31c4:	00405bbc 	.word	0x00405bbc
    31c8:	2f000010 	.word	0x2f000010
    31cc:	00405a64 	.word	0x00405a64
    31d0:	0040000c 	.word	0x0040000c
    31d4:	00003864 	.word	0x00003864
    31d8:	000039b4 	.word	0x000039b4
    31dc:	00003a84 	.word	0x00003a84
    31e0:	00003b2c 	.word	0x00003b2c
    31e4:	2f000200 	.word	0x2f000200
    31e8:	2f000100 	.word	0x2f000100
    31ec:	00000300 	.word	0x00000300
    31f0:	2f00010c 	.word	0x2f00010c
    31f4:	000037ec 	.word	0x000037ec
    31f8:	2f00020c 	.word	0x2f00020c
    31fc:	2f000108 	.word	0x2f000108
    3200:	00003928 	.word	0x00003928
    3204:	2f000208 	.word	0x2f000208
    3208:	2f000104 	.word	0x2f000104
    320c:	00003a2c 	.word	0x00003a2c
    3210:	2f000204 	.word	0x2f000204
    3214:	2f000110 	.word	0x2f000110
    3218:	0000389c 	.word	0x0000389c
    321c:	2f000210 	.word	0x2f000210
    3220:	2f000114 	.word	0x2f000114
    3224:	00003ac4 	.word	0x00003ac4
    3228:	2f000214 	.word	0x2f000214
    322c:	00001052 	.word	0x00001052

00003230 <dispatch>:
    3230:	b573      	push	{r0, r1, r4, r5, r6, lr}
    3232:	e031      	b.n	3298 <dispatch+0x68>
    3234:	22c8      	movs	r2, #200	; 0xc8
    3236:	435a      	muls	r2, r3
    3238:	491a      	ldr	r1, [pc, #104]	; (32a4 <dispatch+0x74>)
    323a:	3301      	adds	r3, #1
    323c:	188a      	adds	r2, r1, r2
    323e:	6811      	ldr	r1, [r2, #0]
    3240:	6850      	ldr	r0, [r2, #4]
    3242:	4281      	cmp	r1, r0
    3244:	d018      	beq.n	3278 <dispatch+0x48>
    3246:	200c      	movs	r0, #12
    3248:	4348      	muls	r0, r1
    324a:	3101      	adds	r1, #1
    324c:	1810      	adds	r0, r2, r0
    324e:	6885      	ldr	r5, [r0, #8]
    3250:	9501      	str	r5, [sp, #4]
    3252:	68c6      	ldr	r6, [r0, #12]
    3254:	6905      	ldr	r5, [r0, #16]
    3256:	200f      	movs	r0, #15
    3258:	4001      	ands	r1, r0
    325a:	6011      	str	r1, [r2, #0]
    325c:	9a01      	ldr	r2, [sp, #4]
    325e:	2a00      	cmp	r2, #0
    3260:	d00a      	beq.n	3278 <dispatch+0x48>
    3262:	1c20      	adds	r0, r4, #0
    3264:	f7fc efb8 	blx	1d8 <cpu_int_restore>
    3268:	9b01      	ldr	r3, [sp, #4]
    326a:	1c30      	adds	r0, r6, #0
    326c:	1c29      	adds	r1, r5, #0
    326e:	4798      	blx	r3
    3270:	f7fc efaa 	blx	1c8 <cpu_int_disable>
    3274:	2300      	movs	r3, #0
    3276:	1c04      	adds	r4, r0, #0
    3278:	4a0b      	ldr	r2, [pc, #44]	; (32a8 <dispatch+0x78>)
    327a:	6811      	ldr	r1, [r2, #0]
    327c:	2900      	cmp	r1, #0
    327e:	d103      	bne.n	3288 <dispatch+0x58>
    3280:	6813      	ldr	r3, [r2, #0]
    3282:	2b00      	cmp	r3, #0
    3284:	d008      	beq.n	3298 <dispatch+0x68>
    3286:	e002      	b.n	328e <dispatch+0x5e>
    3288:	2b03      	cmp	r3, #3
    328a:	d9d3      	bls.n	3234 <dispatch+0x4>
    328c:	e7f8      	b.n	3280 <dispatch+0x50>
    328e:	f7fc efa8 	blx	1e0 <cpu_wfi>
    3292:	1c20      	adds	r0, r4, #0
    3294:	f7fc efa0 	blx	1d8 <cpu_int_restore>
    3298:	4b03      	ldr	r3, [pc, #12]	; (32a8 <dispatch+0x78>)
    329a:	681b      	ldr	r3, [r3, #0]
    329c:	2b00      	cmp	r3, #0
    329e:	d1e7      	bne.n	3270 <dispatch+0x40>
    32a0:	bd73      	pop	{r0, r1, r4, r5, r6, pc}
    32a2:	46c0      	nop			; (mov r8, r8)
    32a4:	00405200 	.word	0x00405200
    32a8:	00405520 	.word	0x00405520

000032ac <spin1_callback_on>:
    32ac:	b538      	push	{r3, r4, r5, lr}
    32ae:	1c14      	adds	r4, r2, #0
    32b0:	4a11      	ldr	r2, [pc, #68]	; (32f8 <spin1_callback_on+0x4c>)
    32b2:	00c3      	lsls	r3, r0, #3
    32b4:	5099      	str	r1, [r3, r2]
    32b6:	18d3      	adds	r3, r2, r3
    32b8:	1c05      	adds	r5, r0, #0
    32ba:	605c      	str	r4, [r3, #4]
    32bc:	2c00      	cmp	r4, #0
    32be:	da08      	bge.n	32d2 <spin1_callback_on+0x26>
    32c0:	4b0e      	ldr	r3, [pc, #56]	; (32fc <spin1_callback_on+0x50>)
    32c2:	6819      	ldr	r1, [r3, #0]
    32c4:	3101      	adds	r1, #1
    32c6:	d101      	bne.n	32cc <spin1_callback_on+0x20>
    32c8:	6018      	str	r0, [r3, #0]
    32ca:	e002      	b.n	32d2 <spin1_callback_on+0x26>
    32cc:	2013      	movs	r0, #19
    32ce:	f7fc ff2d 	bl	12c <rt_error>
    32d2:	2d05      	cmp	r5, #5
    32d4:	d001      	beq.n	32da <spin1_callback_on+0x2e>
    32d6:	2d00      	cmp	r5, #0
    32d8:	d10c      	bne.n	32f4 <spin1_callback_on+0x48>
    32da:	4a09      	ldr	r2, [pc, #36]	; (3300 <spin1_callback_on+0x54>)
    32dc:	6813      	ldr	r3, [r2, #0]
    32de:	1c99      	adds	r1, r3, #2
    32e0:	d101      	bne.n	32e6 <spin1_callback_on+0x3a>
    32e2:	6014      	str	r4, [r2, #0]
    32e4:	e006      	b.n	32f4 <spin1_callback_on+0x48>
    32e6:	3301      	adds	r3, #1
    32e8:	d104      	bne.n	32f4 <spin1_callback_on+0x48>
    32ea:	3401      	adds	r4, #1
    32ec:	d002      	beq.n	32f4 <spin1_callback_on+0x48>
    32ee:	2013      	movs	r0, #19
    32f0:	f7fc ff1c 	bl	12c <rt_error>
    32f4:	bd38      	pop	{r3, r4, r5, pc}
    32f6:	46c0      	nop			; (mov r8, r8)
    32f8:	00405bc8 	.word	0x00405bc8
    32fc:	0040000c 	.word	0x0040000c
    3300:	00400008 	.word	0x00400008

00003304 <spin1_exit>:
    3304:	4b04      	ldr	r3, [pc, #16]	; (3318 <spin1_exit+0x14>)
    3306:	4a05      	ldr	r2, [pc, #20]	; (331c <spin1_exit+0x18>)
    3308:	601a      	str	r2, [r3, #0]
    330a:	4b05      	ldr	r3, [pc, #20]	; (3320 <spin1_exit+0x1c>)
    330c:	2200      	movs	r2, #0
    330e:	601a      	str	r2, [r3, #0]
    3310:	4b04      	ldr	r3, [pc, #16]	; (3324 <spin1_exit+0x20>)
    3312:	6018      	str	r0, [r3, #0]
    3314:	4770      	bx	lr
    3316:	46c0      	nop			; (mov r8, r8)
    3318:	2f000014 	.word	0x2f000014
    331c:	00003052 	.word	0x00003052
    3320:	00405520 	.word	0x00405520
    3324:	004051fc 	.word	0x004051fc

00003328 <spin1_set_timer_tick>:
    3328:	4b01      	ldr	r3, [pc, #4]	; (3330 <spin1_set_timer_tick+0x8>)
    332a:	6018      	str	r0, [r3, #0]
    332c:	4770      	bx	lr
    332e:	46c0      	nop			; (mov r8, r8)
    3330:	004051ec 	.word	0x004051ec

00003334 <clean_up>:
    3334:	b508      	push	{r3, lr}
    3336:	f7fc ef48 	blx	1c8 <cpu_int_disable>
    333a:	4b10      	ldr	r3, [pc, #64]	; (337c <clean_up+0x48>)
    333c:	681a      	ldr	r2, [r3, #0]
    333e:	2320      	movs	r3, #32
    3340:	61da      	str	r2, [r3, #28]
    3342:	4b0f      	ldr	r3, [pc, #60]	; (3380 <clean_up+0x4c>)
    3344:	681a      	ldr	r2, [r3, #0]
    3346:	4b0f      	ldr	r3, [pc, #60]	; (3384 <clean_up+0x50>)
    3348:	601a      	str	r2, [r3, #0]
    334a:	4b0f      	ldr	r3, [pc, #60]	; (3388 <clean_up+0x54>)
    334c:	681a      	ldr	r2, [r3, #0]
    334e:	4b0f      	ldr	r3, [pc, #60]	; (338c <clean_up+0x58>)
    3350:	601a      	str	r2, [r3, #0]
    3352:	2359      	movs	r3, #89	; 0x59
    3354:	781b      	ldrb	r3, [r3, #0]
    3356:	4a0e      	ldr	r2, [pc, #56]	; (3390 <clean_up+0x5c>)
    3358:	009b      	lsls	r3, r3, #2
    335a:	189b      	adds	r3, r3, r2
    335c:	2232      	movs	r2, #50	; 0x32
    335e:	601a      	str	r2, [r3, #0]
    3360:	4b0c      	ldr	r3, [pc, #48]	; (3394 <clean_up+0x60>)
    3362:	2201      	movs	r2, #1
    3364:	601a      	str	r2, [r3, #0]
    3366:	4b0c      	ldr	r3, [pc, #48]	; (3398 <clean_up+0x64>)
    3368:	2200      	movs	r2, #0
    336a:	601a      	str	r2, [r3, #0]
    336c:	4b0b      	ldr	r3, [pc, #44]	; (339c <clean_up+0x68>)
    336e:	223f      	movs	r2, #63	; 0x3f
    3370:	601a      	str	r2, [r3, #0]
    3372:	220d      	movs	r2, #13
    3374:	601a      	str	r2, [r3, #0]
    3376:	f7fc ef30 	blx	1d8 <cpu_int_restore>
    337a:	bd08      	pop	{r3, pc}
    337c:	00405a34 	.word	0x00405a34
    3380:	00405bbc 	.word	0x00405bbc
    3384:	2f00000c 	.word	0x2f00000c
    3388:	00405a64 	.word	0x00405a64
    338c:	2f000010 	.word	0x2f000010
    3390:	2f000200 	.word	0x2f000200
    3394:	2100000c 	.word	0x2100000c
    3398:	40000018 	.word	0x40000018
    339c:	40000010 	.word	0x40000010

000033a0 <report_debug>:
    33a0:	b508      	push	{r3, lr}
    33a2:	4b10      	ldr	r3, [pc, #64]	; (33e4 <report_debug+0x44>)
    33a4:	781b      	ldrb	r3, [r3, #0]
    33a6:	2b00      	cmp	r3, #0
    33a8:	d00e      	beq.n	33c8 <report_debug+0x28>
    33aa:	4b0f      	ldr	r3, [pc, #60]	; (33e8 <report_debug+0x48>)
    33ac:	4a0f      	ldr	r2, [pc, #60]	; (33ec <report_debug+0x4c>)
    33ae:	681b      	ldr	r3, [r3, #0]
    33b0:	6812      	ldr	r2, [r2, #0]
    33b2:	2002      	movs	r0, #2
    33b4:	18d2      	adds	r2, r2, r3
    33b6:	490e      	ldr	r1, [pc, #56]	; (33f0 <report_debug+0x50>)
    33b8:	f7ff fd1c 	bl	2df4 <io_printf>
    33bc:	4b0d      	ldr	r3, [pc, #52]	; (33f4 <report_debug+0x54>)
    33be:	2002      	movs	r0, #2
    33c0:	681a      	ldr	r2, [r3, #0]
    33c2:	490d      	ldr	r1, [pc, #52]	; (33f8 <report_debug+0x58>)
    33c4:	f7ff fd16 	bl	2df4 <io_printf>
    33c8:	4b0c      	ldr	r3, [pc, #48]	; (33fc <report_debug+0x5c>)
    33ca:	2002      	movs	r0, #2
    33cc:	681a      	ldr	r2, [r3, #0]
    33ce:	490c      	ldr	r1, [pc, #48]	; (3400 <report_debug+0x60>)
    33d0:	f7ff fd10 	bl	2df4 <io_printf>
    33d4:	4b0b      	ldr	r3, [pc, #44]	; (3404 <report_debug+0x64>)
    33d6:	2002      	movs	r0, #2
    33d8:	681a      	ldr	r2, [r3, #0]
    33da:	490b      	ldr	r1, [pc, #44]	; (3408 <report_debug+0x68>)
    33dc:	f7ff fd0a 	bl	2df4 <io_printf>
    33e0:	bd08      	pop	{r3, pc}
    33e2:	46c0      	nop			; (mov r8, r8)
    33e4:	00405a6c 	.word	0x00405a6c
    33e8:	e1000300 	.word	0xe1000300
    33ec:	e1000304 	.word	0xe1000304
    33f0:	0000404c 	.word	0x0000404c
    33f4:	e1000320 	.word	0xe1000320
    33f8:	00004072 	.word	0x00004072
    33fc:	00405a70 	.word	0x00405a70
    3400:	00004098 	.word	0x00004098
    3404:	40000040 	.word	0x40000040
    3408:	000040be 	.word	0x000040be

0000340c <report_warns>:
    340c:	4b0f      	ldr	r3, [pc, #60]	; (344c <report_warns+0x40>)
    340e:	b510      	push	{r4, lr}
    3410:	681a      	ldr	r2, [r3, #0]
    3412:	1c1c      	adds	r4, r3, #0
    3414:	07d3      	lsls	r3, r2, #31
    3416:	d505      	bpl.n	3424 <report_warns+0x18>
    3418:	4b0d      	ldr	r3, [pc, #52]	; (3450 <report_warns+0x44>)
    341a:	2002      	movs	r0, #2
    341c:	681a      	ldr	r2, [r3, #0]
    341e:	490d      	ldr	r1, [pc, #52]	; (3454 <report_warns+0x48>)
    3420:	f7ff fce8 	bl	2df4 <io_printf>
    3424:	6823      	ldr	r3, [r4, #0]
    3426:	2002      	movs	r0, #2
    3428:	4203      	tst	r3, r0
    342a:	d004      	beq.n	3436 <report_warns+0x2a>
    342c:	4b0a      	ldr	r3, [pc, #40]	; (3458 <report_warns+0x4c>)
    342e:	490b      	ldr	r1, [pc, #44]	; (345c <report_warns+0x50>)
    3430:	681a      	ldr	r2, [r3, #0]
    3432:	f7ff fcdf 	bl	2df4 <io_printf>
    3436:	4b05      	ldr	r3, [pc, #20]	; (344c <report_warns+0x40>)
    3438:	681b      	ldr	r3, [r3, #0]
    343a:	075a      	lsls	r2, r3, #29
    343c:	d505      	bpl.n	344a <report_warns+0x3e>
    343e:	4b08      	ldr	r3, [pc, #32]	; (3460 <report_warns+0x54>)
    3440:	2002      	movs	r0, #2
    3442:	681a      	ldr	r2, [r3, #0]
    3444:	4907      	ldr	r1, [pc, #28]	; (3464 <report_warns+0x58>)
    3446:	f7ff fcd5 	bl	2df4 <io_printf>
    344a:	bd10      	pop	{r4, pc}
    344c:	004051e4 	.word	0x004051e4
    3450:	004051e8 	.word	0x004051e8
    3454:	000040dd 	.word	0x000040dd
    3458:	004051f4 	.word	0x004051f4
    345c:	00004109 	.word	0x00004109
    3460:	004051f0 	.word	0x004051f0
    3464:	00004134 	.word	0x00004134

00003468 <spin1_start>:
    3468:	b570      	push	{r4, r5, r6, lr}
    346a:	1c06      	adds	r6, r0, #0
    346c:	2007      	movs	r0, #7
    346e:	f7fe fe95 	bl	219c <sark_cpu_state>
    3472:	2380      	movs	r3, #128	; 0x80
    3474:	2400      	movs	r4, #0
    3476:	059b      	lsls	r3, r3, #22
    3478:	601c      	str	r4, [r3, #0]
    347a:	f7ff fe15 	bl	30a8 <configure_dma_controller>
    347e:	4d26      	ldr	r5, [pc, #152]	; (3518 <spin1_start+0xb0>)
    3480:	6828      	ldr	r0, [r5, #0]
    3482:	f7ff fe25 	bl	30d0 <configure_timer1>
    3486:	f7ff fe3b 	bl	3100 <configure_vic>
    348a:	4b24      	ldr	r3, [pc, #144]	; (351c <spin1_start+0xb4>)
    348c:	601c      	str	r4, [r3, #0]
    348e:	4b24      	ldr	r3, [pc, #144]	; (3520 <spin1_start+0xb8>)
    3490:	601c      	str	r4, [r3, #0]
    3492:	4b24      	ldr	r3, [pc, #144]	; (3524 <spin1_start+0xbc>)
    3494:	601c      	str	r4, [r3, #0]
    3496:	4b24      	ldr	r3, [pc, #144]	; (3528 <spin1_start+0xc0>)
    3498:	601c      	str	r4, [r3, #0]
    349a:	2e01      	cmp	r6, #1
    349c:	d101      	bne.n	34a2 <spin1_start+0x3a>
    349e:	f7ff f919 	bl	26d4 <event_wait>
    34a2:	682b      	ldr	r3, [r5, #0]
    34a4:	2b00      	cmp	r3, #0
    34a6:	d002      	beq.n	34ae <spin1_start+0x46>
    34a8:	4b20      	ldr	r3, [pc, #128]	; (352c <spin1_start+0xc4>)
    34aa:	22e2      	movs	r2, #226	; 0xe2
    34ac:	601a      	str	r2, [r3, #0]
    34ae:	4b20      	ldr	r3, [pc, #128]	; (3530 <spin1_start+0xc8>)
    34b0:	2200      	movs	r2, #0
    34b2:	601a      	str	r2, [r3, #0]
    34b4:	4b1f      	ldr	r3, [pc, #124]	; (3534 <spin1_start+0xcc>)
    34b6:	2201      	movs	r2, #1
    34b8:	601a      	str	r2, [r3, #0]
    34ba:	f7ff feb9 	bl	3230 <dispatch>
    34be:	f7ff ff39 	bl	3334 <clean_up>
    34c2:	f7fc ee7a 	blx	1b8 <cpu_int_enable>
    34c6:	4c1c      	ldr	r4, [pc, #112]	; (3538 <spin1_start+0xd0>)
    34c8:	4b1c      	ldr	r3, [pc, #112]	; (353c <spin1_start+0xd4>)
    34ca:	6822      	ldr	r2, [r4, #0]
    34cc:	601a      	str	r2, [r3, #0]
    34ce:	4a13      	ldr	r2, [pc, #76]	; (351c <spin1_start+0xb4>)
    34d0:	491b      	ldr	r1, [pc, #108]	; (3540 <spin1_start+0xd8>)
    34d2:	6812      	ldr	r2, [r2, #0]
    34d4:	605a      	str	r2, [r3, #4]
    34d6:	4a1b      	ldr	r2, [pc, #108]	; (3544 <spin1_start+0xdc>)
    34d8:	6812      	ldr	r2, [r2, #0]
    34da:	6809      	ldr	r1, [r1, #0]
    34dc:	188a      	adds	r2, r1, r2
    34de:	609a      	str	r2, [r3, #8]
    34e0:	4a19      	ldr	r2, [pc, #100]	; (3548 <spin1_start+0xe0>)
    34e2:	6812      	ldr	r2, [r2, #0]
    34e4:	60da      	str	r2, [r3, #12]
    34e6:	4a19      	ldr	r2, [pc, #100]	; (354c <spin1_start+0xe4>)
    34e8:	6812      	ldr	r2, [r2, #0]
    34ea:	611a      	str	r2, [r3, #16]
    34ec:	4a18      	ldr	r2, [pc, #96]	; (3550 <spin1_start+0xe8>)
    34ee:	6812      	ldr	r2, [r2, #0]
    34f0:	3a01      	subs	r2, #1
    34f2:	615a      	str	r2, [r3, #20]
    34f4:	4a17      	ldr	r2, [pc, #92]	; (3554 <spin1_start+0xec>)
    34f6:	6812      	ldr	r2, [r2, #0]
    34f8:	619a      	str	r2, [r3, #24]
    34fa:	4a09      	ldr	r2, [pc, #36]	; (3520 <spin1_start+0xb8>)
    34fc:	6812      	ldr	r2, [r2, #0]
    34fe:	61da      	str	r2, [r3, #28]
    3500:	4a08      	ldr	r2, [pc, #32]	; (3524 <spin1_start+0xbc>)
    3502:	6812      	ldr	r2, [r2, #0]
    3504:	621a      	str	r2, [r3, #32]
    3506:	4a08      	ldr	r2, [pc, #32]	; (3528 <spin1_start+0xc0>)
    3508:	6812      	ldr	r2, [r2, #0]
    350a:	625a      	str	r2, [r3, #36]	; 0x24
    350c:	f7ff ff48 	bl	33a0 <report_debug>
    3510:	f7ff ff7c 	bl	340c <report_warns>
    3514:	6820      	ldr	r0, [r4, #0]
    3516:	bd70      	pop	{r4, r5, r6, pc}
    3518:	004051ec 	.word	0x004051ec
    351c:	004051e4 	.word	0x004051e4
    3520:	004051f4 	.word	0x004051f4
    3524:	004051e8 	.word	0x004051e8
    3528:	004051f0 	.word	0x004051f0
    352c:	21000008 	.word	0x21000008
    3530:	00405bc0 	.word	0x00405bc0
    3534:	00405520 	.word	0x00405520
    3538:	004051fc 	.word	0x004051fc
    353c:	00405a38 	.word	0x00405a38
    3540:	e1000304 	.word	0xe1000304
    3544:	e1000300 	.word	0xe1000300
    3548:	e1000320 	.word	0xe1000320
    354c:	00405a70 	.word	0x00405a70
    3550:	00400004 	.word	0x00400004
    3554:	40000040 	.word	0x40000040

00003558 <spin1_delay_us>:
    3558:	b508      	push	{r3, lr}
    355a:	f7fc feaf 	bl	2bc <sark_delay_us>
    355e:	bd08      	pop	{r3, pc}

00003560 <spin1_dma_transfer>:
    3560:	b5f0      	push	{r4, r5, r6, r7, lr}
    3562:	b085      	sub	sp, #20
    3564:	9101      	str	r1, [sp, #4]
    3566:	9202      	str	r2, [sp, #8]
    3568:	9300      	str	r3, [sp, #0]
    356a:	9003      	str	r0, [sp, #12]
    356c:	f7fc ee2c 	blx	1c8 <cpu_int_disable>
    3570:	4b1f      	ldr	r3, [pc, #124]	; (35f0 <spin1_dma_transfer+0x90>)
    3572:	210f      	movs	r1, #15
    3574:	685a      	ldr	r2, [r3, #4]
    3576:	1c54      	adds	r4, r2, #1
    3578:	1c25      	adds	r5, r4, #0
    357a:	400d      	ands	r5, r1
    357c:	6819      	ldr	r1, [r3, #0]
    357e:	428d      	cmp	r5, r1
    3580:	d026      	beq.n	35d0 <spin1_dma_transfer+0x70>
    3582:	4f1c      	ldr	r7, [pc, #112]	; (35f4 <spin1_dma_transfer+0x94>)
    3584:	683c      	ldr	r4, [r7, #0]
    3586:	1c66      	adds	r6, r4, #1
    3588:	603e      	str	r6, [r7, #0]
    358a:	9f00      	ldr	r7, [sp, #0]
    358c:	04fe      	lsls	r6, r7, #19
    358e:	9f0a      	ldr	r7, [sp, #40]	; 0x28
    3590:	433e      	orrs	r6, r7
    3592:	27c0      	movs	r7, #192	; 0xc0
    3594:	047f      	lsls	r7, r7, #17
    3596:	433e      	orrs	r6, r7
    3598:	2714      	movs	r7, #20
    359a:	4357      	muls	r7, r2
    359c:	19db      	adds	r3, r3, r7
    359e:	9f03      	ldr	r7, [sp, #12]
    35a0:	60df      	str	r7, [r3, #12]
    35a2:	9f01      	ldr	r7, [sp, #4]
    35a4:	611f      	str	r7, [r3, #16]
    35a6:	9f02      	ldr	r7, [sp, #8]
    35a8:	609c      	str	r4, [r3, #8]
    35aa:	615f      	str	r7, [r3, #20]
    35ac:	619e      	str	r6, [r3, #24]
    35ae:	4b12      	ldr	r3, [pc, #72]	; (35f8 <spin1_dma_transfer+0x98>)
    35b0:	681b      	ldr	r3, [r3, #0]
    35b2:	075f      	lsls	r7, r3, #29
    35b4:	d409      	bmi.n	35ca <spin1_dma_transfer+0x6a>
    35b6:	4291      	cmp	r1, r2
    35b8:	d107      	bne.n	35ca <spin1_dma_transfer+0x6a>
    35ba:	4b10      	ldr	r3, [pc, #64]	; (35fc <spin1_dma_transfer+0x9c>)
    35bc:	9f01      	ldr	r7, [sp, #4]
    35be:	601f      	str	r7, [r3, #0]
    35c0:	4b0f      	ldr	r3, [pc, #60]	; (3600 <spin1_dma_transfer+0xa0>)
    35c2:	9f02      	ldr	r7, [sp, #8]
    35c4:	601f      	str	r7, [r3, #0]
    35c6:	4b0f      	ldr	r3, [pc, #60]	; (3604 <spin1_dma_transfer+0xa4>)
    35c8:	601e      	str	r6, [r3, #0]
    35ca:	4b09      	ldr	r3, [pc, #36]	; (35f0 <spin1_dma_transfer+0x90>)
    35cc:	605d      	str	r5, [r3, #4]
    35ce:	e009      	b.n	35e4 <spin1_dma_transfer+0x84>
    35d0:	4b0d      	ldr	r3, [pc, #52]	; (3608 <spin1_dma_transfer+0xa8>)
    35d2:	2202      	movs	r2, #2
    35d4:	6819      	ldr	r1, [r3, #0]
    35d6:	2400      	movs	r4, #0
    35d8:	430a      	orrs	r2, r1
    35da:	601a      	str	r2, [r3, #0]
    35dc:	4b0b      	ldr	r3, [pc, #44]	; (360c <spin1_dma_transfer+0xac>)
    35de:	681a      	ldr	r2, [r3, #0]
    35e0:	3201      	adds	r2, #1
    35e2:	601a      	str	r2, [r3, #0]
    35e4:	f7fc edf8 	blx	1d8 <cpu_int_restore>
    35e8:	1c20      	adds	r0, r4, #0
    35ea:	b005      	add	sp, #20
    35ec:	bdf0      	pop	{r4, r5, r6, r7, pc}
    35ee:	46c0      	nop			; (mov r8, r8)
    35f0:	00405a74 	.word	0x00405a74
    35f4:	00400004 	.word	0x00400004
    35f8:	40000014 	.word	0x40000014
    35fc:	40000004 	.word	0x40000004
    3600:	40000008 	.word	0x40000008
    3604:	4000000c 	.word	0x4000000c
    3608:	004051e4 	.word	0x004051e4
    360c:	004051f4 	.word	0x004051f4

00003610 <spin1_send_mc_packet>:
    3610:	b5f7      	push	{r0, r1, r2, r4, r5, r6, r7, lr}
    3612:	1c14      	adds	r4, r2, #0
    3614:	1c06      	adds	r6, r0, #0
    3616:	1c0d      	adds	r5, r1, #0
    3618:	f7fc edc6 	blx	1a8 <cpu_irq_disable>
    361c:	2380      	movs	r3, #128	; 0x80
    361e:	059b      	lsls	r3, r3, #22
    3620:	2700      	movs	r7, #0
    3622:	601f      	str	r7, [r3, #0]
    3624:	681a      	ldr	r2, [r3, #0]
    3626:	4b2f      	ldr	r3, [pc, #188]	; (36e4 <spin1_send_mc_packet+0xd4>)
    3628:	0051      	lsls	r1, r2, #1
    362a:	d520      	bpl.n	366e <spin1_send_mc_packet+0x5e>
    362c:	685a      	ldr	r2, [r3, #4]
    362e:	9201      	str	r2, [sp, #4]
    3630:	3201      	adds	r2, #1
    3632:	4694      	mov	ip, r2
    3634:	4661      	mov	r1, ip
    3636:	220f      	movs	r2, #15
    3638:	400a      	ands	r2, r1
    363a:	6819      	ldr	r1, [r3, #0]
    363c:	428a      	cmp	r2, r1
    363e:	d10a      	bne.n	3656 <spin1_send_mc_packet+0x46>
    3640:	4b29      	ldr	r3, [pc, #164]	; (36e8 <spin1_send_mc_packet+0xd8>)
    3642:	2204      	movs	r2, #4
    3644:	6819      	ldr	r1, [r3, #0]
    3646:	1c3c      	adds	r4, r7, #0
    3648:	430a      	orrs	r2, r1
    364a:	601a      	str	r2, [r3, #0]
    364c:	4b27      	ldr	r3, [pc, #156]	; (36ec <spin1_send_mc_packet+0xdc>)
    364e:	681a      	ldr	r2, [r3, #0]
    3650:	3201      	adds	r2, #1
    3652:	601a      	str	r2, [r3, #0]
    3654:	e041      	b.n	36da <spin1_send_mc_packet+0xca>
    3656:	9901      	ldr	r1, [sp, #4]
    3658:	270c      	movs	r7, #12
    365a:	434f      	muls	r7, r1
    365c:	605a      	str	r2, [r3, #4]
    365e:	19d9      	adds	r1, r3, r7
    3660:	2280      	movs	r2, #128	; 0x80
    3662:	608e      	str	r6, [r1, #8]
    3664:	60cd      	str	r5, [r1, #12]
    3666:	610c      	str	r4, [r1, #16]
    3668:	0112      	lsls	r2, r2, #4
    366a:	4b21      	ldr	r3, [pc, #132]	; (36f0 <spin1_send_mc_packet+0xe0>)
    366c:	e028      	b.n	36c0 <spin1_send_mc_packet+0xb0>
    366e:	6859      	ldr	r1, [r3, #4]
    3670:	681f      	ldr	r7, [r3, #0]
    3672:	3101      	adds	r1, #1
    3674:	220f      	movs	r2, #15
    3676:	4011      	ands	r1, r2
    3678:	42b9      	cmp	r1, r7
    367a:	d113      	bne.n	36a4 <spin1_send_mc_packet+0x94>
    367c:	270c      	movs	r7, #12
    367e:	434f      	muls	r7, r1
    3680:	3101      	adds	r1, #1
    3682:	19df      	adds	r7, r3, r7
    3684:	68ba      	ldr	r2, [r7, #8]
    3686:	9201      	str	r2, [sp, #4]
    3688:	68fa      	ldr	r2, [r7, #12]
    368a:	693f      	ldr	r7, [r7, #16]
    368c:	4694      	mov	ip, r2
    368e:	220f      	movs	r2, #15
    3690:	4011      	ands	r1, r2
    3692:	6019      	str	r1, [r3, #0]
    3694:	2f00      	cmp	r7, #0
    3696:	d002      	beq.n	369e <spin1_send_mc_packet+0x8e>
    3698:	4b16      	ldr	r3, [pc, #88]	; (36f4 <spin1_send_mc_packet+0xe4>)
    369a:	4667      	mov	r7, ip
    369c:	601f      	str	r7, [r3, #0]
    369e:	4b16      	ldr	r3, [pc, #88]	; (36f8 <spin1_send_mc_packet+0xe8>)
    36a0:	9901      	ldr	r1, [sp, #4]
    36a2:	6019      	str	r1, [r3, #0]
    36a4:	4b0f      	ldr	r3, [pc, #60]	; (36e4 <spin1_send_mc_packet+0xd4>)
    36a6:	685a      	ldr	r2, [r3, #4]
    36a8:	681f      	ldr	r7, [r3, #0]
    36aa:	4297      	cmp	r7, r2
    36ac:	d10a      	bne.n	36c4 <spin1_send_mc_packet+0xb4>
    36ae:	2c00      	cmp	r4, #0
    36b0:	d001      	beq.n	36b6 <spin1_send_mc_packet+0xa6>
    36b2:	4b10      	ldr	r3, [pc, #64]	; (36f4 <spin1_send_mc_packet+0xe4>)
    36b4:	601d      	str	r5, [r3, #0]
    36b6:	4b10      	ldr	r3, [pc, #64]	; (36f8 <spin1_send_mc_packet+0xe8>)
    36b8:	2280      	movs	r2, #128	; 0x80
    36ba:	601e      	str	r6, [r3, #0]
    36bc:	4b0f      	ldr	r3, [pc, #60]	; (36fc <spin1_send_mc_packet+0xec>)
    36be:	0112      	lsls	r2, r2, #4
    36c0:	601a      	str	r2, [r3, #0]
    36c2:	e009      	b.n	36d8 <spin1_send_mc_packet+0xc8>
    36c4:	210c      	movs	r1, #12
    36c6:	4351      	muls	r1, r2
    36c8:	3201      	adds	r2, #1
    36ca:	1859      	adds	r1, r3, r1
    36cc:	608e      	str	r6, [r1, #8]
    36ce:	60cd      	str	r5, [r1, #12]
    36d0:	610c      	str	r4, [r1, #16]
    36d2:	210f      	movs	r1, #15
    36d4:	400a      	ands	r2, r1
    36d6:	605a      	str	r2, [r3, #4]
    36d8:	2401      	movs	r4, #1
    36da:	f7fc ed7e 	blx	1d8 <cpu_int_restore>
    36de:	1c20      	adds	r0, r4, #0
    36e0:	bdfe      	pop	{r1, r2, r3, r4, r5, r6, r7, pc}
    36e2:	46c0      	nop			; (mov r8, r8)
    36e4:	00405bf8 	.word	0x00405bf8
    36e8:	004051e4 	.word	0x004051e4
    36ec:	004051f0 	.word	0x004051f0
    36f0:	2f000010 	.word	0x2f000010
    36f4:	20000004 	.word	0x20000004
    36f8:	20000008 	.word	0x20000008
    36fc:	2f000014 	.word	0x2f000014

00003700 <spin1_get_core_id>:
    3700:	4b01      	ldr	r3, [pc, #4]	; (3708 <spin1_get_core_id+0x8>)
    3702:	6818      	ldr	r0, [r3, #0]
    3704:	4770      	bx	lr
    3706:	46c0      	nop			; (mov r8, r8)
    3708:	00405960 	.word	0x00405960

0000370c <spin1_malloc>:
    370c:	b508      	push	{r3, lr}
    370e:	2101      	movs	r1, #1
    3710:	f7ff f9b0 	bl	2a74 <sark_alloc>
    3714:	bd08      	pop	{r3, pc}
	...

00003718 <schedule_sysmode>:
    3718:	b5f8      	push	{r3, r4, r5, r6, r7, lr}
    371a:	4d15      	ldr	r5, [pc, #84]	; (3770 <schedule_sysmode+0x58>)
    371c:	00c6      	lsls	r6, r0, #3
    371e:	19ab      	adds	r3, r5, r6
    3720:	685b      	ldr	r3, [r3, #4]
    3722:	2b00      	cmp	r3, #0
    3724:	dc04      	bgt.n	3730 <schedule_sysmode+0x18>
    3726:	1c08      	adds	r0, r1, #0
    3728:	5973      	ldr	r3, [r6, r5]
    372a:	1c11      	adds	r1, r2, #0
    372c:	4798      	blx	r3
    372e:	e01d      	b.n	376c <schedule_sysmode+0x54>
    3730:	20c8      	movs	r0, #200	; 0xc8
    3732:	3b01      	subs	r3, #1
    3734:	4343      	muls	r3, r0
    3736:	480f      	ldr	r0, [pc, #60]	; (3774 <schedule_sysmode+0x5c>)
    3738:	18c3      	adds	r3, r0, r3
    373a:	685c      	ldr	r4, [r3, #4]
    373c:	200f      	movs	r0, #15
    373e:	1c67      	adds	r7, r4, #1
    3740:	4038      	ands	r0, r7
    3742:	681f      	ldr	r7, [r3, #0]
    3744:	42b8      	cmp	r0, r7
    3746:	d008      	beq.n	375a <schedule_sysmode+0x42>
    3748:	270c      	movs	r7, #12
    374a:	437c      	muls	r4, r7
    374c:	5976      	ldr	r6, [r6, r5]
    374e:	191c      	adds	r4, r3, r4
    3750:	60a6      	str	r6, [r4, #8]
    3752:	60e1      	str	r1, [r4, #12]
    3754:	6122      	str	r2, [r4, #16]
    3756:	6058      	str	r0, [r3, #4]
    3758:	e008      	b.n	376c <schedule_sysmode+0x54>
    375a:	4b07      	ldr	r3, [pc, #28]	; (3778 <schedule_sysmode+0x60>)
    375c:	2201      	movs	r2, #1
    375e:	6819      	ldr	r1, [r3, #0]
    3760:	430a      	orrs	r2, r1
    3762:	601a      	str	r2, [r3, #0]
    3764:	4b05      	ldr	r3, [pc, #20]	; (377c <schedule_sysmode+0x64>)
    3766:	681a      	ldr	r2, [r3, #0]
    3768:	3201      	adds	r2, #1
    376a:	601a      	str	r2, [r3, #0]
    376c:	bdf8      	pop	{r3, r4, r5, r6, r7, pc}
    376e:	46c0      	nop			; (mov r8, r8)
    3770:	00405bc8 	.word	0x00405bc8
    3774:	00405200 	.word	0x00405200
    3778:	004051e4 	.word	0x004051e4
    377c:	004051e8 	.word	0x004051e8

00003780 <spin1_trigger_user_event>:
    3780:	4b08      	ldr	r3, [pc, #32]	; (37a4 <spin1_trigger_user_event+0x24>)
    3782:	b510      	push	{r4, lr}
    3784:	781c      	ldrb	r4, [r3, #0]
    3786:	1c02      	adds	r2, r0, #0
    3788:	2000      	movs	r0, #0
    378a:	4284      	cmp	r4, r0
    378c:	d108      	bne.n	37a0 <spin1_trigger_user_event+0x20>
    378e:	4806      	ldr	r0, [pc, #24]	; (37a8 <spin1_trigger_user_event+0x28>)
    3790:	6002      	str	r2, [r0, #0]
    3792:	4a06      	ldr	r2, [pc, #24]	; (37ac <spin1_trigger_user_event+0x2c>)
    3794:	2001      	movs	r0, #1
    3796:	7018      	strb	r0, [r3, #0]
    3798:	4b05      	ldr	r3, [pc, #20]	; (37b0 <spin1_trigger_user_event+0x30>)
    379a:	6011      	str	r1, [r2, #0]
    379c:	2202      	movs	r2, #2
    379e:	601a      	str	r2, [r3, #0]
    37a0:	bd10      	pop	{r4, pc}
    37a2:	46c0      	nop			; (mov r8, r8)
    37a4:	004051f8 	.word	0x004051f8
    37a8:	00405bc4 	.word	0x00405bc4
    37ac:	00405a68 	.word	0x00405a68
    37b0:	2f000018 	.word	0x2f000018

000037b4 <sark_pre_main>:
    37b4:	b508      	push	{r3, lr}
    37b6:	2006      	movs	r0, #6
    37b8:	f7fe fcf0 	bl	219c <sark_cpu_state>
    37bc:	2201      	movs	r2, #1
    37be:	235b      	movs	r3, #91	; 0x5b
    37c0:	701a      	strb	r2, [r3, #0]
    37c2:	f7fe fcf3 	bl	21ac <sark_app_lead>
    37c6:	4b04      	ldr	r3, [pc, #16]	; (37d8 <sark_pre_main+0x24>)
    37c8:	681b      	ldr	r3, [r3, #0]
    37ca:	1ac2      	subs	r2, r0, r3
    37cc:	4253      	negs	r3, r2
    37ce:	415a      	adcs	r2, r3
    37d0:	4b02      	ldr	r3, [pc, #8]	; (37dc <sark_pre_main+0x28>)
    37d2:	701a      	strb	r2, [r3, #0]
    37d4:	bd08      	pop	{r3, pc}
    37d6:	46c0      	nop			; (mov r8, r8)
    37d8:	00405960 	.word	0x00405960
    37dc:	00405a6c 	.word	0x00405a6c

000037e0 <sark_post_main>:
    37e0:	b508      	push	{r3, lr}
    37e2:	200b      	movs	r0, #11
    37e4:	f7fe fcda 	bl	219c <sark_cpu_state>
    37e8:	bd08      	pop	{r3, pc}
	...

000037ec <cc_rx_ready_isr>:
    37ec:	e24ee004 	sub	lr, lr, #4
    37f0:	e92d500f 	push	{r0, r1, r2, r3, ip, lr}
    37f4:	e3a03202 	mov	r3, #536870912	; 0x20000000
    37f8:	e593000c 	ldr	r0, [r3, #12]
    37fc:	e59fc058 	ldr	ip, [pc, #88]	; 385c <cc_rx_ready_isr+0x70>
    3800:	e2100802 	ands	r0, r0, #131072	; 0x20000
    3804:	0a000006 	beq	3824 <cc_rx_ready_isr+0x38>
    3808:	e5932010 	ldr	r2, [r3, #16]
    380c:	e5931014 	ldr	r1, [r3, #20]
    3810:	e59c3028 	ldr	r3, [ip, #40]	; 0x28
    3814:	e3530000 	cmp	r3, #0
    3818:	13a00005 	movne	r0, #5
    381c:	1a000005 	bne	3838 <cc_rx_ready_isr+0x4c>
    3820:	ea000006 	b	3840 <cc_rx_ready_isr+0x54>
    3824:	e5931014 	ldr	r1, [r3, #20]
    3828:	e59c3000 	ldr	r3, [ip]
    382c:	e3530000 	cmp	r3, #0
    3830:	0a000002 	beq	3840 <cc_rx_ready_isr+0x54>
    3834:	e1a02000 	mov	r2, r0
    3838:	ebfff2bd 	bl	334 <schedule>
    383c:	ea000003 	b	3850 <cc_rx_ready_isr+0x64>
    3840:	e59f3018 	ldr	r3, [pc, #24]	; 3860 <cc_rx_ready_isr+0x74>
    3844:	e5932000 	ldr	r2, [r3]
    3848:	e2822001 	add	r2, r2, #1
    384c:	e5832000 	str	r2, [r3]
    3850:	e3a0342f 	mov	r3, #788529152	; 0x2f000000
    3854:	e5833030 	str	r3, [r3, #48]	; 0x30
    3858:	e8fd900f 	ldm	sp!, {r0, r1, r2, r3, ip, pc}^
    385c:	00405bc8 	.word	0x00405bc8
    3860:	00405a70 	.word	0x00405a70

00003864 <cc_rx_ready_fiqsr>:
    3864:	e24ee004 	sub	lr, lr, #4
    3868:	e92d500f 	push	{r0, r1, r2, r3, ip, lr}
    386c:	e3a03202 	mov	r3, #536870912	; 0x20000000
    3870:	e593100c 	ldr	r1, [r3, #12]
    3874:	e59f201c 	ldr	r2, [pc, #28]	; 3898 <cc_rx_ready_fiqsr+0x34>
    3878:	e2111802 	ands	r1, r1, #131072	; 0x20000
    387c:	15931010 	ldrne	r1, [r3, #16]
    3880:	05930014 	ldreq	r0, [r3, #20]
    3884:	15930014 	ldrne	r0, [r3, #20]
    3888:	05923000 	ldreq	r3, [r2]
    388c:	15923028 	ldrne	r3, [r2, #40]	; 0x28
    3890:	e12fff33 	blx	r3
    3894:	e8fd900f 	ldm	sp!, {r0, r1, r2, r3, ip, pc}^
    3898:	00405bc8 	.word	0x00405bc8

0000389c <cc_tx_empty_isr>:
    389c:	e92d103f 	push	{r0, r1, r2, r3, r4, r5, ip}
    38a0:	e3a03000 	mov	r3, #0
    38a4:	e3a02202 	mov	r2, #536870912	; 0x20000000
    38a8:	e5823000 	str	r3, [r2]
    38ac:	e3a0c00c 	mov	ip, #12
    38b0:	e59f306c 	ldr	r3, [pc, #108]	; 3924 <cc_tx_empty_isr+0x88>
    38b4:	ea000009 	b	38e0 <cc_tx_empty_isr+0x44>
    38b8:	e020319c 	mla	r0, ip, r1, r3
    38bc:	e2811001 	add	r1, r1, #1
    38c0:	e5904008 	ldr	r4, [r0, #8]
    38c4:	e590500c 	ldr	r5, [r0, #12]
    38c8:	e5900010 	ldr	r0, [r0, #16]
    38cc:	e201100f 	and	r1, r1, #15
    38d0:	e3500000 	cmp	r0, #0
    38d4:	e5831000 	str	r1, [r3]
    38d8:	15825004 	strne	r5, [r2, #4]
    38dc:	e5824008 	str	r4, [r2, #8]
    38e0:	e5931000 	ldr	r1, [r3]
    38e4:	e5930004 	ldr	r0, [r3, #4]
    38e8:	e1510000 	cmp	r1, r0
    38ec:	0a000006 	beq	390c <cc_tx_empty_isr+0x70>
    38f0:	e5920000 	ldr	r0, [r2]
    38f4:	e3100101 	tst	r0, #1073741824	; 0x40000000
    38f8:	0affffee 	beq	38b8 <cc_tx_empty_isr+0x1c>
    38fc:	e3a02001 	mov	r2, #1
    3900:	e3a0342f 	mov	r3, #788529152	; 0x2f000000
    3904:	e5832030 	str	r2, [r3, #48]	; 0x30
    3908:	ea000003 	b	391c <cc_tx_empty_isr+0x80>
    390c:	e3a02b02 	mov	r2, #2048	; 0x800
    3910:	e3a0342f 	mov	r3, #788529152	; 0x2f000000
    3914:	e5832014 	str	r2, [r3, #20]
    3918:	eafffff7 	b	38fc <cc_tx_empty_isr+0x60>
    391c:	e8bd103f 	pop	{r0, r1, r2, r3, r4, r5, ip}
    3920:	e25ef004 	subs	pc, lr, #4
    3924:	00405bf8 	.word	0x00405bf8

00003928 <dma_done_isr>:
    3928:	e24ee004 	sub	lr, lr, #4
    392c:	e92d503f 	push	{r0, r1, r2, r3, r4, r5, ip, lr}
    3930:	e3a03008 	mov	r3, #8
    3934:	e3a00101 	mov	r0, #1073741824	; 0x40000000
    3938:	e5803010 	str	r3, [r0, #16]
    393c:	e59f3068 	ldr	r3, [pc, #104]	; 39ac <dma_done_isr+0x84>
    3940:	e3a04014 	mov	r4, #20
    3944:	e593c000 	ldr	ip, [r3]
    3948:	e5935004 	ldr	r5, [r3, #4]
    394c:	e0223c94 	mla	r2, r4, ip, r3
    3950:	e28cc001 	add	ip, ip, #1
    3954:	e20cc00f 	and	ip, ip, #15
    3958:	e15c0005 	cmp	ip, r5
    395c:	e5921008 	ldr	r1, [r2, #8]
    3960:	e583c000 	str	ip, [r3]
    3964:	e592200c 	ldr	r2, [r2, #12]
    3968:	0a000005 	beq	3984 <dma_done_isr+0x5c>
    396c:	e0233c94 	mla	r3, r4, ip, r3
    3970:	e2833010 	add	r3, r3, #16
    3974:	e8931018 	ldm	r3, {r3, r4, ip}
    3978:	e5803004 	str	r3, [r0, #4]
    397c:	e5804008 	str	r4, [r0, #8]
    3980:	e580c00c 	str	ip, [r0, #12]
    3984:	e59f3024 	ldr	r3, [pc, #36]	; 39b0 <dma_done_isr+0x88>
    3988:	e5933008 	ldr	r3, [r3, #8]
    398c:	e3530000 	cmp	r3, #0
    3990:	0a000001 	beq	399c <dma_done_isr+0x74>
    3994:	e3a00001 	mov	r0, #1
    3998:	ebfff265 	bl	334 <schedule>
    399c:	e3a02001 	mov	r2, #1
    39a0:	e3a0342f 	mov	r3, #788529152	; 0x2f000000
    39a4:	e5832030 	str	r2, [r3, #48]	; 0x30
    39a8:	e8fd903f 	ldm	sp!, {r0, r1, r2, r3, r4, r5, ip, pc}^
    39ac:	00405a74 	.word	0x00405a74
    39b0:	00405bc8 	.word	0x00405bc8

000039b4 <dma_done_fiqsr>:
    39b4:	e24ee004 	sub	lr, lr, #4
    39b8:	e92d503f 	push	{r0, r1, r2, r3, r4, r5, ip, lr}
    39bc:	e3a03008 	mov	r3, #8
    39c0:	e3a02101 	mov	r2, #1073741824	; 0x40000000
    39c4:	e5823010 	str	r3, [r2, #16]
    39c8:	e59f3054 	ldr	r3, [pc, #84]	; 3a24 <dma_done_fiqsr+0x70>
    39cc:	e3a0e014 	mov	lr, #20
    39d0:	e593c000 	ldr	ip, [r3]
    39d4:	e5934004 	ldr	r4, [r3, #4]
    39d8:	e0213c9e 	mla	r1, lr, ip, r3
    39dc:	e28cc001 	add	ip, ip, #1
    39e0:	e20cc00f 	and	ip, ip, #15
    39e4:	e15c0004 	cmp	ip, r4
    39e8:	e5910008 	ldr	r0, [r1, #8]
    39ec:	e583c000 	str	ip, [r3]
    39f0:	e591100c 	ldr	r1, [r1, #12]
    39f4:	0a000006 	beq	3a14 <dma_done_fiqsr+0x60>
    39f8:	e0233c9e 	mla	r3, lr, ip, r3
    39fc:	e593e014 	ldr	lr, [r3, #20]
    3a00:	e593c018 	ldr	ip, [r3, #24]
    3a04:	e5933010 	ldr	r3, [r3, #16]
    3a08:	e5823004 	str	r3, [r2, #4]
    3a0c:	e582e008 	str	lr, [r2, #8]
    3a10:	e582c00c 	str	ip, [r2, #12]
    3a14:	e59f300c 	ldr	r3, [pc, #12]	; 3a28 <dma_done_fiqsr+0x74>
    3a18:	e5933008 	ldr	r3, [r3, #8]
    3a1c:	e12fff33 	blx	r3
    3a20:	e8fd903f 	ldm	sp!, {r0, r1, r2, r3, r4, r5, ip, pc}^
    3a24:	00405a74 	.word	0x00405a74
    3a28:	00405bc8 	.word	0x00405bc8

00003a2c <timer1_isr>:
    3a2c:	e24ee004 	sub	lr, lr, #4
    3a30:	e92d500f 	push	{r0, r1, r2, r3, ip, lr}
    3a34:	e3a02001 	mov	r2, #1
    3a38:	e3a03421 	mov	r3, #553648128	; 0x21000000
    3a3c:	e583200c 	str	r2, [r3, #12]
    3a40:	e59f3034 	ldr	r3, [pc, #52]	; 3a7c <timer1_isr+0x50>
    3a44:	e5931000 	ldr	r1, [r3]
    3a48:	e0811002 	add	r1, r1, r2
    3a4c:	e5831000 	str	r1, [r3]
    3a50:	e59f3028 	ldr	r3, [pc, #40]	; 3a80 <timer1_isr+0x54>
    3a54:	e5933010 	ldr	r3, [r3, #16]
    3a58:	e3530000 	cmp	r3, #0
    3a5c:	0a000002 	beq	3a6c <timer1_isr+0x40>
    3a60:	e3a00002 	mov	r0, #2
    3a64:	e3a02000 	mov	r2, #0
    3a68:	ebfff231 	bl	334 <schedule>
    3a6c:	e3a02001 	mov	r2, #1
    3a70:	e3a0342f 	mov	r3, #788529152	; 0x2f000000
    3a74:	e5832030 	str	r2, [r3, #48]	; 0x30
    3a78:	e8fd900f 	ldm	sp!, {r0, r1, r2, r3, ip, pc}^
    3a7c:	00405bc0 	.word	0x00405bc0
    3a80:	00405bc8 	.word	0x00405bc8

00003a84 <timer1_fiqsr>:
    3a84:	e24ee004 	sub	lr, lr, #4
    3a88:	e92d500f 	push	{r0, r1, r2, r3, ip, lr}
    3a8c:	e3a02001 	mov	r2, #1
    3a90:	e3a03421 	mov	r3, #553648128	; 0x21000000
    3a94:	e583200c 	str	r2, [r3, #12]
    3a98:	e59f301c 	ldr	r3, [pc, #28]	; 3abc <timer1_fiqsr+0x38>
    3a9c:	e3a01000 	mov	r1, #0
    3aa0:	e5930000 	ldr	r0, [r3]
    3aa4:	e0800002 	add	r0, r0, r2
    3aa8:	e5830000 	str	r0, [r3]
    3aac:	e59f300c 	ldr	r3, [pc, #12]	; 3ac0 <timer1_fiqsr+0x3c>
    3ab0:	e5933010 	ldr	r3, [r3, #16]
    3ab4:	e12fff33 	blx	r3
    3ab8:	e8fd900f 	ldm	sp!, {r0, r1, r2, r3, ip, pc}^
    3abc:	00405bc0 	.word	0x00405bc0
    3ac0:	00405bc8 	.word	0x00405bc8

00003ac4 <soft_int_isr>:
    3ac4:	e24ee004 	sub	lr, lr, #4
    3ac8:	e92d500f 	push	{r0, r1, r2, r3, ip, lr}
    3acc:	e3a02002 	mov	r2, #2
    3ad0:	e3a0342f 	mov	r3, #788529152	; 0x2f000000
    3ad4:	e583201c 	str	r2, [r3, #28]
    3ad8:	e59f303c 	ldr	r3, [pc, #60]	; 3b1c <soft_int_isr+0x58>
    3adc:	e3a02000 	mov	r2, #0
    3ae0:	e5c32000 	strb	r2, [r3]
    3ae4:	e59f3034 	ldr	r3, [pc, #52]	; 3b20 <soft_int_isr+0x5c>
    3ae8:	e5933020 	ldr	r3, [r3, #32]
    3aec:	e1530002 	cmp	r3, r2
    3af0:	0a000005 	beq	3b0c <soft_int_isr+0x48>
    3af4:	e59f3028 	ldr	r3, [pc, #40]	; 3b24 <soft_int_isr+0x60>
    3af8:	e3a00004 	mov	r0, #4
    3afc:	e5931000 	ldr	r1, [r3]
    3b00:	e59f3020 	ldr	r3, [pc, #32]	; 3b28 <soft_int_isr+0x64>
    3b04:	e5932000 	ldr	r2, [r3]
    3b08:	ebfff209 	bl	334 <schedule>
    3b0c:	e3a02001 	mov	r2, #1
    3b10:	e3a0342f 	mov	r3, #788529152	; 0x2f000000
    3b14:	e5832030 	str	r2, [r3, #48]	; 0x30
    3b18:	e8fd900f 	ldm	sp!, {r0, r1, r2, r3, ip, pc}^
    3b1c:	004051f8 	.word	0x004051f8
    3b20:	00405bc8 	.word	0x00405bc8
    3b24:	00405bc4 	.word	0x00405bc4
    3b28:	00405a68 	.word	0x00405a68

00003b2c <soft_int_fiqsr>:
    3b2c:	e24ee004 	sub	lr, lr, #4
    3b30:	e92d500f 	push	{r0, r1, r2, r3, ip, lr}
    3b34:	e3a02002 	mov	r2, #2
    3b38:	e3a0342f 	mov	r3, #788529152	; 0x2f000000
    3b3c:	e583201c 	str	r2, [r3, #28]
    3b40:	e59f3024 	ldr	r3, [pc, #36]	; 3b6c <soft_int_fiqsr+0x40>
    3b44:	e3a02000 	mov	r2, #0
    3b48:	e5c32000 	strb	r2, [r3]
    3b4c:	e59f201c 	ldr	r2, [pc, #28]	; 3b70 <soft_int_fiqsr+0x44>
    3b50:	e59f301c 	ldr	r3, [pc, #28]	; 3b74 <soft_int_fiqsr+0x48>
    3b54:	e5920000 	ldr	r0, [r2]
    3b58:	e59f2018 	ldr	r2, [pc, #24]	; 3b78 <soft_int_fiqsr+0x4c>
    3b5c:	e5933020 	ldr	r3, [r3, #32]
    3b60:	e5921000 	ldr	r1, [r2]
    3b64:	e12fff33 	blx	r3
    3b68:	e8fd900f 	ldm	sp!, {r0, r1, r2, r3, ip, pc}^
    3b6c:	004051f8 	.word	0x004051f8
    3b70:	00405bc4 	.word	0x00405bc4
    3b74:	00405bc8 	.word	0x00405bc8
    3b78:	00405a68 	.word	0x00405a68

00003b7c <__aeabi_uidiv>:
    3b7c:	e2512001 	subs	r2, r1, #1
    3b80:	012fff1e 	bxeq	lr
    3b84:	3a000036 	bcc	3c64 <__aeabi_uidiv+0xe8>
    3b88:	e1500001 	cmp	r0, r1
    3b8c:	9a000022 	bls	3c1c <__aeabi_uidiv+0xa0>
    3b90:	e1110002 	tst	r1, r2
    3b94:	0a000023 	beq	3c28 <__aeabi_uidiv+0xac>
    3b98:	e311020e 	tst	r1, #-536870912	; 0xe0000000
    3b9c:	01a01181 	lsleq	r1, r1, #3
    3ba0:	03a03008 	moveq	r3, #8
    3ba4:	13a03001 	movne	r3, #1
    3ba8:	e3510201 	cmp	r1, #268435456	; 0x10000000
    3bac:	31510000 	cmpcc	r1, r0
    3bb0:	31a01201 	lslcc	r1, r1, #4
    3bb4:	31a03203 	lslcc	r3, r3, #4
    3bb8:	3afffffa 	bcc	3ba8 <__aeabi_uidiv+0x2c>
    3bbc:	e3510102 	cmp	r1, #-2147483648	; 0x80000000
    3bc0:	31510000 	cmpcc	r1, r0
    3bc4:	31a01081 	lslcc	r1, r1, #1
    3bc8:	31a03083 	lslcc	r3, r3, #1
    3bcc:	3afffffa 	bcc	3bbc <__aeabi_uidiv+0x40>
    3bd0:	e3a02000 	mov	r2, #0
    3bd4:	e1500001 	cmp	r0, r1
    3bd8:	20400001 	subcs	r0, r0, r1
    3bdc:	21822003 	orrcs	r2, r2, r3
    3be0:	e15000a1 	cmp	r0, r1, lsr #1
    3be4:	204000a1 	subcs	r0, r0, r1, lsr #1
    3be8:	218220a3 	orrcs	r2, r2, r3, lsr #1
    3bec:	e1500121 	cmp	r0, r1, lsr #2
    3bf0:	20400121 	subcs	r0, r0, r1, lsr #2
    3bf4:	21822123 	orrcs	r2, r2, r3, lsr #2
    3bf8:	e15001a1 	cmp	r0, r1, lsr #3
    3bfc:	204001a1 	subcs	r0, r0, r1, lsr #3
    3c00:	218221a3 	orrcs	r2, r2, r3, lsr #3
    3c04:	e3500000 	cmp	r0, #0
    3c08:	11b03223 	lsrsne	r3, r3, #4
    3c0c:	11a01221 	lsrne	r1, r1, #4
    3c10:	1affffef 	bne	3bd4 <__aeabi_uidiv+0x58>
    3c14:	e1a00002 	mov	r0, r2
    3c18:	e12fff1e 	bx	lr
    3c1c:	03a00001 	moveq	r0, #1
    3c20:	13a00000 	movne	r0, #0
    3c24:	e12fff1e 	bx	lr
    3c28:	e3510801 	cmp	r1, #65536	; 0x10000
    3c2c:	21a01821 	lsrcs	r1, r1, #16
    3c30:	23a02010 	movcs	r2, #16
    3c34:	33a02000 	movcc	r2, #0
    3c38:	e3510c01 	cmp	r1, #256	; 0x100
    3c3c:	21a01421 	lsrcs	r1, r1, #8
    3c40:	22822008 	addcs	r2, r2, #8
    3c44:	e3510010 	cmp	r1, #16
    3c48:	21a01221 	lsrcs	r1, r1, #4
    3c4c:	22822004 	addcs	r2, r2, #4
    3c50:	e3510004 	cmp	r1, #4
    3c54:	82822003 	addhi	r2, r2, #3
    3c58:	908220a1 	addls	r2, r2, r1, lsr #1
    3c5c:	e1a00230 	lsr	r0, r0, r2
    3c60:	e12fff1e 	bx	lr
    3c64:	e3500000 	cmp	r0, #0
    3c68:	13e00000 	mvnne	r0, #0
    3c6c:	ea000007 	b	3c90 <__aeabi_idiv0>

00003c70 <__aeabi_uidivmod>:
    3c70:	e3510000 	cmp	r1, #0
    3c74:	0afffffa 	beq	3c64 <__aeabi_uidiv+0xe8>
    3c78:	e92d4003 	push	{r0, r1, lr}
    3c7c:	ebffffbe 	bl	3b7c <__aeabi_uidiv>
    3c80:	e8bd4006 	pop	{r1, r2, lr}
    3c84:	e0030092 	mul	r3, r2, r0
    3c88:	e0411003 	sub	r1, r1, r3
    3c8c:	e12fff1e 	bx	lr

00003c90 <__aeabi_idiv0>:
    3c90:	e12fff1e 	bx	lr

00003c94 <memcpy>:
    3c94:	e352000f 	cmp	r2, #15
    3c98:	e92d00f0 	push	{r4, r5, r6, r7}
    3c9c:	9a00002a 	bls	3d4c <memcpy+0xb8>
    3ca0:	e1803001 	orr	r3, r0, r1
    3ca4:	e3130003 	tst	r3, #3
    3ca8:	1a000031 	bne	3d74 <memcpy+0xe0>
    3cac:	e2426010 	sub	r6, r2, #16
    3cb0:	e1a06226 	lsr	r6, r6, #4
    3cb4:	e0805206 	add	r5, r0, r6, lsl #4
    3cb8:	e2855010 	add	r5, r5, #16
    3cbc:	e1a0c001 	mov	ip, r1
    3cc0:	e1a03000 	mov	r3, r0
    3cc4:	e59c4000 	ldr	r4, [ip]
    3cc8:	e5834000 	str	r4, [r3]
    3ccc:	e59c4004 	ldr	r4, [ip, #4]
    3cd0:	e5834004 	str	r4, [r3, #4]
    3cd4:	e59c4008 	ldr	r4, [ip, #8]
    3cd8:	e5834008 	str	r4, [r3, #8]
    3cdc:	e59c400c 	ldr	r4, [ip, #12]
    3ce0:	e2833010 	add	r3, r3, #16
    3ce4:	e5034004 	str	r4, [r3, #-4]
    3ce8:	e1530005 	cmp	r3, r5
    3cec:	e28cc010 	add	ip, ip, #16
    3cf0:	1afffff3 	bne	3cc4 <memcpy+0x30>
    3cf4:	e2863001 	add	r3, r6, #1
    3cf8:	e202700f 	and	r7, r2, #15
    3cfc:	e1a03203 	lsl	r3, r3, #4
    3d00:	e3570003 	cmp	r7, #3
    3d04:	e0811003 	add	r1, r1, r3
    3d08:	e0803003 	add	r3, r0, r3
    3d0c:	9a00001a 	bls	3d7c <memcpy+0xe8>
    3d10:	e1a05001 	mov	r5, r1
    3d14:	e1a04003 	mov	r4, r3
    3d18:	e1a0c007 	mov	ip, r7
    3d1c:	e24cc004 	sub	ip, ip, #4
    3d20:	e4956004 	ldr	r6, [r5], #4
    3d24:	e35c0003 	cmp	ip, #3
    3d28:	e4846004 	str	r6, [r4], #4
    3d2c:	8afffffa 	bhi	3d1c <memcpy+0x88>
    3d30:	e247c004 	sub	ip, r7, #4
    3d34:	e3ccc003 	bic	ip, ip, #3
    3d38:	e28cc004 	add	ip, ip, #4
    3d3c:	e083300c 	add	r3, r3, ip
    3d40:	e081100c 	add	r1, r1, ip
    3d44:	e2022003 	and	r2, r2, #3
    3d48:	ea000000 	b	3d50 <memcpy+0xbc>
    3d4c:	e1a03000 	mov	r3, r0
    3d50:	e3520000 	cmp	r2, #0
    3d54:	0a000004 	beq	3d6c <memcpy+0xd8>
    3d58:	e0812002 	add	r2, r1, r2
    3d5c:	e4d1c001 	ldrb	ip, [r1], #1
    3d60:	e1510002 	cmp	r1, r2
    3d64:	e4c3c001 	strb	ip, [r3], #1
    3d68:	1afffffb 	bne	3d5c <memcpy+0xc8>
    3d6c:	e8bd00f0 	pop	{r4, r5, r6, r7}
    3d70:	e12fff1e 	bx	lr
    3d74:	e1a03000 	mov	r3, r0
    3d78:	eafffff6 	b	3d58 <memcpy+0xc4>
    3d7c:	e1a02007 	mov	r2, r7
    3d80:	eafffff2 	b	3d50 <memcpy+0xbc>

00003d84 <memset>:
    3d84:	e3100003 	tst	r0, #3
    3d88:	e92d0070 	push	{r4, r5, r6}
    3d8c:	0a000037 	beq	3e70 <memset+0xec>
    3d90:	e3520000 	cmp	r2, #0
    3d94:	e2422001 	sub	r2, r2, #1
    3d98:	0a000032 	beq	3e68 <memset+0xe4>
    3d9c:	e201c0ff 	and	ip, r1, #255	; 0xff
    3da0:	e1a03000 	mov	r3, r0
    3da4:	ea000002 	b	3db4 <memset+0x30>
    3da8:	e3520000 	cmp	r2, #0
    3dac:	e2422001 	sub	r2, r2, #1
    3db0:	0a00002c 	beq	3e68 <memset+0xe4>
    3db4:	e4c3c001 	strb	ip, [r3], #1
    3db8:	e3130003 	tst	r3, #3
    3dbc:	1afffff9 	bne	3da8 <memset+0x24>
    3dc0:	e3520003 	cmp	r2, #3
    3dc4:	9a000020 	bls	3e4c <memset+0xc8>
    3dc8:	e20140ff 	and	r4, r1, #255	; 0xff
    3dcc:	e1844404 	orr	r4, r4, r4, lsl #8
    3dd0:	e352000f 	cmp	r2, #15
    3dd4:	e1844804 	orr	r4, r4, r4, lsl #16
    3dd8:	9a000010 	bls	3e20 <memset+0x9c>
    3ddc:	e2426010 	sub	r6, r2, #16
    3de0:	e1a06226 	lsr	r6, r6, #4
    3de4:	e2835010 	add	r5, r3, #16
    3de8:	e0855206 	add	r5, r5, r6, lsl #4
    3dec:	e1a0c003 	mov	ip, r3
    3df0:	e58c4000 	str	r4, [ip]
    3df4:	e58c4004 	str	r4, [ip, #4]
    3df8:	e58c4008 	str	r4, [ip, #8]
    3dfc:	e58c400c 	str	r4, [ip, #12]
    3e00:	e28cc010 	add	ip, ip, #16
    3e04:	e15c0005 	cmp	ip, r5
    3e08:	1afffff8 	bne	3df0 <memset+0x6c>
    3e0c:	e202200f 	and	r2, r2, #15
    3e10:	e2866001 	add	r6, r6, #1
    3e14:	e3520003 	cmp	r2, #3
    3e18:	e0833206 	add	r3, r3, r6, lsl #4
    3e1c:	9a00000a 	bls	3e4c <memset+0xc8>
    3e20:	e1a05003 	mov	r5, r3
    3e24:	e1a0c002 	mov	ip, r2
    3e28:	e24cc004 	sub	ip, ip, #4
    3e2c:	e35c0003 	cmp	ip, #3
    3e30:	e4854004 	str	r4, [r5], #4
    3e34:	8afffffb 	bhi	3e28 <memset+0xa4>
    3e38:	e242c004 	sub	ip, r2, #4
    3e3c:	e3ccc003 	bic	ip, ip, #3
    3e40:	e28cc004 	add	ip, ip, #4
    3e44:	e083300c 	add	r3, r3, ip
    3e48:	e2022003 	and	r2, r2, #3
    3e4c:	e3520000 	cmp	r2, #0
    3e50:	120110ff 	andne	r1, r1, #255	; 0xff
    3e54:	10832002 	addne	r2, r3, r2
    3e58:	0a000002 	beq	3e68 <memset+0xe4>
    3e5c:	e4c31001 	strb	r1, [r3], #1
    3e60:	e1530002 	cmp	r3, r2
    3e64:	1afffffc 	bne	3e5c <memset+0xd8>
    3e68:	e8bd0070 	pop	{r4, r5, r6}
    3e6c:	e12fff1e 	bx	lr
    3e70:	e1a03000 	mov	r3, r0
    3e74:	eaffffd1 	b	3dc0 <memset+0x3c>

00003e78 <__io_printf_from_arm>:
    3e78:	e51ff004 	ldr	pc, [pc, #-4]	; 3e7c <__io_printf_from_arm+0x4>
    3e7c:	00002df5 	.word	0x00002df5
    3e80:	6d20560a 	.word	0x6d20560a
    3e84:	72626d65 	.word	0x72626d65
    3e88:	20656e61 	.word	0x20656e61
    3e8c:	25202020 	.word	0x25202020
    3e90:	342e3131 	.word	0x342e3131
    3e94:	766d206b 	.word	0x766d206b
    3e98:	0000000a 	.word	0x0000000a
    3e9c:	68742056 	.word	0x68742056
    3ea0:	68736572 	.word	0x68736572
    3ea4:	20202020 	.word	0x20202020
    3ea8:	31252020 	.word	0x31252020
    3eac:	6b342e31 	.word	0x6b342e31
    3eb0:	0a766d20 	.word	0x0a766d20
    3eb4:	00000000 	.word	0x00000000
    3eb8:	65722056 	.word	0x65722056
    3ebc:	20746573 	.word	0x20746573
    3ec0:	20202020 	.word	0x20202020
    3ec4:	31252020 	.word	0x31252020
    3ec8:	6b342e31 	.word	0x6b342e31
    3ecc:	0a766d20 	.word	0x0a766d20
    3ed0:	00000000 	.word	0x00000000
    3ed4:	65722056 	.word	0x65722056
    3ed8:	20207473 	.word	0x20207473
    3edc:	20202020 	.word	0x20202020
    3ee0:	31252020 	.word	0x31252020
    3ee4:	6b342e31 	.word	0x6b342e31
    3ee8:	0a766d20 	.word	0x0a766d20
    3eec:	0000000a 	.word	0x0000000a
    3ef0:	666f2049 	.word	0x666f2049
    3ef4:	74657366 	.word	0x74657366
    3ef8:	20202020 	.word	0x20202020
    3efc:	31252020 	.word	0x31252020
    3f00:	6b342e31 	.word	0x6b342e31
    3f04:	3f416e20 	.word	0x3f416e20
    3f08:	0000000a 	.word	0x0000000a
    3f0c:	656d2052 	.word	0x656d2052
    3f10:	6172626d 	.word	0x6172626d
    3f14:	2020656e 	.word	0x2020656e
    3f18:	31252020 	.word	0x31252020
    3f1c:	6b342e31 	.word	0x6b342e31
    3f20:	686f4d20 	.word	0x686f4d20
    3f24:	00000a6d 	.word	0x00000a6d
    3f28:	61742f31 	.word	0x61742f31
    3f2c:	20435275 	.word	0x20435275
    3f30:	20202020 	.word	0x20202020
    3f34:	31252020 	.word	0x31252020
    3f38:	6b342e31 	.word	0x6b342e31
    3f3c:	7a486b20 	.word	0x7a486b20
    3f40:	0000000a 	.word	0x0000000a
    3f44:	28707865 	.word	0x28707865
    3f48:	2f736d2d 	.word	0x2f736d2d
    3f4c:	29435228 	.word	0x29435228
    3f50:	31252029 	.word	0x31252029
    3f54:	6b342e31 	.word	0x6b342e31
    3f58:	000a0a20 	.word	0x000a0a20
    3f5c:	65722054 	.word	0x65722054
    3f60:	63617266 	.word	0x63617266
    3f64:	20202074 	.word	0x20202074
    3f68:	20202020 	.word	0x20202020
    3f6c:	75252020 	.word	0x75252020
    3f70:	63696d20 	.word	0x63696d20
    3f74:	65736f72 	.word	0x65736f72
    3f78:	000a7363 	.word	0x000a7363
    3f7c:	72666572 	.word	0x72666572
    3f80:	6d697420 	.word	0x6d697420
    3f84:	20207265 	.word	0x20207265
    3f88:	20202020 	.word	0x20202020
    3f8c:	64252020 	.word	0x64252020
    3f90:	63696d20 	.word	0x63696d20
    3f94:	65736f72 	.word	0x65736f72
    3f98:	000a7363 	.word	0x000a7363

00003f9c <dma_buffer>:
    3f9c:	00404db8 004049a4 72615709 676e696e     .M@..I@..Warning
    3fac:	25202d20 70732064 20656b69 66667562      - %d spike buff
    3fbc:	20737265 7265766f 776f6c66 000a6465     ers overflowed..
    3fcc:	61766e49 2064696c 20676174 72206425     Invalid tag %d r
    3fdc:	69656365 20646576 44206e69 000a414d     eceived in DMA..
    3fec:	41575b09 4e494e52 43205d47 646c756f     .[WARNING] Could
    3ffc:	746f6e20 69727420 72656767 65737520      not trigger use
    400c:	76652072 0a746e65 00000000              r event.....

00004018 <build_date>:
    4018:	54eb435d                                ]C.T

0000401c <build_name>:
    401c:	635f4649 5f727275 5f707865 00647473     IF_curr_exp_std.
    402c:	4b524153 6970532f 6b614e4e 30007265              SARK/SpiNNaker.

0000403b <hex>:
    403b:	33323130 37363534 62613938 66656463     0123456789abcdef
    404b:	5b090900 5f697061 75626564 52205d67     ...[api_debug] R
    405b:	6d205254 20202063 61702020 74656b63     TR mc     packet
    406b:	25203a73 09000a64 70615b09 65645f69     s: %d....[api_de
    407b:	5d677562 52545220 64706420 20636d20     bug] RTR dpd mc 
    408b:	6b636170 3a737465 0a642520 5b090900     packets: %d....[
    409b:	5f697061 75626564 49205d67 74205253     api_debug] ISR t
    40ab:	776f7268 6170206e 74656b63 25203a73     hrown packets: %
    40bb:	09000a64 70615b09 65645f69 5d677562     d....[api_debug]
    40cb:	414d4420 72756220 3a737473 64252020      DMA bursts:  %d
    40db:	0909000a 6970615b 7261775f 77205d6e     ....[api_warn] w
    40eb:	696e7261 203a676e 6b736174 65757120     arning: task que
    40fb:	66206575 206c6c75 29752528 0909000a     ue full (%u)....
    410b:	6970615b 7261775f 77205d6e 696e7261     [api_warn] warni
    411b:	203a676e 20414d44 75657571 75662065     ng: DMA queue fu
    412b:	28206c6c 0a297525 5b090900 5f697061     ll (%u)....[api_
    413b:	6e726177 6177205d 6e696e72 70203a67     warn] warning: p
    414b:	656b6361 75712074 20657565 6c6c7566     acket queue full
    415b:	75252820 00000a29                                 (%u)..
